ARM GAS  /var/folders/0d/93p3r6493yg7p0rvl_4r983m0000gn/T//ccxP1SnG.s 			page 1


   1              		.cpu cortex-m4
   2              		.eabi_attribute 27, 1
   3              		.eabi_attribute 28, 1
   4              		.eabi_attribute 20, 1
   5              		.eabi_attribute 21, 1
   6              		.eabi_attribute 23, 3
   7              		.eabi_attribute 24, 1
   8              		.eabi_attribute 25, 1
   9              		.eabi_attribute 26, 1
  10              		.eabi_attribute 30, 1
  11              		.eabi_attribute 34, 1
  12              		.eabi_attribute 18, 4
  13              		.file	"config_parser.c"
  14              		.text
  15              	.Ltext0:
  16              		.cfi_sections	.debug_frame
  17              		.section	.text.copy_value,"ax",%progbits
  18              		.align	1
  19              		.syntax unified
  20              		.thumb
  21              		.thumb_func
  22              		.fpu fpv4-sp-d16
  24              	copy_value:
  25              	.LFB131:
  26              		.file 1 "Src/config_parser.c"
   1:Src/config_parser.c **** /* Copyright 2018 Maksymilian Wojczuk and Tomasz Michalec
   2:Src/config_parser.c ****  *
   3:Src/config_parser.c ****  * Permission is hereby granted, free of charge, to any person obtaining a copy
   4:Src/config_parser.c ****  * of this software and associated documentation files (the "Software"), to deal
   5:Src/config_parser.c ****  * in the Software without restriction, including without limitation the rights
   6:Src/config_parser.c ****  * to use, copy, modify, merge, publish, distribute, sublicense, and/or sell
   7:Src/config_parser.c ****  * copies of the Software, and to permit persons to whom the Software is
   8:Src/config_parser.c ****  * furnished to do so, subject to the following conditions:
   9:Src/config_parser.c ****  *
  10:Src/config_parser.c ****  * The above copyright notice and this permission notice shall be included in
  11:Src/config_parser.c ****  * all copies or substantial portions of the Software.
  12:Src/config_parser.c ****  *
  13:Src/config_parser.c ****  * THE SOFTWARE IS PROVIDED "AS IS", WITHOUT WARRANTY OF ANY KIND, EXPRESS OR
  14:Src/config_parser.c ****  * IMPLIED, INCLUDING BUT NOT LIMITED TO THE WARRANTIES OF MERCHANTABILITY,
  15:Src/config_parser.c ****  * FITNESS FOR A PARTICULAR PURPOSE AND NONINFRINGEMENT. IN NO EVENT SHALL THE
  16:Src/config_parser.c ****  * AUTHORS OR COPYRIGHT HOLDERS BE LIABLE FOR ANY CLAIM, DAMAGES OR OTHER
  17:Src/config_parser.c ****  * LIABILITY, WHETHER IN AN ACTION OF CONTRACT, TORT OR OTHERWISE, ARISING FROM,
  18:Src/config_parser.c ****  * OUT OF OR IN CONNECTION WITH THE SOFTWARE OR THE USE OR OTHER DEALINGS IN THE
  19:Src/config_parser.c ****  * SOFTWARE.
  20:Src/config_parser.c ****  */
  21:Src/config_parser.c **** 
  22:Src/config_parser.c **** #include "config_parser.h"
  23:Src/config_parser.c **** #include "default_config.h"
  24:Src/config_parser.c **** #include "fatfs.h"
  25:Src/config_parser.c **** #include "cmsis_os.h"
  26:Src/config_parser.c **** #include "communication/term_io.h"
  27:Src/config_parser.c **** #include "communication/wakaama_client/objects/object_target.h"
  28:Src/config_parser.c **** #include "communication/binary_download.h"
  29:Src/config_parser.c **** 
  30:Src/config_parser.c **** #define IF_MATCH(key, name) if(strncmp((key), (name), sizeof((name)) - 1) == 0)
  31:Src/config_parser.c **** 
  32:Src/config_parser.c **** config_t configuration = {
ARM GAS  /var/folders/0d/93p3r6493yg7p0rvl_4r983m0000gn/T//ccxP1SnG.s 			page 2


  33:Src/config_parser.c ****   .device_name = NULL,
  34:Src/config_parser.c ****   .server_uri = NULL,
  35:Src/config_parser.c ****   .local_port = -1,
  36:Src/config_parser.c ****   .wakaama_short_id = -1,
  37:Src/config_parser.c ****   .wakaama_company = NULL,
  38:Src/config_parser.c ****   .wakaama_model_number = NULL,
  39:Src/config_parser.c ****   .config_uri = NULL
  40:Src/config_parser.c **** };
  41:Src/config_parser.c **** 
  42:Src/config_parser.c **** static void copy_value(char **dst, const char *value, int value_len) {
  27              		.loc 1 42 0
  28              		.cfi_startproc
  29              		@ args = 0, pretend = 0, frame = 0
  30              		@ frame_needed = 0, uses_anonymous_args = 0
  31              	.LVL0:
  32 0000 70B5     		push	{r4, r5, r6, lr}
  33              	.LCFI0:
  34              		.cfi_def_cfa_offset 16
  35              		.cfi_offset 4, -16
  36              		.cfi_offset 5, -12
  37              		.cfi_offset 6, -8
  38              		.cfi_offset 14, -4
  39 0002 0446     		mov	r4, r0
  40 0004 0D46     		mov	r5, r1
  41 0006 1646     		mov	r6, r2
  43:Src/config_parser.c ****   if(*dst != NULL) {
  42              		.loc 1 43 0
  43 0008 0068     		ldr	r0, [r0]
  44              	.LVL1:
  45 000a 08B1     		cbz	r0, .L2
  44:Src/config_parser.c ****     vPortFree(*dst);
  46              		.loc 1 44 0
  47 000c FFF7FEFF 		bl	vPortFree
  48              	.LVL2:
  49              	.L2:
  45:Src/config_parser.c ****   }
  46:Src/config_parser.c ****   *dst = pvPortMalloc(value_len + 1);
  50              		.loc 1 46 0
  51 0010 701C     		adds	r0, r6, #1
  52 0012 FFF7FEFF 		bl	pvPortMalloc
  53              	.LVL3:
  54 0016 2060     		str	r0, [r4]
  47:Src/config_parser.c ****   strcpy(*dst, value);
  55              		.loc 1 47 0
  56 0018 2946     		mov	r1, r5
  57 001a FFF7FEFF 		bl	strcpy
  58              	.LVL4:
  48:Src/config_parser.c **** }
  59              		.loc 1 48 0
  60 001e 70BD     		pop	{r4, r5, r6, pc}
  61              		.cfi_endproc
  62              	.LFE131:
  64              		.section	.text.fill_configuration_with_default_value,"ax",%progbits
  65              		.align	1
  66              		.syntax unified
  67              		.thumb
  68              		.thumb_func
ARM GAS  /var/folders/0d/93p3r6493yg7p0rvl_4r983m0000gn/T//ccxP1SnG.s 			page 3


  69              		.fpu fpv4-sp-d16
  71              	fill_configuration_with_default_value:
  72              	.LFB132:
  49:Src/config_parser.c **** 
  50:Src/config_parser.c **** static void fill_configuration_with_default_value() {
  73              		.loc 1 50 0
  74              		.cfi_startproc
  75              		@ args = 0, pretend = 0, frame = 0
  76              		@ frame_needed = 0, uses_anonymous_args = 0
  77 0000 08B5     		push	{r3, lr}
  78              	.LCFI1:
  79              		.cfi_def_cfa_offset 8
  80              		.cfi_offset 3, -8
  81              		.cfi_offset 14, -4
  51:Src/config_parser.c ****   if(configuration.device_name == NULL) {
  82              		.loc 1 51 0
  83 0002 1C4B     		ldr	r3, .L18
  84 0004 1B68     		ldr	r3, [r3]
  85 0006 9BB1     		cbz	r3, .L12
  86              	.L5:
  52:Src/config_parser.c ****     copy_value(&(configuration.device_name), DEVICE_NAME, sizeof(DEVICE_NAME));
  53:Src/config_parser.c ****   }
  54:Src/config_parser.c ****   if(configuration.server_uri == NULL) {
  87              		.loc 1 54 0
  88 0008 1A4B     		ldr	r3, .L18
  89 000a 5B68     		ldr	r3, [r3, #4]
  90 000c B3B1     		cbz	r3, .L13
  91              	.L6:
  55:Src/config_parser.c ****     copy_value(&(configuration.server_uri), SERVER_URI, sizeof(SERVER_URI));
  56:Src/config_parser.c ****   }
  57:Src/config_parser.c ****   if(configuration.local_port == -1){
  92              		.loc 1 57 0
  93 000e 194B     		ldr	r3, .L18
  94 0010 9B68     		ldr	r3, [r3, #8]
  95 0012 B3F1FF3F 		cmp	r3, #-1
  96 0016 17D0     		beq	.L14
  97              	.L7:
  58:Src/config_parser.c ****     configuration.local_port = LOCAL_PORT;
  59:Src/config_parser.c ****   }
  60:Src/config_parser.c ****   if(configuration.wakaama_short_id == -1){
  98              		.loc 1 60 0
  99 0018 164B     		ldr	r3, .L18
 100 001a DB68     		ldr	r3, [r3, #12]
 101 001c B3F1FF3F 		cmp	r3, #-1
 102 0020 17D0     		beq	.L15
 103              	.L8:
  61:Src/config_parser.c ****     configuration.wakaama_short_id = WAKAAMA_SHORT_ID;
  62:Src/config_parser.c ****   }
  63:Src/config_parser.c ****   if(configuration.wakaama_company == NULL) {
 104              		.loc 1 63 0
 105 0022 144B     		ldr	r3, .L18
 106 0024 1B69     		ldr	r3, [r3, #16]
 107 0026 C3B1     		cbz	r3, .L16
 108              	.L9:
  64:Src/config_parser.c ****     copy_value(&(configuration.wakaama_company), WAKAAMA_COMPANY, sizeof(WAKAAMA_COMPANY));
  65:Src/config_parser.c ****   }
  66:Src/config_parser.c ****   if(configuration.wakaama_model_number == NULL) {
ARM GAS  /var/folders/0d/93p3r6493yg7p0rvl_4r983m0000gn/T//ccxP1SnG.s 			page 4


 109              		.loc 1 66 0
 110 0028 124B     		ldr	r3, .L18
 111 002a 5B69     		ldr	r3, [r3, #20]
 112 002c DBB1     		cbz	r3, .L17
 113              	.L4:
  67:Src/config_parser.c ****     copy_value(&(configuration.wakaama_model_number), WAKAAMA_MODEL_NUMBER, sizeof(WAKAAMA_MODEL_NU
  68:Src/config_parser.c ****   }
  69:Src/config_parser.c **** }
 114              		.loc 1 69 0
 115 002e 08BD     		pop	{r3, pc}
 116              	.L12:
  52:Src/config_parser.c ****   }
 117              		.loc 1 52 0
 118 0030 1922     		movs	r2, #25
 119 0032 1149     		ldr	r1, .L18+4
 120 0034 0F48     		ldr	r0, .L18
 121 0036 FFF7FEFF 		bl	copy_value
 122              	.LVL5:
 123 003a E5E7     		b	.L5
 124              	.L13:
  55:Src/config_parser.c ****   }
 125              		.loc 1 55 0
 126 003c 1822     		movs	r2, #24
 127 003e 0F49     		ldr	r1, .L18+8
 128 0040 0F48     		ldr	r0, .L18+12
 129 0042 FFF7FEFF 		bl	copy_value
 130              	.LVL6:
 131 0046 E2E7     		b	.L6
 132              	.L14:
  58:Src/config_parser.c ****   }
 133              		.loc 1 58 0
 134 0048 0A4B     		ldr	r3, .L18
 135 004a 41F23362 		movw	r2, #5683
 136 004e 9A60     		str	r2, [r3, #8]
 137 0050 E2E7     		b	.L7
 138              	.L15:
  61:Src/config_parser.c ****   }
 139              		.loc 1 61 0
 140 0052 084B     		ldr	r3, .L18
 141 0054 7B22     		movs	r2, #123
 142 0056 DA60     		str	r2, [r3, #12]
 143 0058 E3E7     		b	.L8
 144              	.L16:
  64:Src/config_parser.c ****   }
 145              		.loc 1 64 0
 146 005a 0422     		movs	r2, #4
 147 005c 0949     		ldr	r1, .L18+16
 148 005e 0A48     		ldr	r0, .L18+20
 149 0060 FFF7FEFF 		bl	copy_value
 150              	.LVL7:
 151 0064 E0E7     		b	.L9
 152              	.L17:
  67:Src/config_parser.c ****   }
 153              		.loc 1 67 0
 154 0066 1922     		movs	r2, #25
 155 0068 0349     		ldr	r1, .L18+4
 156 006a 0848     		ldr	r0, .L18+24
ARM GAS  /var/folders/0d/93p3r6493yg7p0rvl_4r983m0000gn/T//ccxP1SnG.s 			page 5


 157 006c FFF7FEFF 		bl	copy_value
 158              	.LVL8:
 159              		.loc 1 69 0
 160 0070 DDE7     		b	.L4
 161              	.L19:
 162 0072 00BF     		.align	2
 163              	.L18:
 164 0074 00000000 		.word	.LANCHOR0
 165 0078 00000000 		.word	.LC0
 166 007c 1C000000 		.word	.LC1
 167 0080 04000000 		.word	.LANCHOR0+4
 168 0084 34000000 		.word	.LC2
 169 0088 10000000 		.word	.LANCHOR0+16
 170 008c 14000000 		.word	.LANCHOR0+20
 171              		.cfi_endproc
 172              	.LFE132:
 174              		.section	.text.parse_config,"ax",%progbits
 175              		.align	1
 176              		.global	parse_config
 177              		.syntax unified
 178              		.thumb
 179              		.thumb_func
 180              		.fpu fpv4-sp-d16
 182              	parse_config:
 183              	.LFB133:
  70:Src/config_parser.c **** 
  71:Src/config_parser.c **** int parse_config() {
 184              		.loc 1 71 0
 185              		.cfi_startproc
 186              		@ args = 0, pretend = 0, frame = 616
 187              		@ frame_needed = 0, uses_anonymous_args = 0
 188 0000 2DE9F041 		push	{r4, r5, r6, r7, r8, lr}
 189              	.LCFI2:
 190              		.cfi_def_cfa_offset 24
 191              		.cfi_offset 4, -24
 192              		.cfi_offset 5, -20
 193              		.cfi_offset 6, -16
 194              		.cfi_offset 7, -12
 195              		.cfi_offset 8, -8
 196              		.cfi_offset 14, -4
 197 0004 ADF51C7D 		sub	sp, sp, #624
 198              	.LCFI3:
 199              		.cfi_def_cfa_offset 648
 200              	.LVL9:
  72:Src/config_parser.c ****   FIL config_file;
  73:Src/config_parser.c ****   const char *config_name = CONFIG_FILE_NAME;
  74:Src/config_parser.c ****   int config_to_parse = 1;
  75:Src/config_parser.c ****   char *buf = pvPortMalloc(MAX_LINE_LENGTH);
 201              		.loc 1 75 0
 202 0008 4FF48060 		mov	r0, #1024
 203 000c FFF7FEFF 		bl	pvPortMalloc
 204              	.LVL10:
 205 0010 0646     		mov	r6, r0
 206              	.LVL11:
  76:Src/config_parser.c ****   char *key;
  77:Src/config_parser.c ****   char *value;
  78:Src/config_parser.c ****   int value_len;
ARM GAS  /var/folders/0d/93p3r6493yg7p0rvl_4r983m0000gn/T//ccxP1SnG.s 			page 6


  79:Src/config_parser.c ****   target_instance_t targetP;
  80:Src/config_parser.c **** 
  81:Src/config_parser.c ****   buf[MAX_LINE_LENGTH - 1] = 'x';
 207              		.loc 1 81 0
 208 0012 7823     		movs	r3, #120
 209 0014 80F8FF33 		strb	r3, [r0, #1023]
  82:Src/config_parser.c **** 
  83:Src/config_parser.c ****   if(configuration.device_name != NULL) {
 210              		.loc 1 83 0
 211 0018 A44B     		ldr	r3, .L58
 212 001a 1868     		ldr	r0, [r3]
 213              	.LVL12:
 214 001c 20B1     		cbz	r0, .L21
  84:Src/config_parser.c ****     vPortFree(configuration.device_name);
 215              		.loc 1 84 0
 216 001e FFF7FEFF 		bl	vPortFree
 217              	.LVL13:
  85:Src/config_parser.c ****     configuration.device_name = NULL;
 218              		.loc 1 85 0
 219 0022 A24B     		ldr	r3, .L58
 220 0024 0022     		movs	r2, #0
 221 0026 1A60     		str	r2, [r3]
 222              	.L21:
  86:Src/config_parser.c ****   }
  87:Src/config_parser.c ****   if(configuration.server_uri != NULL) {
 223              		.loc 1 87 0
 224 0028 A04B     		ldr	r3, .L58
 225 002a 5868     		ldr	r0, [r3, #4]
 226 002c 20B1     		cbz	r0, .L22
  88:Src/config_parser.c ****     vPortFree(configuration.server_uri);
 227              		.loc 1 88 0
 228 002e FFF7FEFF 		bl	vPortFree
 229              	.LVL14:
  89:Src/config_parser.c ****     configuration.server_uri = NULL;
 230              		.loc 1 89 0
 231 0032 9E4B     		ldr	r3, .L58
 232 0034 0022     		movs	r2, #0
 233 0036 5A60     		str	r2, [r3, #4]
 234              	.L22:
  90:Src/config_parser.c ****   }
  91:Src/config_parser.c ****   configuration.local_port = -1;
 235              		.loc 1 91 0
 236 0038 9C4B     		ldr	r3, .L58
 237 003a 4FF0FF32 		mov	r2, #-1
 238 003e 9A60     		str	r2, [r3, #8]
  92:Src/config_parser.c ****   configuration.wakaama_short_id = -1;
 239              		.loc 1 92 0
 240 0040 DA60     		str	r2, [r3, #12]
  93:Src/config_parser.c ****   if(configuration.wakaama_company != NULL) {
 241              		.loc 1 93 0
 242 0042 1869     		ldr	r0, [r3, #16]
 243 0044 20B1     		cbz	r0, .L23
  94:Src/config_parser.c ****     vPortFree(configuration.wakaama_company);
 244              		.loc 1 94 0
 245 0046 FFF7FEFF 		bl	vPortFree
 246              	.LVL15:
  95:Src/config_parser.c ****     configuration.wakaama_company = NULL;
ARM GAS  /var/folders/0d/93p3r6493yg7p0rvl_4r983m0000gn/T//ccxP1SnG.s 			page 7


 247              		.loc 1 95 0
 248 004a 984B     		ldr	r3, .L58
 249 004c 0022     		movs	r2, #0
 250 004e 1A61     		str	r2, [r3, #16]
 251              	.L23:
  96:Src/config_parser.c ****   }
  97:Src/config_parser.c ****   if(configuration.wakaama_model_number != NULL) {
 252              		.loc 1 97 0
 253 0050 964B     		ldr	r3, .L58
 254 0052 5869     		ldr	r0, [r3, #20]
 255 0054 20B1     		cbz	r0, .L24
  98:Src/config_parser.c ****     vPortFree(configuration.wakaama_model_number);
 256              		.loc 1 98 0
 257 0056 FFF7FEFF 		bl	vPortFree
 258              	.LVL16:
  99:Src/config_parser.c ****     configuration.wakaama_model_number = NULL;
 259              		.loc 1 99 0
 260 005a 944B     		ldr	r3, .L58
 261 005c 0022     		movs	r2, #0
 262 005e 5A61     		str	r2, [r3, #20]
 263              	.L24:
 100:Src/config_parser.c ****   }
 101:Src/config_parser.c ****   if(configuration.config_uri != NULL) {
 264              		.loc 1 101 0
 265 0060 924B     		ldr	r3, .L58
 266 0062 9869     		ldr	r0, [r3, #24]
 267 0064 20B1     		cbz	r0, .L25
 102:Src/config_parser.c ****     vPortFree(configuration.config_uri);
 268              		.loc 1 102 0
 269 0066 FFF7FEFF 		bl	vPortFree
 270              	.LVL17:
 103:Src/config_parser.c ****     configuration.config_uri = NULL;
 271              		.loc 1 103 0
 272 006a 904B     		ldr	r3, .L58
 273 006c 0022     		movs	r2, #0
 274 006e 9A61     		str	r2, [r3, #24]
 275              	.L25:
  71:Src/config_parser.c ****   FIL config_file;
 276              		.loc 1 71 0
 277 0070 8F48     		ldr	r0, .L58+4
 278 0072 FCE0     		b	.L48
 279              	.LVL18:
 280              	.L50:
 104:Src/config_parser.c ****   }
 105:Src/config_parser.c **** 
 106:Src/config_parser.c ****   while(config_to_parse) {
 107:Src/config_parser.c ****     config_to_parse = 0;
 108:Src/config_parser.c **** 
 109:Src/config_parser.c ****     if(usb_open_file(config_name, &config_file, FA_READ) != 0) {
 110:Src/config_parser.c ****       vPortFree(buf);
 111:Src/config_parser.c ****       printf("%s: usb_open_file error\n", __FUNCTION__);
 112:Src/config_parser.c ****       fill_configuration_with_default_value();
 113:Src/config_parser.c ****       return -1;
 114:Src/config_parser.c ****     }
 115:Src/config_parser.c **** 
 116:Src/config_parser.c ****     do {
 117:Src/config_parser.c ****       if(f_gets(buf, MAX_LINE_LENGTH, &config_file) == NULL) {
ARM GAS  /var/folders/0d/93p3r6493yg7p0rvl_4r983m0000gn/T//ccxP1SnG.s 			page 8


 118:Src/config_parser.c ****         usb_close_file(&config_file);
 281              		.loc 1 118 0
 282 0074 10A8     		add	r0, sp, #64
 283 0076 FFF7FEFF 		bl	usb_close_file
 284              	.LVL19:
 119:Src/config_parser.c ****         printf("%s: f_gets error\n", __FUNCTION__);
 285              		.loc 1 119 0
 286 007a 8E49     		ldr	r1, .L58+8
 287 007c 8E48     		ldr	r0, .L58+12
 288 007e FFF7FEFF 		bl	printf
 289              	.LVL20:
 290              	.L29:
 120:Src/config_parser.c ****         break;
 121:Src/config_parser.c ****       }
 122:Src/config_parser.c **** 
 123:Src/config_parser.c ****       // Line exceded max line length, skip it
 124:Src/config_parser.c ****       if(buf[MAX_LINE_LENGTH - 1] != 'x') {
 125:Src/config_parser.c ****         buf[MAX_LINE_LENGTH - 1] = 'x';
 126:Src/config_parser.c ****         printf("%s: line to long, skip\n", __FUNCTION__);
 127:Src/config_parser.c ****         continue;
 128:Src/config_parser.c ****       }
 129:Src/config_parser.c **** 
 130:Src/config_parser.c ****       // Skip comment line
 131:Src/config_parser.c ****       if(*buf == COMMENT_SIGN) {
 132:Src/config_parser.c ****         continue;
 133:Src/config_parser.c ****       }
 134:Src/config_parser.c **** 
 135:Src/config_parser.c ****       key = buf;
 136:Src/config_parser.c ****       while(*key == ' ') {
 137:Src/config_parser.c ****         key++;
 138:Src/config_parser.c ****       }
 139:Src/config_parser.c **** 
 140:Src/config_parser.c ****       value = key;
 141:Src/config_parser.c ****       while(*value != '=' && *value != '\0') {
 142:Src/config_parser.c ****         value++;
 143:Src/config_parser.c ****       }
 144:Src/config_parser.c ****       // Skip line with wrong value
 145:Src/config_parser.c ****       if(*value == '\0') {
 146:Src/config_parser.c ****         continue;
 147:Src/config_parser.c ****       }
 148:Src/config_parser.c ****       // Skip '='
 149:Src/config_parser.c ****       value++;
 150:Src/config_parser.c **** 
 151:Src/config_parser.c ****       value_len = strlen(value);
 152:Src/config_parser.c ****       while(value[value_len - 1] == '\r' || value[value_len - 1] == '\n') {
 153:Src/config_parser.c ****         value[value_len - 1] = '\0';
 154:Src/config_parser.c ****         value_len--;
 155:Src/config_parser.c ****       }
 156:Src/config_parser.c **** 
 157:Src/config_parser.c ****       IF_MATCH(key, FN_DEVICE_NAME) {
 158:Src/config_parser.c ****         printf("%s: Set %s to \"%s\" \n", __FUNCTION__, FN_DEVICE_NAME, value);
 159:Src/config_parser.c ****         copy_value(&(configuration.device_name), value, value_len);
 160:Src/config_parser.c ****       }
 161:Src/config_parser.c ****       IF_MATCH(key, FN_LWM2M_SERVER_URI) {
 162:Src/config_parser.c ****         printf("%s: Set %s to \"%s\" \n", __FUNCTION__, FN_LWM2M_SERVER_URI, value);
 163:Src/config_parser.c ****         copy_value(&(configuration.server_uri), value, value_len);
 164:Src/config_parser.c ****       }
ARM GAS  /var/folders/0d/93p3r6493yg7p0rvl_4r983m0000gn/T//ccxP1SnG.s 			page 9


 165:Src/config_parser.c ****       IF_MATCH(key, FN_LOCAL_PORT) {
 166:Src/config_parser.c ****         printf("%s: Set %s to \"%s\" \n", __FUNCTION__, FN_LOCAL_PORT, value);
 167:Src/config_parser.c ****         if(xatoi(&value, &(configuration.local_port)) != -1) {
 168:Src/config_parser.c ****           configuration.local_port = -1;
 169:Src/config_parser.c ****         }
 170:Src/config_parser.c ****       }
 171:Src/config_parser.c ****       IF_MATCH(key, FN_WAKAAMA_SHORT_ID) {
 172:Src/config_parser.c ****         printf("%s: Set %s to \"%s\" \n", __FUNCTION__, FN_WAKAAMA_SHORT_ID, value);
 173:Src/config_parser.c ****         if(xatoi(&value, &(configuration.wakaama_short_id)) != -1) {
 174:Src/config_parser.c ****           configuration.wakaama_short_id = -1;
 175:Src/config_parser.c ****         }
 176:Src/config_parser.c ****       }
 177:Src/config_parser.c ****       IF_MATCH(key, FN_WAKAAMA_COMPANY) {
 178:Src/config_parser.c ****         printf("%s: Set %s to \"%s\" \n", __FUNCTION__, FN_WAKAAMA_COMPANY, value);
 179:Src/config_parser.c ****         copy_value(&(configuration.wakaama_company), value, value_len);
 180:Src/config_parser.c ****       }
 181:Src/config_parser.c ****       IF_MATCH(key, FN_WAKAAMA_MODEL_NUMBER) {
 182:Src/config_parser.c ****         printf("%s: Set %s to \"%s\" \n", __FUNCTION__, FN_WAKAAMA_MODEL_NUMBER, value);
 183:Src/config_parser.c ****         copy_value(&(configuration.wakaama_model_number), value, value_len);
 184:Src/config_parser.c ****       }
 185:Src/config_parser.c ****       IF_MATCH(key, FN_CONFIG_URI) {
 186:Src/config_parser.c ****         printf("%s: Set %s to \"%s\" \n", __FUNCTION__, FN_CONFIG_URI, value);
 187:Src/config_parser.c ****         copy_value(&(configuration.config_uri), value, value_len);
 188:Src/config_parser.c ****       }
 189:Src/config_parser.c ****     } while(!f_eof(&config_file));
 190:Src/config_parser.c **** 
 191:Src/config_parser.c ****     usb_close_file(&config_file);
 291              		.loc 1 191 0
 292 0082 10A8     		add	r0, sp, #64
 293 0084 FFF7FEFF 		bl	usb_close_file
 294              	.LVL21:
 192:Src/config_parser.c **** 
 193:Src/config_parser.c ****     if(configuration.config_uri != NULL) {
 295              		.loc 1 193 0
 296 0088 884B     		ldr	r3, .L58
 297 008a 9B69     		ldr	r3, [r3, #24]
 298 008c 002B     		cmp	r3, #0
 299 008e 00F00281 		beq	.L45
 194:Src/config_parser.c ****       targetP.firmware_url = configuration.config_uri;
 300              		.loc 1 194 0
 301 0092 0693     		str	r3, [sp, #24]
 195:Src/config_parser.c ****       targetP.binary_filename = DOWNLOADED_CONFIG_FILE_NAME;
 302              		.loc 1 195 0
 303 0094 894B     		ldr	r3, .L58+16
 304 0096 0893     		str	r3, [sp, #32]
 196:Src/config_parser.c ****       targetP.download_state = DOWNLOAD_IN_PROGRESS;
 305              		.loc 1 196 0
 306 0098 0123     		movs	r3, #1
 307 009a 8DF82430 		strb	r3, [sp, #36]
 197:Src/config_parser.c ****       xTaskCreate(startDownload, NULL, 2000, (void*) &targetP, 2, NULL);
 308              		.loc 1 197 0
 309 009e 0021     		movs	r1, #0
 310 00a0 0191     		str	r1, [sp, #4]
 311 00a2 0223     		movs	r3, #2
 312 00a4 0093     		str	r3, [sp]
 313 00a6 03AB     		add	r3, sp, #12
 314 00a8 4FF4FA62 		mov	r2, #2000
ARM GAS  /var/folders/0d/93p3r6493yg7p0rvl_4r983m0000gn/T//ccxP1SnG.s 			page 10


 315 00ac 8448     		ldr	r0, .L58+20
 316 00ae FFF7FEFF 		bl	xTaskCreate
 317              	.LVL22:
 198:Src/config_parser.c ****       while(targetP.download_state == DOWNLOAD_IN_PROGRESS) {
 318              		.loc 1 198 0
 319 00b2 CFE0     		b	.L46
 320              	.L51:
 125:Src/config_parser.c ****         printf("%s: line to long, skip\n", __FUNCTION__);
 321              		.loc 1 125 0
 322 00b4 7823     		movs	r3, #120
 323 00b6 86F8FF33 		strb	r3, [r6, #1023]
 126:Src/config_parser.c ****         continue;
 324              		.loc 1 126 0
 325 00ba 7E49     		ldr	r1, .L58+8
 326 00bc 8148     		ldr	r0, .L58+24
 327 00be FFF7FEFF 		bl	printf
 328              	.LVL23:
 329              	.L31:
 189:Src/config_parser.c **** 
 330              		.loc 1 189 0
 331 00c2 169A     		ldr	r2, [sp, #88]
 332 00c4 139B     		ldr	r3, [sp, #76]
 333 00c6 9A42     		cmp	r2, r3
 334 00c8 DBD0     		beq	.L29
 335              	.L26:
 117:Src/config_parser.c ****         usb_close_file(&config_file);
 336              		.loc 1 117 0
 337 00ca 10AA     		add	r2, sp, #64
 338 00cc 4FF48061 		mov	r1, #1024
 339 00d0 3046     		mov	r0, r6
 340 00d2 FFF7FEFF 		bl	f_gets
 341              	.LVL24:
 342 00d6 0028     		cmp	r0, #0
 343 00d8 CCD0     		beq	.L50
 124:Src/config_parser.c ****         buf[MAX_LINE_LENGTH - 1] = 'x';
 344              		.loc 1 124 0
 345 00da 96F8FF33 		ldrb	r3, [r6, #1023]	@ zero_extendqisi2
 346 00de 782B     		cmp	r3, #120
 347 00e0 E8D1     		bne	.L51
 131:Src/config_parser.c ****         continue;
 348              		.loc 1 131 0
 349 00e2 3378     		ldrb	r3, [r6]	@ zero_extendqisi2
 350 00e4 232B     		cmp	r3, #35
 351 00e6 ECD0     		beq	.L31
 135:Src/config_parser.c ****       while(*key == ' ') {
 352              		.loc 1 135 0
 353 00e8 3446     		mov	r4, r6
 354 00ea 00E0     		b	.L32
 355              	.LVL25:
 356              	.L33:
 137:Src/config_parser.c ****       }
 357              		.loc 1 137 0
 358 00ec 0134     		adds	r4, r4, #1
 359              	.LVL26:
 360              	.L32:
 136:Src/config_parser.c ****         key++;
 361              		.loc 1 136 0
ARM GAS  /var/folders/0d/93p3r6493yg7p0rvl_4r983m0000gn/T//ccxP1SnG.s 			page 11


 362 00ee 2378     		ldrb	r3, [r4]	@ zero_extendqisi2
 363 00f0 202B     		cmp	r3, #32
 364 00f2 FBD0     		beq	.L33
 140:Src/config_parser.c ****       while(*value != '=' && *value != '\0') {
 365              		.loc 1 140 0
 366 00f4 0F94     		str	r4, [sp, #60]
 141:Src/config_parser.c ****         value++;
 367              		.loc 1 141 0
 368 00f6 01E0     		b	.L34
 369              	.L36:
 142:Src/config_parser.c ****       }
 370              		.loc 1 142 0
 371 00f8 0130     		adds	r0, r0, #1
 372 00fa 0F90     		str	r0, [sp, #60]
 373              	.L34:
 141:Src/config_parser.c ****         value++;
 374              		.loc 1 141 0
 375 00fc 0F98     		ldr	r0, [sp, #60]
 376 00fe 0378     		ldrb	r3, [r0]	@ zero_extendqisi2
 377 0100 3D2B     		cmp	r3, #61
 378 0102 01D0     		beq	.L35
 141:Src/config_parser.c ****         value++;
 379              		.loc 1 141 0 is_stmt 0 discriminator 1
 380 0104 002B     		cmp	r3, #0
 381 0106 F7D1     		bne	.L36
 382              	.L35:
 145:Src/config_parser.c ****         continue;
 383              		.loc 1 145 0 is_stmt 1
 384 0108 002B     		cmp	r3, #0
 385 010a DAD0     		beq	.L31
 149:Src/config_parser.c **** 
 386              		.loc 1 149 0
 387 010c 0130     		adds	r0, r0, #1
 388 010e 0F90     		str	r0, [sp, #60]
 151:Src/config_parser.c ****       while(value[value_len - 1] == '\r' || value[value_len - 1] == '\n') {
 389              		.loc 1 151 0
 390 0110 FFF7FEFF 		bl	strlen
 391              	.LVL27:
 392 0114 0546     		mov	r5, r0
 393              	.LVL28:
 152:Src/config_parser.c ****         value[value_len - 1] = '\0';
 394              		.loc 1 152 0
 395 0116 02E0     		b	.L37
 396              	.LVL29:
 397              	.L38:
 153:Src/config_parser.c ****         value_len--;
 398              		.loc 1 153 0
 399 0118 0022     		movs	r2, #0
 400 011a FA54     		strb	r2, [r7, r3]
 154:Src/config_parser.c ****       }
 401              		.loc 1 154 0
 402 011c 013D     		subs	r5, r5, #1
 403              	.LVL30:
 404              	.L37:
 152:Src/config_parser.c ****         value[value_len - 1] = '\0';
 405              		.loc 1 152 0
 406 011e 0F9F     		ldr	r7, [sp, #60]
ARM GAS  /var/folders/0d/93p3r6493yg7p0rvl_4r983m0000gn/T//ccxP1SnG.s 			page 12


 407 0120 6B1E     		subs	r3, r5, #1
 408 0122 FA5C     		ldrb	r2, [r7, r3]	@ zero_extendqisi2
 409 0124 0D2A     		cmp	r2, #13
 410 0126 F7D0     		beq	.L38
 152:Src/config_parser.c ****         value[value_len - 1] = '\0';
 411              		.loc 1 152 0 is_stmt 0 discriminator 1
 412 0128 0A2A     		cmp	r2, #10
 413 012a F5D0     		beq	.L38
 157:Src/config_parser.c ****         printf("%s: Set %s to \"%s\" \n", __FUNCTION__, FN_DEVICE_NAME, value);
 414              		.loc 1 157 0 is_stmt 1
 415 012c 0B22     		movs	r2, #11
 416 012e 6649     		ldr	r1, .L58+28
 417 0130 2046     		mov	r0, r4
 418 0132 FFF7FEFF 		bl	strncmp
 419              	.LVL31:
 420 0136 0028     		cmp	r0, #0
 421 0138 35D0     		beq	.L52
 422              	.L39:
 161:Src/config_parser.c ****         printf("%s: Set %s to \"%s\" \n", __FUNCTION__, FN_LWM2M_SERVER_URI, value);
 423              		.loc 1 161 0
 424 013a 1022     		movs	r2, #16
 425 013c 6349     		ldr	r1, .L58+32
 426 013e 2046     		mov	r0, r4
 427 0140 FFF7FEFF 		bl	strncmp
 428              	.LVL32:
 429 0144 0028     		cmp	r0, #0
 430 0146 3AD0     		beq	.L53
 431              	.L40:
 165:Src/config_parser.c ****         printf("%s: Set %s to \"%s\" \n", __FUNCTION__, FN_LOCAL_PORT, value);
 432              		.loc 1 165 0
 433 0148 0A22     		movs	r2, #10
 434 014a 6149     		ldr	r1, .L58+36
 435 014c 2046     		mov	r0, r4
 436 014e FFF7FEFF 		bl	strncmp
 437              	.LVL33:
 438 0152 0028     		cmp	r0, #0
 439 0154 3FD0     		beq	.L54
 440              	.L41:
 171:Src/config_parser.c ****         printf("%s: Set %s to \"%s\" \n", __FUNCTION__, FN_WAKAAMA_SHORT_ID, value);
 441              		.loc 1 171 0
 442 0156 1022     		movs	r2, #16
 443 0158 5E49     		ldr	r1, .L58+40
 444 015a 2046     		mov	r0, r4
 445 015c FFF7FEFF 		bl	strncmp
 446              	.LVL34:
 447 0160 0028     		cmp	r0, #0
 448 0162 4AD0     		beq	.L55
 449              	.L42:
 177:Src/config_parser.c ****         printf("%s: Set %s to \"%s\" \n", __FUNCTION__, FN_WAKAAMA_COMPANY, value);
 450              		.loc 1 177 0
 451 0164 0F22     		movs	r2, #15
 452 0166 5C49     		ldr	r1, .L58+44
 453 0168 2046     		mov	r0, r4
 454 016a FFF7FEFF 		bl	strncmp
 455              	.LVL35:
 456 016e 0028     		cmp	r0, #0
 457 0170 55D0     		beq	.L56
ARM GAS  /var/folders/0d/93p3r6493yg7p0rvl_4r983m0000gn/T//ccxP1SnG.s 			page 13


 458              	.L43:
 181:Src/config_parser.c ****         printf("%s: Set %s to \"%s\" \n", __FUNCTION__, FN_WAKAAMA_MODEL_NUMBER, value);
 459              		.loc 1 181 0
 460 0172 1422     		movs	r2, #20
 461 0174 5949     		ldr	r1, .L58+48
 462 0176 2046     		mov	r0, r4
 463 0178 FFF7FEFF 		bl	strncmp
 464              	.LVL36:
 465 017c 0028     		cmp	r0, #0
 466 017e 5AD0     		beq	.L57
 467              	.L44:
 185:Src/config_parser.c ****         printf("%s: Set %s to \"%s\" \n", __FUNCTION__, FN_CONFIG_URI, value);
 468              		.loc 1 185 0
 469 0180 0A22     		movs	r2, #10
 470 0182 5749     		ldr	r1, .L58+52
 471 0184 2046     		mov	r0, r4
 472 0186 FFF7FEFF 		bl	strncmp
 473              	.LVL37:
 474 018a 0028     		cmp	r0, #0
 475 018c 99D1     		bne	.L31
 186:Src/config_parser.c ****         copy_value(&(configuration.config_uri), value, value_len);
 476              		.loc 1 186 0
 477 018e 0F9B     		ldr	r3, [sp, #60]
 478 0190 534A     		ldr	r2, .L58+52
 479 0192 4849     		ldr	r1, .L58+8
 480 0194 5348     		ldr	r0, .L58+56
 481 0196 FFF7FEFF 		bl	printf
 482              	.LVL38:
 187:Src/config_parser.c ****       }
 483              		.loc 1 187 0
 484 019a 2A46     		mov	r2, r5
 485 019c 0F99     		ldr	r1, [sp, #60]
 486 019e 5248     		ldr	r0, .L58+60
 487 01a0 FFF7FEFF 		bl	copy_value
 488              	.LVL39:
 489 01a4 8DE7     		b	.L31
 490              	.L52:
 158:Src/config_parser.c ****         copy_value(&(configuration.device_name), value, value_len);
 491              		.loc 1 158 0
 492 01a6 3B46     		mov	r3, r7
 493 01a8 474A     		ldr	r2, .L58+28
 494 01aa 4249     		ldr	r1, .L58+8
 495 01ac 4D48     		ldr	r0, .L58+56
 496 01ae FFF7FEFF 		bl	printf
 497              	.LVL40:
 159:Src/config_parser.c ****       }
 498              		.loc 1 159 0
 499 01b2 2A46     		mov	r2, r5
 500 01b4 0F99     		ldr	r1, [sp, #60]
 501 01b6 3D48     		ldr	r0, .L58
 502 01b8 FFF7FEFF 		bl	copy_value
 503              	.LVL41:
 504 01bc BDE7     		b	.L39
 505              	.L53:
 162:Src/config_parser.c ****         copy_value(&(configuration.server_uri), value, value_len);
 506              		.loc 1 162 0
 507 01be 0F9B     		ldr	r3, [sp, #60]
ARM GAS  /var/folders/0d/93p3r6493yg7p0rvl_4r983m0000gn/T//ccxP1SnG.s 			page 14


 508 01c0 424A     		ldr	r2, .L58+32
 509 01c2 3C49     		ldr	r1, .L58+8
 510 01c4 4748     		ldr	r0, .L58+56
 511 01c6 FFF7FEFF 		bl	printf
 512              	.LVL42:
 163:Src/config_parser.c ****       }
 513              		.loc 1 163 0
 514 01ca 2A46     		mov	r2, r5
 515 01cc 0F99     		ldr	r1, [sp, #60]
 516 01ce 4748     		ldr	r0, .L58+64
 517 01d0 FFF7FEFF 		bl	copy_value
 518              	.LVL43:
 519 01d4 B8E7     		b	.L40
 520              	.L54:
 166:Src/config_parser.c ****         if(xatoi(&value, &(configuration.local_port)) != -1) {
 521              		.loc 1 166 0
 522 01d6 0F9B     		ldr	r3, [sp, #60]
 523 01d8 3D4A     		ldr	r2, .L58+36
 524 01da 3649     		ldr	r1, .L58+8
 525 01dc 4148     		ldr	r0, .L58+56
 526 01de FFF7FEFF 		bl	printf
 527              	.LVL44:
 167:Src/config_parser.c ****           configuration.local_port = -1;
 528              		.loc 1 167 0
 529 01e2 4349     		ldr	r1, .L58+68
 530 01e4 0FA8     		add	r0, sp, #60
 531 01e6 FFF7FEFF 		bl	xatoi
 532              	.LVL45:
 533 01ea B0F1FF3F 		cmp	r0, #-1
 534 01ee B2D0     		beq	.L41
 168:Src/config_parser.c ****         }
 535              		.loc 1 168 0
 536 01f0 2E4B     		ldr	r3, .L58
 537 01f2 4FF0FF32 		mov	r2, #-1
 538 01f6 9A60     		str	r2, [r3, #8]
 539 01f8 ADE7     		b	.L41
 540              	.L55:
 172:Src/config_parser.c ****         if(xatoi(&value, &(configuration.wakaama_short_id)) != -1) {
 541              		.loc 1 172 0
 542 01fa 0F9B     		ldr	r3, [sp, #60]
 543 01fc 354A     		ldr	r2, .L58+40
 544 01fe 2D49     		ldr	r1, .L58+8
 545 0200 3848     		ldr	r0, .L58+56
 546 0202 FFF7FEFF 		bl	printf
 547              	.LVL46:
 173:Src/config_parser.c ****           configuration.wakaama_short_id = -1;
 548              		.loc 1 173 0
 549 0206 3B49     		ldr	r1, .L58+72
 550 0208 0FA8     		add	r0, sp, #60
 551 020a FFF7FEFF 		bl	xatoi
 552              	.LVL47:
 553 020e B0F1FF3F 		cmp	r0, #-1
 554 0212 A7D0     		beq	.L42
 174:Src/config_parser.c ****         }
 555              		.loc 1 174 0
 556 0214 254B     		ldr	r3, .L58
 557 0216 4FF0FF32 		mov	r2, #-1
ARM GAS  /var/folders/0d/93p3r6493yg7p0rvl_4r983m0000gn/T//ccxP1SnG.s 			page 15


 558 021a DA60     		str	r2, [r3, #12]
 559 021c A2E7     		b	.L42
 560              	.L56:
 178:Src/config_parser.c ****         copy_value(&(configuration.wakaama_company), value, value_len);
 561              		.loc 1 178 0
 562 021e 0F9B     		ldr	r3, [sp, #60]
 563 0220 2D4A     		ldr	r2, .L58+44
 564 0222 2449     		ldr	r1, .L58+8
 565 0224 2F48     		ldr	r0, .L58+56
 566 0226 FFF7FEFF 		bl	printf
 567              	.LVL48:
 179:Src/config_parser.c ****       }
 568              		.loc 1 179 0
 569 022a 2A46     		mov	r2, r5
 570 022c 0F99     		ldr	r1, [sp, #60]
 571 022e 3248     		ldr	r0, .L58+76
 572 0230 FFF7FEFF 		bl	copy_value
 573              	.LVL49:
 574 0234 9DE7     		b	.L43
 575              	.L57:
 182:Src/config_parser.c ****         copy_value(&(configuration.wakaama_model_number), value, value_len);
 576              		.loc 1 182 0
 577 0236 0F9B     		ldr	r3, [sp, #60]
 578 0238 284A     		ldr	r2, .L58+48
 579 023a 1E49     		ldr	r1, .L58+8
 580 023c 2948     		ldr	r0, .L58+56
 581 023e FFF7FEFF 		bl	printf
 582              	.LVL50:
 183:Src/config_parser.c ****       }
 583              		.loc 1 183 0
 584 0242 2A46     		mov	r2, r5
 585 0244 0F99     		ldr	r1, [sp, #60]
 586 0246 2D48     		ldr	r0, .L58+80
 587 0248 FFF7FEFF 		bl	copy_value
 588              	.LVL51:
 589 024c 98E7     		b	.L44
 590              	.LVL52:
 591              	.L47:
 199:Src/config_parser.c ****         osDelay(10);
 592              		.loc 1 199 0
 593 024e 0A20     		movs	r0, #10
 594 0250 FFF7FEFF 		bl	osDelay
 595              	.LVL53:
 596              	.L46:
 198:Src/config_parser.c ****         osDelay(10);
 597              		.loc 1 198 0
 598 0254 9DF82430 		ldrb	r3, [sp, #36]	@ zero_extendqisi2
 599 0258 012B     		cmp	r3, #1
 600 025a F8D0     		beq	.L47
 200:Src/config_parser.c ****       }
 201:Src/config_parser.c ****       if(targetP.download_state == DOWNLOAD_COMPLETED) {
 601              		.loc 1 201 0
 602 025c 032B     		cmp	r3, #3
 603 025e 1AD1     		bne	.L45
 604              	.LVL54:
 202:Src/config_parser.c ****         config_name = DOWNLOADED_CONFIG_FILE_NAME;
 203:Src/config_parser.c ****         config_to_parse = 1;
ARM GAS  /var/folders/0d/93p3r6493yg7p0rvl_4r983m0000gn/T//ccxP1SnG.s 			page 16


 204:Src/config_parser.c ****         vPortFree(configuration.config_uri);
 605              		.loc 1 204 0
 606 0260 124C     		ldr	r4, .L58
 607 0262 A069     		ldr	r0, [r4, #24]
 608 0264 FFF7FEFF 		bl	vPortFree
 609              	.LVL55:
 205:Src/config_parser.c ****         configuration.config_uri = NULL;
 610              		.loc 1 205 0
 611 0268 0023     		movs	r3, #0
 612 026a A361     		str	r3, [r4, #24]
 202:Src/config_parser.c ****         config_name = DOWNLOADED_CONFIG_FILE_NAME;
 613              		.loc 1 202 0
 614 026c 1348     		ldr	r0, .L58+16
 615              	.LVL56:
 616              	.L48:
 109:Src/config_parser.c ****       vPortFree(buf);
 617              		.loc 1 109 0
 618 026e 0122     		movs	r2, #1
 619 0270 10A9     		add	r1, sp, #64
 620 0272 FFF7FEFF 		bl	usb_open_file
 621              	.LVL57:
 622 0276 8046     		mov	r8, r0
 623 0278 0028     		cmp	r0, #0
 624 027a 3FF426AF 		beq	.L26
 110:Src/config_parser.c ****       printf("%s: usb_open_file error\n", __FUNCTION__);
 625              		.loc 1 110 0
 626 027e 3046     		mov	r0, r6
 627 0280 FFF7FEFF 		bl	vPortFree
 628              	.LVL58:
 111:Src/config_parser.c ****       fill_configuration_with_default_value();
 629              		.loc 1 111 0
 630 0284 0B49     		ldr	r1, .L58+8
 631 0286 1E48     		ldr	r0, .L58+84
 632 0288 FFF7FEFF 		bl	printf
 633              	.LVL59:
 112:Src/config_parser.c ****       return -1;
 634              		.loc 1 112 0
 635 028c FFF7FEFF 		bl	fill_configuration_with_default_value
 636              	.LVL60:
 113:Src/config_parser.c ****     }
 637              		.loc 1 113 0
 638 0290 4FF0FF38 		mov	r8, #-1
 639 0294 04E0     		b	.L20
 640              	.L45:
 206:Src/config_parser.c ****       }
 207:Src/config_parser.c ****     }
 208:Src/config_parser.c ****   }
 209:Src/config_parser.c **** 
 210:Src/config_parser.c ****   fill_configuration_with_default_value();
 641              		.loc 1 210 0
 642 0296 FFF7FEFF 		bl	fill_configuration_with_default_value
 643              	.LVL61:
 211:Src/config_parser.c **** 
 212:Src/config_parser.c ****   vPortFree(buf);
 644              		.loc 1 212 0
 645 029a 3046     		mov	r0, r6
 646 029c FFF7FEFF 		bl	vPortFree
ARM GAS  /var/folders/0d/93p3r6493yg7p0rvl_4r983m0000gn/T//ccxP1SnG.s 			page 17


 647              	.LVL62:
 648              	.L20:
 213:Src/config_parser.c ****   return 0;
 214:Src/config_parser.c **** }
 649              		.loc 1 214 0
 650 02a0 4046     		mov	r0, r8
 651 02a2 0DF51C7D 		add	sp, sp, #624
 652              	.LCFI4:
 653              		.cfi_def_cfa_offset 24
 654              		@ sp needed
 655 02a6 BDE8F081 		pop	{r4, r5, r6, r7, r8, pc}
 656              	.LVL63:
 657              	.L59:
 658 02aa 00BF     		.align	2
 659              	.L58:
 660 02ac 00000000 		.word	.LANCHOR0
 661 02b0 00000000 		.word	.LC3
 662 02b4 00000000 		.word	.LANCHOR1
 663 02b8 24000000 		.word	.LC5
 664 02bc DC000000 		.word	.LC15
 665 02c0 00000000 		.word	startDownload
 666 02c4 38000000 		.word	.LC6
 667 02c8 50000000 		.word	.LC7
 668 02cc 74000000 		.word	.LC9
 669 02d0 88000000 		.word	.LC10
 670 02d4 94000000 		.word	.LC11
 671 02d8 A8000000 		.word	.LC12
 672 02dc B8000000 		.word	.LC13
 673 02e0 D0000000 		.word	.LC14
 674 02e4 5C000000 		.word	.LC8
 675 02e8 18000000 		.word	.LANCHOR0+24
 676 02ec 04000000 		.word	.LANCHOR0+4
 677 02f0 08000000 		.word	.LANCHOR0+8
 678 02f4 0C000000 		.word	.LANCHOR0+12
 679 02f8 10000000 		.word	.LANCHOR0+16
 680 02fc 14000000 		.word	.LANCHOR0+20
 681 0300 08000000 		.word	.LC4
 682              		.cfi_endproc
 683              	.LFE133:
 685              		.global	configuration
 686              		.section	.data.configuration,"aw",%progbits
 687              		.align	2
 688              		.set	.LANCHOR0,. + 0
 691              	configuration:
 692 0000 00000000 		.word	0
 693 0004 00000000 		.word	0
 694 0008 FFFFFFFF 		.word	-1
 695 000c FFFFFFFF 		.word	-1
 696 0010 00000000 		.word	0
 697 0014 00000000 		.word	0
 698 0018 00000000 		.word	0
 699              		.section	.rodata.__FUNCTION__.11892,"a",%progbits
 700              		.align	2
 701              		.set	.LANCHOR1,. + 0
 704              	__FUNCTION__.11892:
 705 0000 70617273 		.ascii	"parse_config\000"
 705      655F636F 
ARM GAS  /var/folders/0d/93p3r6493yg7p0rvl_4r983m0000gn/T//ccxP1SnG.s 			page 18


 705      6E666967 
 705      00
 706              		.section	.rodata.fill_configuration_with_default_value.str1.4,"aMS",%progbits,1
 707              		.align	2
 708              	.LC0:
 709 0000 52656D6F 		.ascii	"Remote Programmer Device\000"
 709      74652050 
 709      726F6772 
 709      616D6D65 
 709      72204465 
 710 0019 000000   		.space	3
 711              	.LC1:
 712 001c 636F6170 		.ascii	"coap://192.168.2.1:5683\000"
 712      3A2F2F31 
 712      39322E31 
 712      36382E32 
 712      2E313A35 
 713              	.LC2:
 714 0034 41474800 		.ascii	"AGH\000"
 715              		.section	.rodata.parse_config.str1.4,"aMS",%progbits,1
 716              		.align	2
 717              	.LC3:
 718 0000 636F6E66 		.ascii	"config\000"
 718      696700
 719 0007 00       		.space	1
 720              	.LC4:
 721 0008 25733A20 		.ascii	"%s: usb_open_file error\012\000"
 721      7573625F 
 721      6F70656E 
 721      5F66696C 
 721      65206572 
 722 0021 000000   		.space	3
 723              	.LC5:
 724 0024 25733A20 		.ascii	"%s: f_gets error\012\000"
 724      665F6765 
 724      74732065 
 724      72726F72 
 724      0A00
 725 0036 0000     		.space	2
 726              	.LC6:
 727 0038 25733A20 		.ascii	"%s: line to long, skip\012\000"
 727      6C696E65 
 727      20746F20 
 727      6C6F6E67 
 727      2C20736B 
 728              	.LC7:
 729 0050 64657669 		.ascii	"device_name\000"
 729      63655F6E 
 729      616D6500 
 730              	.LC8:
 731 005c 25733A20 		.ascii	"%s: Set %s to \"%s\" \012\000"
 731      53657420 
 731      25732074 
 731      6F202225 
 731      7322200A 
 732 0071 000000   		.space	3
 733              	.LC9:
ARM GAS  /var/folders/0d/93p3r6493yg7p0rvl_4r983m0000gn/T//ccxP1SnG.s 			page 19


 734 0074 6C776D32 		.ascii	"lwm2m_server_uri\000"
 734      6D5F7365 
 734      72766572 
 734      5F757269 
 734      00
 735 0085 000000   		.space	3
 736              	.LC10:
 737 0088 6C6F6361 		.ascii	"local_port\000"
 737      6C5F706F 
 737      727400
 738 0093 00       		.space	1
 739              	.LC11:
 740 0094 77616B61 		.ascii	"wakaama_short_id\000"
 740      616D615F 
 740      73686F72 
 740      745F6964 
 740      00
 741 00a5 000000   		.space	3
 742              	.LC12:
 743 00a8 77616B61 		.ascii	"wakaama_company\000"
 743      616D615F 
 743      636F6D70 
 743      616E7900 
 744              	.LC13:
 745 00b8 77616B61 		.ascii	"wakaama_model_number\000"
 745      616D615F 
 745      6D6F6465 
 745      6C5F6E75 
 745      6D626572 
 746 00cd 000000   		.space	3
 747              	.LC14:
 748 00d0 636F6E66 		.ascii	"config_uri\000"
 748      69675F75 
 748      726900
 749 00db 00       		.space	1
 750              	.LC15:
 751 00dc 6E657463 		.ascii	"netconf\000"
 751      6F6E6600 
 752              		.text
 753              	.Letext0:
 754              		.file 2 "Inc/config_parser.h"
 755              		.file 3 "Middlewares/Third_Party/FatFs/src/integer.h"
 756              		.file 4 "/usr/local/gcc_arm/gcc-arm-none-eabi-7-2017-q4-major/arm-none-eabi/include/machine/_defau
 757              		.file 5 "/usr/local/gcc_arm/gcc-arm-none-eabi-7-2017-q4-major/arm-none-eabi/include/sys/_stdint.h"
 758              		.file 6 "Drivers/CMSIS/Include/core_cm4.h"
 759              		.file 7 "Drivers/CMSIS/Device/ST/STM32F4xx/Include/system_stm32f4xx.h"
 760              		.file 8 "/usr/local/gcc_arm/gcc-arm-none-eabi-7-2017-q4-major/arm-none-eabi/include/sys/lock.h"
 761              		.file 9 "/usr/local/gcc_arm/gcc-arm-none-eabi-7-2017-q4-major/arm-none-eabi/include/sys/_types.h"
 762              		.file 10 "/usr/local/gcc_arm/gcc-arm-none-eabi-7-2017-q4-major/lib/gcc/arm-none-eabi/7.2.1/include
 763              		.file 11 "/usr/local/gcc_arm/gcc-arm-none-eabi-7-2017-q4-major/arm-none-eabi/include/sys/reent.h"
 764              		.file 12 "Middlewares/Third_Party/FreeRTOS/Source/include/task.h"
 765              		.file 13 "Middlewares/Third_Party/FreeRTOS/Source/include/queue.h"
 766              		.file 14 "Middlewares/Third_Party/FreeRTOS/Source/include/semphr.h"
 767              		.file 15 "Middlewares/Third_Party/FreeRTOS/Source/CMSIS_RTOS/cmsis_os.h"
 768              		.file 16 "/usr/local/gcc_arm/gcc-arm-none-eabi-7-2017-q4-major/arm-none-eabi/include/stdlib.h"
 769              		.file 17 "Middlewares/ST/STM32_USB_Host_Library/Core/Inc/usbh_def.h"
 770              		.file 18 "Middlewares/ST/STM32_USB_Host_Library/Core/Inc/usbh_ctlreq.h"
ARM GAS  /var/folders/0d/93p3r6493yg7p0rvl_4r983m0000gn/T//ccxP1SnG.s 			page 20


 771              		.file 19 "Middlewares/ST/STM32_USB_Host_Library/Class/MSC/Inc/usbh_msc.h"
 772              		.file 20 "Middlewares/Third_Party/FatFs/src/ff.h"
 773              		.file 21 "Middlewares/Third_Party/FatFs/src/diskio.h"
 774              		.file 22 "Middlewares/Third_Party/FatFs/src/ff_gen_drv.h"
 775              		.file 23 "Inc/usbh_diskio.h"
 776              		.file 24 "Inc/fatfs.h"
 777              		.file 25 "Inc/target.h"
 778              		.file 26 "Inc/communication/wakaama_client/objects/object_target.h"
 779              		.file 27 "Middlewares/Third_Party/FreeRTOS/Source/include/portable.h"
 780              		.file 28 "/usr/local/gcc_arm/gcc-arm-none-eabi-7-2017-q4-major/arm-none-eabi/include/stdio.h"
 781              		.file 29 "/usr/local/gcc_arm/gcc-arm-none-eabi-7-2017-q4-major/arm-none-eabi/include/string.h"
 782              		.file 30 "Inc/communication/term_io.h"
ARM GAS  /var/folders/0d/93p3r6493yg7p0rvl_4r983m0000gn/T//ccxP1SnG.s 			page 21

