ARM GAS  /var/folders/0d/93p3r6493yg7p0rvl_4r983m0000gn/T//cc8CnAU1.s 			page 1


   1              		.cpu cortex-m4
   2              		.eabi_attribute 27, 1
   3              		.eabi_attribute 28, 1
   4              		.eabi_attribute 20, 1
   5              		.eabi_attribute 21, 1
   6              		.eabi_attribute 23, 3
   7              		.eabi_attribute 24, 1
   8              		.eabi_attribute 25, 1
   9              		.eabi_attribute 26, 1
  10              		.eabi_attribute 30, 1
  11              		.eabi_attribute 34, 1
  12              		.eabi_attribute 18, 4
  13              		.file	"jtag_low_level.c"
  14              		.text
  15              	.Ltext0:
  16              		.cfi_sections	.debug_frame
  17              		.section	.text.getUs,"ax",%progbits
  18              		.align	1
  19              		.global	getUs
  20              		.syntax unified
  21              		.thumb
  22              		.thumb_func
  23              		.fpu fpv4-sp-d16
  25              	getUs:
  26              	.LFB131:
  27              		.file 1 "Src/jtag/jtag_low_level.c"
   1:Src/jtag/jtag_low_level.c **** /* Copyright 2018 Maksymilian Wojczuk and Tomasz Michalec
   2:Src/jtag/jtag_low_level.c ****  *
   3:Src/jtag/jtag_low_level.c ****  * Permission is hereby granted, free of charge, to any person obtaining a copy
   4:Src/jtag/jtag_low_level.c ****  * of this software and associated documentation files (the "Software"), to deal
   5:Src/jtag/jtag_low_level.c ****  * in the Software without restriction, including without limitation the rights
   6:Src/jtag/jtag_low_level.c ****  * to use, copy, modify, merge, publish, distribute, sublicense, and/or sell
   7:Src/jtag/jtag_low_level.c ****  * copies of the Software, and to permit persons to whom the Software is
   8:Src/jtag/jtag_low_level.c ****  * furnished to do so, subject to the following conditions:
   9:Src/jtag/jtag_low_level.c ****  *
  10:Src/jtag/jtag_low_level.c ****  * The above copyright notice and this permission notice shall be included in
  11:Src/jtag/jtag_low_level.c ****  * all copies or substantial portions of the Software.
  12:Src/jtag/jtag_low_level.c ****  *
  13:Src/jtag/jtag_low_level.c ****  * THE SOFTWARE IS PROVIDED "AS IS", WITHOUT WARRANTY OF ANY KIND, EXPRESS OR
  14:Src/jtag/jtag_low_level.c ****  * IMPLIED, INCLUDING BUT NOT LIMITED TO THE WARRANTIES OF MERCHANTABILITY,
  15:Src/jtag/jtag_low_level.c ****  * FITNESS FOR A PARTICULAR PURPOSE AND NONINFRINGEMENT. IN NO EVENT SHALL THE
  16:Src/jtag/jtag_low_level.c ****  * AUTHORS OR COPYRIGHT HOLDERS BE LIABLE FOR ANY CLAIM, DAMAGES OR OTHER
  17:Src/jtag/jtag_low_level.c ****  * LIABILITY, WHETHER IN AN ACTION OF CONTRACT, TORT OR OTHERWISE, ARISING FROM,
  18:Src/jtag/jtag_low_level.c ****  * OUT OF OR IN CONNECTION WITH THE SOFTWARE OR THE USE OR OTHER DEALINGS IN THE
  19:Src/jtag/jtag_low_level.c ****  * SOFTWARE.
  20:Src/jtag/jtag_low_level.c ****  */
  21:Src/jtag/jtag_low_level.c **** 
  22:Src/jtag/jtag_low_level.c **** #include "main.h"
  23:Src/jtag/jtag_low_level.c **** #include "stm32f4xx_it.h"
  24:Src/jtag/jtag_low_level.c **** #include "cmsis_os.h"
  25:Src/jtag/jtag_low_level.c **** #include "assert.h"
  26:Src/jtag/jtag_low_level.c **** #include "jtag/jtag_low_level.h"
  27:Src/jtag/jtag_low_level.c **** 
  28:Src/jtag/jtag_low_level.c **** uint32_t getUs(void) {
  28              		.loc 1 28 0
  29              		.cfi_startproc
  30              		@ args = 0, pretend = 0, frame = 0
ARM GAS  /var/folders/0d/93p3r6493yg7p0rvl_4r983m0000gn/T//cc8CnAU1.s 			page 2


  31              		@ frame_needed = 0, uses_anonymous_args = 0
  32 0000 38B5     		push	{r3, r4, r5, lr}
  33              	.LCFI0:
  34              		.cfi_def_cfa_offset 16
  35              		.cfi_offset 3, -16
  36              		.cfi_offset 4, -12
  37              		.cfi_offset 5, -8
  38              		.cfi_offset 14, -4
  29:Src/jtag/jtag_low_level.c ****   static uint32_t usTicks = 0;
  30:Src/jtag/jtag_low_level.c ****   if (usTicks == 0) {
  39              		.loc 1 30 0
  40 0002 104B     		ldr	r3, .L6
  41 0004 1B68     		ldr	r3, [r3]
  42 0006 A3B1     		cbz	r3, .L5
  43              	.L3:
  31:Src/jtag/jtag_low_level.c ****     usTicks = HAL_RCC_GetSysClockFreq() / 1000000;
  32:Src/jtag/jtag_low_level.c ****   }
  33:Src/jtag/jtag_low_level.c ****   register uint32_t ms, cycle_cnt;
  34:Src/jtag/jtag_low_level.c ****   do {
  35:Src/jtag/jtag_low_level.c ****     ms = HAL_GetTick();
  44              		.loc 1 35 0 discriminator 1
  45 0008 FFF7FEFF 		bl	HAL_GetTick
  46              	.LVL0:
  47 000c 0446     		mov	r4, r0
  48              	.LVL1:
  36:Src/jtag/jtag_low_level.c ****     cycle_cnt = SysTick->VAL;
  49              		.loc 1 36 0 discriminator 1
  50 000e 0E4B     		ldr	r3, .L6+4
  51 0010 9D68     		ldr	r5, [r3, #8]
  52              	.LVL2:
  37:Src/jtag/jtag_low_level.c ****   } while (ms != HAL_GetTick());
  53              		.loc 1 37 0 discriminator 1
  54 0012 FFF7FEFF 		bl	HAL_GetTick
  55              	.LVL3:
  56 0016 A042     		cmp	r0, r4
  57 0018 F6D1     		bne	.L3
  38:Src/jtag/jtag_low_level.c ****   return (ms * 1000) + (usTicks * 1000 - cycle_cnt) / usTicks;
  58              		.loc 1 38 0
  59 001a 4FF47A70 		mov	r0, #1000
  60 001e 094B     		ldr	r3, .L6
  61 0020 1A68     		ldr	r2, [r3]
  62 0022 00FB02F3 		mul	r3, r0, r2
  63 0026 5D1B     		subs	r5, r3, r5
  64              	.LVL4:
  65 0028 B5FBF2F5 		udiv	r5, r5, r2
  39:Src/jtag/jtag_low_level.c **** }
  66              		.loc 1 39 0
  67 002c 00FB0450 		mla	r0, r0, r4, r5
  68 0030 38BD     		pop	{r3, r4, r5, pc}
  69              	.LVL5:
  70              	.L5:
  31:Src/jtag/jtag_low_level.c ****   }
  71              		.loc 1 31 0
  72 0032 FFF7FEFF 		bl	HAL_RCC_GetSysClockFreq
  73              	.LVL6:
  74 0036 054B     		ldr	r3, .L6+8
  75 0038 A3FB0023 		umull	r2, r3, r3, r0
ARM GAS  /var/folders/0d/93p3r6493yg7p0rvl_4r983m0000gn/T//cc8CnAU1.s 			page 3


  76 003c 9B0C     		lsrs	r3, r3, #18
  77 003e 014A     		ldr	r2, .L6
  78 0040 1360     		str	r3, [r2]
  79 0042 E1E7     		b	.L3
  80              	.L7:
  81              		.align	2
  82              	.L6:
  83 0044 00000000 		.word	.LANCHOR0
  84 0048 10E000E0 		.word	-536813552
  85 004c 83DE1B43 		.word	1125899907
  86              		.cfi_endproc
  87              	.LFE131:
  89              		.section	.text.delayUs,"ax",%progbits
  90              		.align	1
  91              		.global	delayUs
  92              		.syntax unified
  93              		.thumb
  94              		.thumb_func
  95              		.fpu fpv4-sp-d16
  97              	delayUs:
  98              	.LFB132:
  40:Src/jtag/jtag_low_level.c **** 
  41:Src/jtag/jtag_low_level.c **** void delayUs(uint16_t micros)
  42:Src/jtag/jtag_low_level.c **** {
  99              		.loc 1 42 0
 100              		.cfi_startproc
 101              		@ args = 0, pretend = 0, frame = 0
 102              		@ frame_needed = 0, uses_anonymous_args = 0
 103              	.LVL7:
 104 0000 38B5     		push	{r3, r4, r5, lr}
 105              	.LCFI1:
 106              		.cfi_def_cfa_offset 16
 107              		.cfi_offset 3, -16
 108              		.cfi_offset 4, -12
 109              		.cfi_offset 5, -8
 110              		.cfi_offset 14, -4
 111 0002 0546     		mov	r5, r0
  43:Src/jtag/jtag_low_level.c ****   uint32_t start = getUs();
 112              		.loc 1 43 0
 113 0004 FFF7FEFF 		bl	getUs
 114              	.LVL8:
 115 0008 0446     		mov	r4, r0
 116              	.LVL9:
  44:Src/jtag/jtag_low_level.c **** 
  45:Src/jtag/jtag_low_level.c ****   while (getUs()-start < (uint32_t) micros) {
 117              		.loc 1 45 0
 118 000a 00E0     		b	.L9
 119              	.LVL10:
 120              	.L10:
  46:Src/jtag/jtag_low_level.c ****     asm("nop");
 121              		.loc 1 46 0
 122              		.syntax unified
 123              	@ 46 "Src/jtag/jtag_low_level.c" 1
 124 000c 00BF     		nop
 125              	@ 0 "" 2
 126              		.thumb
 127              		.syntax unified
ARM GAS  /var/folders/0d/93p3r6493yg7p0rvl_4r983m0000gn/T//cc8CnAU1.s 			page 4


 128              	.L9:
  45:Src/jtag/jtag_low_level.c ****     asm("nop");
 129              		.loc 1 45 0
 130 000e FFF7FEFF 		bl	getUs
 131              	.LVL11:
 132 0012 001B     		subs	r0, r0, r4
 133 0014 A842     		cmp	r0, r5
 134 0016 F9D3     		bcc	.L10
  47:Src/jtag/jtag_low_level.c ****   }
  48:Src/jtag/jtag_low_level.c **** }
 135              		.loc 1 48 0
 136 0018 38BD     		pop	{r3, r4, r5, pc}
 137              		.cfi_endproc
 138              	.LFE132:
 140              		.section	.text.jtag_tclk_up,"ax",%progbits
 141              		.align	1
 142              		.global	jtag_tclk_up
 143              		.syntax unified
 144              		.thumb
 145              		.thumb_func
 146              		.fpu fpv4-sp-d16
 148              	jtag_tclk_up:
 149              	.LFB134:
  49:Src/jtag/jtag_low_level.c **** 
  50:Src/jtag/jtag_low_level.c **** #if TCKWAIT == 0
  51:Src/jtag/jtag_low_level.c **** // current implementation of JTAG low level routines allow us to get ~1MHz if there
  52:Src/jtag/jtag_low_level.c **** // is no additional delay.
  53:Src/jtag/jtag_low_level.c **** static inline void short_delay(){
  54:Src/jtag/jtag_low_level.c ****   asm("nop");
  55:Src/jtag/jtag_low_level.c ****   asm("nop");
  56:Src/jtag/jtag_low_level.c ****   asm("nop");
  57:Src/jtag/jtag_low_level.c ****   asm("nop");
  58:Src/jtag/jtag_low_level.c ****   asm("nop");
  59:Src/jtag/jtag_low_level.c ****   asm("nop");
  60:Src/jtag/jtag_low_level.c ****   asm("nop");
  61:Src/jtag/jtag_low_level.c ****   asm("nop");
  62:Src/jtag/jtag_low_level.c **** }
  63:Src/jtag/jtag_low_level.c **** #endif
  64:Src/jtag/jtag_low_level.c **** 
  65:Src/jtag/jtag_low_level.c **** void jtag_tclk_up()
  66:Src/jtag/jtag_low_level.c **** {
 150              		.loc 1 66 0
 151              		.cfi_startproc
 152              		@ args = 0, pretend = 0, frame = 0
 153              		@ frame_needed = 0, uses_anonymous_args = 0
 154 0000 08B5     		push	{r3, lr}
 155              	.LCFI2:
 156              		.cfi_def_cfa_offset 8
 157              		.cfi_offset 3, -8
 158              		.cfi_offset 14, -4
 159              	.LBB6:
 160              	.LBB7:
  54:Src/jtag/jtag_low_level.c ****   asm("nop");
 161              		.loc 1 54 0
 162              		.syntax unified
 163              	@ 54 "Src/jtag/jtag_low_level.c" 1
 164 0002 00BF     		nop
ARM GAS  /var/folders/0d/93p3r6493yg7p0rvl_4r983m0000gn/T//cc8CnAU1.s 			page 5


 165              	@ 0 "" 2
  55:Src/jtag/jtag_low_level.c ****   asm("nop");
 166              		.loc 1 55 0
 167              	@ 55 "Src/jtag/jtag_low_level.c" 1
 168 0004 00BF     		nop
 169              	@ 0 "" 2
  56:Src/jtag/jtag_low_level.c ****   asm("nop");
 170              		.loc 1 56 0
 171              	@ 56 "Src/jtag/jtag_low_level.c" 1
 172 0006 00BF     		nop
 173              	@ 0 "" 2
  57:Src/jtag/jtag_low_level.c ****   asm("nop");
 174              		.loc 1 57 0
 175              	@ 57 "Src/jtag/jtag_low_level.c" 1
 176 0008 00BF     		nop
 177              	@ 0 "" 2
  58:Src/jtag/jtag_low_level.c ****   asm("nop");
 178              		.loc 1 58 0
 179              	@ 58 "Src/jtag/jtag_low_level.c" 1
 180 000a 00BF     		nop
 181              	@ 0 "" 2
  59:Src/jtag/jtag_low_level.c ****   asm("nop");
 182              		.loc 1 59 0
 183              	@ 59 "Src/jtag/jtag_low_level.c" 1
 184 000c 00BF     		nop
 185              	@ 0 "" 2
  60:Src/jtag/jtag_low_level.c ****   asm("nop");
 186              		.loc 1 60 0
 187              	@ 60 "Src/jtag/jtag_low_level.c" 1
 188 000e 00BF     		nop
 189              	@ 0 "" 2
  61:Src/jtag/jtag_low_level.c **** }
 190              		.loc 1 61 0
 191              	@ 61 "Src/jtag/jtag_low_level.c" 1
 192 0010 00BF     		nop
 193              	@ 0 "" 2
 194              		.thumb
 195              		.syntax unified
 196              	.LBE7:
 197              	.LBE6:
  67:Src/jtag/jtag_low_level.c **** #if TCKWAIT == 0
  68:Src/jtag/jtag_low_level.c ****   short_delay();
  69:Src/jtag/jtag_low_level.c **** #else
  70:Src/jtag/jtag_low_level.c ****   delayUs(TCKWAIT);
  71:Src/jtag/jtag_low_level.c **** #endif
  72:Src/jtag/jtag_low_level.c ****   HAL_GPIO_WritePin(JTAG_TCLK_GPIO_Port, JTAG_TCLK_Pin, GPIO_PIN_SET);
 198              		.loc 1 72 0
 199 0012 0122     		movs	r2, #1
 200 0014 4FF48051 		mov	r1, #4096
 201 0018 0148     		ldr	r0, .L14
 202 001a FFF7FEFF 		bl	HAL_GPIO_WritePin
 203              	.LVL12:
  73:Src/jtag/jtag_low_level.c **** }
 204              		.loc 1 73 0
 205 001e 08BD     		pop	{r3, pc}
 206              	.L15:
 207              		.align	2
ARM GAS  /var/folders/0d/93p3r6493yg7p0rvl_4r983m0000gn/T//cc8CnAU1.s 			page 6


 208              	.L14:
 209 0020 00080240 		.word	1073874944
 210              		.cfi_endproc
 211              	.LFE134:
 213              		.section	.text.jtag_tclk_down,"ax",%progbits
 214              		.align	1
 215              		.global	jtag_tclk_down
 216              		.syntax unified
 217              		.thumb
 218              		.thumb_func
 219              		.fpu fpv4-sp-d16
 221              	jtag_tclk_down:
 222              	.LFB135:
  74:Src/jtag/jtag_low_level.c **** 
  75:Src/jtag/jtag_low_level.c **** void jtag_tclk_down()
  76:Src/jtag/jtag_low_level.c **** {
 223              		.loc 1 76 0
 224              		.cfi_startproc
 225              		@ args = 0, pretend = 0, frame = 0
 226              		@ frame_needed = 0, uses_anonymous_args = 0
 227 0000 08B5     		push	{r3, lr}
 228              	.LCFI3:
 229              		.cfi_def_cfa_offset 8
 230              		.cfi_offset 3, -8
 231              		.cfi_offset 14, -4
 232              	.LBB8:
 233              	.LBB9:
  54:Src/jtag/jtag_low_level.c ****   asm("nop");
 234              		.loc 1 54 0
 235              		.syntax unified
 236              	@ 54 "Src/jtag/jtag_low_level.c" 1
 237 0002 00BF     		nop
 238              	@ 0 "" 2
  55:Src/jtag/jtag_low_level.c ****   asm("nop");
 239              		.loc 1 55 0
 240              	@ 55 "Src/jtag/jtag_low_level.c" 1
 241 0004 00BF     		nop
 242              	@ 0 "" 2
  56:Src/jtag/jtag_low_level.c ****   asm("nop");
 243              		.loc 1 56 0
 244              	@ 56 "Src/jtag/jtag_low_level.c" 1
 245 0006 00BF     		nop
 246              	@ 0 "" 2
  57:Src/jtag/jtag_low_level.c ****   asm("nop");
 247              		.loc 1 57 0
 248              	@ 57 "Src/jtag/jtag_low_level.c" 1
 249 0008 00BF     		nop
 250              	@ 0 "" 2
  58:Src/jtag/jtag_low_level.c ****   asm("nop");
 251              		.loc 1 58 0
 252              	@ 58 "Src/jtag/jtag_low_level.c" 1
 253 000a 00BF     		nop
 254              	@ 0 "" 2
  59:Src/jtag/jtag_low_level.c ****   asm("nop");
 255              		.loc 1 59 0
 256              	@ 59 "Src/jtag/jtag_low_level.c" 1
 257 000c 00BF     		nop
ARM GAS  /var/folders/0d/93p3r6493yg7p0rvl_4r983m0000gn/T//cc8CnAU1.s 			page 7


 258              	@ 0 "" 2
  60:Src/jtag/jtag_low_level.c ****   asm("nop");
 259              		.loc 1 60 0
 260              	@ 60 "Src/jtag/jtag_low_level.c" 1
 261 000e 00BF     		nop
 262              	@ 0 "" 2
  61:Src/jtag/jtag_low_level.c **** }
 263              		.loc 1 61 0
 264              	@ 61 "Src/jtag/jtag_low_level.c" 1
 265 0010 00BF     		nop
 266              	@ 0 "" 2
 267              		.thumb
 268              		.syntax unified
 269              	.LBE9:
 270              	.LBE8:
  77:Src/jtag/jtag_low_level.c **** #if TCKWAIT == 0
  78:Src/jtag/jtag_low_level.c ****   short_delay();
  79:Src/jtag/jtag_low_level.c **** #else
  80:Src/jtag/jtag_low_level.c ****   delayUs(TCKWAIT);
  81:Src/jtag/jtag_low_level.c **** #endif
  82:Src/jtag/jtag_low_level.c ****   HAL_GPIO_WritePin(JTAG_TCLK_GPIO_Port, JTAG_TCLK_Pin, GPIO_PIN_RESET);
 271              		.loc 1 82 0
 272 0012 0022     		movs	r2, #0
 273 0014 4FF48051 		mov	r1, #4096
 274 0018 0148     		ldr	r0, .L18
 275 001a FFF7FEFF 		bl	HAL_GPIO_WritePin
 276              	.LVL13:
  83:Src/jtag/jtag_low_level.c **** }
 277              		.loc 1 83 0
 278 001e 08BD     		pop	{r3, pc}
 279              	.L19:
 280              		.align	2
 281              	.L18:
 282 0020 00080240 		.word	1073874944
 283              		.cfi_endproc
 284              	.LFE135:
 286              		.section	.text.jtag_tclk,"ax",%progbits
 287              		.align	1
 288              		.global	jtag_tclk
 289              		.syntax unified
 290              		.thumb
 291              		.thumb_func
 292              		.fpu fpv4-sp-d16
 294              	jtag_tclk:
 295              	.LFB136:
  84:Src/jtag/jtag_low_level.c **** 
  85:Src/jtag/jtag_low_level.c **** void jtag_tclk(void)
  86:Src/jtag/jtag_low_level.c **** {
 296              		.loc 1 86 0
 297              		.cfi_startproc
 298              		@ args = 0, pretend = 0, frame = 0
 299              		@ frame_needed = 0, uses_anonymous_args = 0
 300 0000 08B5     		push	{r3, lr}
 301              	.LCFI4:
 302              		.cfi_def_cfa_offset 8
 303              		.cfi_offset 3, -8
 304              		.cfi_offset 14, -4
ARM GAS  /var/folders/0d/93p3r6493yg7p0rvl_4r983m0000gn/T//cc8CnAU1.s 			page 8


  87:Src/jtag/jtag_low_level.c ****   jtag_tclk_up();
 305              		.loc 1 87 0
 306 0002 FFF7FEFF 		bl	jtag_tclk_up
 307              	.LVL14:
  88:Src/jtag/jtag_low_level.c ****   jtag_tclk_down();
 308              		.loc 1 88 0
 309 0006 FFF7FEFF 		bl	jtag_tclk_down
 310              	.LVL15:
  89:Src/jtag/jtag_low_level.c **** }
 311              		.loc 1 89 0
 312 000a 08BD     		pop	{r3, pc}
 313              		.cfi_endproc
 314              	.LFE136:
 316              		.section	.text.jtag_tms,"ax",%progbits
 317              		.align	1
 318              		.global	jtag_tms
 319              		.syntax unified
 320              		.thumb
 321              		.thumb_func
 322              		.fpu fpv4-sp-d16
 324              	jtag_tms:
 325              	.LFB137:
  90:Src/jtag/jtag_low_level.c **** 
  91:Src/jtag/jtag_low_level.c **** // set TMS to value, cycle TCK
  92:Src/jtag/jtag_low_level.c **** void jtag_tms(GPIO_PinState state)
  93:Src/jtag/jtag_low_level.c **** {
 326              		.loc 1 93 0
 327              		.cfi_startproc
 328              		@ args = 0, pretend = 0, frame = 0
 329              		@ frame_needed = 0, uses_anonymous_args = 0
 330              	.LVL16:
 331 0000 10B5     		push	{r4, lr}
 332              	.LCFI5:
 333              		.cfi_def_cfa_offset 8
 334              		.cfi_offset 4, -8
 335              		.cfi_offset 14, -4
 336 0002 0446     		mov	r4, r0
  94:Src/jtag/jtag_low_level.c ****   jtag_tclk_down();
 337              		.loc 1 94 0
 338 0004 FFF7FEFF 		bl	jtag_tclk_down
 339              	.LVL17:
  95:Src/jtag/jtag_low_level.c ****   HAL_GPIO_WritePin(JTAG_TMS_GPIO_Port, JTAG_TMS_Pin, state);
 340              		.loc 1 95 0
 341 0008 2246     		mov	r2, r4
 342 000a 4FF40061 		mov	r1, #2048
 343 000e 0348     		ldr	r0, .L24
 344 0010 FFF7FEFF 		bl	HAL_GPIO_WritePin
 345              	.LVL18:
  96:Src/jtag/jtag_low_level.c ****   jtag_tclk_up();
 346              		.loc 1 96 0
 347 0014 FFF7FEFF 		bl	jtag_tclk_up
 348              	.LVL19:
  97:Src/jtag/jtag_low_level.c **** }
 349              		.loc 1 97 0
 350 0018 10BD     		pop	{r4, pc}
 351              	.L25:
 352 001a 00BF     		.align	2
ARM GAS  /var/folders/0d/93p3r6493yg7p0rvl_4r983m0000gn/T//cc8CnAU1.s 			page 9


 353              	.L24:
 354 001c 00080240 		.word	1073874944
 355              		.cfi_endproc
 356              	.LFE137:
 358              		.section	.text.jtag_tdi,"ax",%progbits
 359              		.align	1
 360              		.global	jtag_tdi
 361              		.syntax unified
 362              		.thumb
 363              		.thumb_func
 364              		.fpu fpv4-sp-d16
 366              	jtag_tdi:
 367              	.LFB138:
  98:Src/jtag/jtag_low_level.c **** 
  99:Src/jtag/jtag_low_level.c **** // cycle TCK, set TDI to value, sample TDO
 100:Src/jtag/jtag_low_level.c **** int jtag_tdi(GPIO_PinState tdi_val, GPIO_PinState tms_val)
 101:Src/jtag/jtag_low_level.c **** {
 368              		.loc 1 101 0
 369              		.cfi_startproc
 370              		@ args = 0, pretend = 0, frame = 0
 371              		@ frame_needed = 0, uses_anonymous_args = 0
 372              	.LVL20:
 373 0000 70B5     		push	{r4, r5, r6, lr}
 374              	.LCFI6:
 375              		.cfi_def_cfa_offset 16
 376              		.cfi_offset 4, -16
 377              		.cfi_offset 5, -12
 378              		.cfi_offset 6, -8
 379              		.cfi_offset 14, -4
 380 0002 0646     		mov	r6, r0
 381 0004 0D46     		mov	r5, r1
 102:Src/jtag/jtag_low_level.c ****   int tdo;
 103:Src/jtag/jtag_low_level.c ****   jtag_tclk_down();
 382              		.loc 1 103 0
 383 0006 FFF7FEFF 		bl	jtag_tclk_down
 384              	.LVL21:
 104:Src/jtag/jtag_low_level.c ****   HAL_GPIO_WritePin(JTAG_TDI_GPIO_Port, JTAG_TDI_Pin, tdi_val);
 385              		.loc 1 104 0
 386 000a 0C4C     		ldr	r4, .L28
 387 000c 3246     		mov	r2, r6
 388 000e 4FF40071 		mov	r1, #512
 389 0012 2046     		mov	r0, r4
 390 0014 FFF7FEFF 		bl	HAL_GPIO_WritePin
 391              	.LVL22:
 105:Src/jtag/jtag_low_level.c ****   HAL_GPIO_WritePin(JTAG_TMS_GPIO_Port, JTAG_TMS_Pin, tms_val);
 392              		.loc 1 105 0
 393 0018 2A46     		mov	r2, r5
 394 001a 4FF40061 		mov	r1, #2048
 395 001e 2046     		mov	r0, r4
 396 0020 FFF7FEFF 		bl	HAL_GPIO_WritePin
 397              	.LVL23:
 106:Src/jtag/jtag_low_level.c ****   jtag_tclk_up();
 398              		.loc 1 106 0
 399 0024 FFF7FEFF 		bl	jtag_tclk_up
 400              	.LVL24:
 107:Src/jtag/jtag_low_level.c ****   tdo = HAL_GPIO_ReadPin(JTAG_TDO_GPIO_Port, JTAG_TDO_Pin) == GPIO_PIN_SET ? 1 : 0;
 401              		.loc 1 107 0
ARM GAS  /var/folders/0d/93p3r6493yg7p0rvl_4r983m0000gn/T//cc8CnAU1.s 			page 10


 402 0028 4FF48061 		mov	r1, #1024
 403 002c 2046     		mov	r0, r4
 404 002e FFF7FEFF 		bl	HAL_GPIO_ReadPin
 405              	.LVL25:
 108:Src/jtag/jtag_low_level.c ****   return tdo;
 109:Src/jtag/jtag_low_level.c **** }
 406              		.loc 1 109 0
 407 0032 0128     		cmp	r0, #1
 408 0034 14BF     		ite	ne
 409 0036 0020     		movne	r0, #0
 410              	.LVL26:
 411 0038 0120     		moveq	r0, #1
 412 003a 70BD     		pop	{r4, r5, r6, pc}
 413              	.L29:
 414              		.align	2
 415              	.L28:
 416 003c 00080240 		.word	1073874944
 417              		.cfi_endproc
 418              	.LFE138:
 420              		.section	.text.jtag_tdin,"ax",%progbits
 421              		.align	1
 422              		.global	jtag_tdin
 423              		.syntax unified
 424              		.thumb
 425              		.thumb_func
 426              		.fpu fpv4-sp-d16
 428              	jtag_tdin:
 429              	.LFB139:
 110:Src/jtag/jtag_low_level.c **** 
 111:Src/jtag/jtag_low_level.c **** // multi-bit version of tdi()
 112:Src/jtag/jtag_low_level.c **** // shift bits to TDI from right most
 113:Src/jtag/jtag_low_level.c **** // first bit from TDO is n-th bit in res 
 114:Src/jtag/jtag_low_level.c **** uint_jtag_transfer_t jtag_tdin(uint8_t n, uint_jtag_transfer_t bits, GPIO_PinState last_tms)
 115:Src/jtag/jtag_low_level.c **** {
 430              		.loc 1 115 0
 431              		.cfi_startproc
 432              		@ args = 0, pretend = 0, frame = 0
 433              		@ frame_needed = 0, uses_anonymous_args = 0
 434              	.LVL27:
 435 0000 2DE9F041 		push	{r4, r5, r6, r7, r8, lr}
 436              	.LCFI7:
 437              		.cfi_def_cfa_offset 24
 438              		.cfi_offset 4, -24
 439              		.cfi_offset 5, -20
 440              		.cfi_offset 6, -16
 441              		.cfi_offset 7, -12
 442              		.cfi_offset 8, -8
 443              		.cfi_offset 14, -4
 444              	.LVL28:
 116:Src/jtag/jtag_low_level.c ****   uint_jtag_transfer_t res = 0, mask;
 117:Src/jtag/jtag_low_level.c **** 
 118:Src/jtag/jtag_low_level.c ****   assert(n <= SIZEOF_IN_BITS(uint_jtag_transfer_t));
 445              		.loc 1 118 0
 446 0004 2028     		cmp	r0, #32
 447 0006 05D8     		bhi	.L38
 448 0008 0446     		mov	r4, r0
 449 000a 0F46     		mov	r7, r1
ARM GAS  /var/folders/0d/93p3r6493yg7p0rvl_4r983m0000gn/T//cc8CnAU1.s 			page 11


 450 000c 9046     		mov	r8, r2
 119:Src/jtag/jtag_low_level.c **** 
 120:Src/jtag/jtag_low_level.c ****   // mask == 0b00100..n..0
 121:Src/jtag/jtag_low_level.c ****   for(mask = 1; n; mask <<= 1, n--) {
 451              		.loc 1 121 0
 452 000e 0125     		movs	r5, #1
 116:Src/jtag/jtag_low_level.c ****   uint_jtag_transfer_t res = 0, mask;
 453              		.loc 1 116 0
 454 0010 0026     		movs	r6, #0
 455 0012 0AE0     		b	.L31
 456              	.L38:
 118:Src/jtag/jtag_low_level.c **** 
 457              		.loc 1 118 0 discriminator 1
 458 0014 0D4B     		ldr	r3, .L41
 459 0016 0E4A     		ldr	r2, .L41+4
 460              	.LVL29:
 461 0018 7621     		movs	r1, #118
 462              	.LVL30:
 463 001a 0E48     		ldr	r0, .L41+8
 464              	.LVL31:
 465 001c FFF7FEFF 		bl	__assert_func
 466              	.LVL32:
 467              	.L40:
 122:Src/jtag/jtag_low_level.c ****     if (jtag_tdi(((bits & mask) ? GPIO_PIN_SET : GPIO_PIN_RESET), ((n - 1) ? GPIO_PIN_RESET : last_
 468              		.loc 1 122 0
 469 0020 4146     		mov	r1, r8
 470 0022 0AE0     		b	.L32
 471              	.L33:
 121:Src/jtag/jtag_low_level.c ****     if (jtag_tdi(((bits & mask) ? GPIO_PIN_SET : GPIO_PIN_RESET), ((n - 1) ? GPIO_PIN_RESET : last_
 472              		.loc 1 121 0 discriminator 2
 473 0024 6D00     		lsls	r5, r5, #1
 474              	.LVL33:
 475 0026 013C     		subs	r4, r4, #1
 476              	.LVL34:
 477 0028 E4B2     		uxtb	r4, r4
 478              	.LVL35:
 479              	.L31:
 121:Src/jtag/jtag_low_level.c ****     if (jtag_tdi(((bits & mask) ? GPIO_PIN_SET : GPIO_PIN_RESET), ((n - 1) ? GPIO_PIN_RESET : last_
 480              		.loc 1 121 0 is_stmt 0 discriminator 1
 481 002a 64B1     		cbz	r4, .L39
 482              		.loc 1 122 0 is_stmt 1
 483 002c 3D42     		tst	r5, r7
 484 002e 14BF     		ite	ne
 485 0030 0120     		movne	r0, #1
 486 0032 0020     		moveq	r0, #0
 487 0034 012C     		cmp	r4, #1
 488 0036 F3D0     		beq	.L40
 489 0038 0021     		movs	r1, #0
 490              	.L32:
 491              		.loc 1 122 0 is_stmt 0 discriminator 4
 492 003a FFF7FEFF 		bl	jtag_tdi
 493              	.LVL36:
 494 003e 0028     		cmp	r0, #0
 495 0040 F0D0     		beq	.L33
 123:Src/jtag/jtag_low_level.c ****       // if TDO == 1 then add 1 to res
 124:Src/jtag/jtag_low_level.c ****       res |= mask;
 496              		.loc 1 124 0 is_stmt 1
ARM GAS  /var/folders/0d/93p3r6493yg7p0rvl_4r983m0000gn/T//cc8CnAU1.s 			page 12


 497 0042 2E43     		orrs	r6, r6, r5
 498              	.LVL37:
 499 0044 EEE7     		b	.L33
 500              	.L39:
 125:Src/jtag/jtag_low_level.c ****     }
 126:Src/jtag/jtag_low_level.c ****   }
 127:Src/jtag/jtag_low_level.c **** 
 128:Src/jtag/jtag_low_level.c ****   return res;
 129:Src/jtag/jtag_low_level.c **** }
 501              		.loc 1 129 0
 502 0046 3046     		mov	r0, r6
 503 0048 BDE8F081 		pop	{r4, r5, r6, r7, r8, pc}
 504              	.LVL38:
 505              	.L42:
 506              		.align	2
 507              	.L41:
 508 004c 00000000 		.word	.LC0
 509 0050 00000000 		.word	.LANCHOR1
 510 0054 2C000000 		.word	.LC1
 511              		.cfi_endproc
 512              	.LFE139:
 514              		.section	.text.jtag_from_idle_to_shift_ir,"ax",%progbits
 515              		.align	1
 516              		.global	jtag_from_idle_to_shift_ir
 517              		.syntax unified
 518              		.thumb
 519              		.thumb_func
 520              		.fpu fpv4-sp-d16
 522              	jtag_from_idle_to_shift_ir:
 523              	.LFB140:
 130:Src/jtag/jtag_low_level.c **** 
 131:Src/jtag/jtag_low_level.c **** void jtag_from_idle_to_shift_ir()
 132:Src/jtag/jtag_low_level.c **** {
 524              		.loc 1 132 0
 525              		.cfi_startproc
 526              		@ args = 0, pretend = 0, frame = 0
 527              		@ frame_needed = 0, uses_anonymous_args = 0
 528 0000 08B5     		push	{r3, lr}
 529              	.LCFI8:
 530              		.cfi_def_cfa_offset 8
 531              		.cfi_offset 3, -8
 532              		.cfi_offset 14, -4
 133:Src/jtag/jtag_low_level.c ****   // jtag_tms: 1, 1, 0, 0
 134:Src/jtag/jtag_low_level.c ****   jtag_tms(0);
 533              		.loc 1 134 0
 534 0002 0020     		movs	r0, #0
 535 0004 FFF7FEFF 		bl	jtag_tms
 536              	.LVL39:
 135:Src/jtag/jtag_low_level.c ****   jtag_tms(1);
 537              		.loc 1 135 0
 538 0008 0120     		movs	r0, #1
 539 000a FFF7FEFF 		bl	jtag_tms
 540              	.LVL40:
 136:Src/jtag/jtag_low_level.c ****   jtag_tms(1);
 541              		.loc 1 136 0
 542 000e 0120     		movs	r0, #1
 543 0010 FFF7FEFF 		bl	jtag_tms
ARM GAS  /var/folders/0d/93p3r6493yg7p0rvl_4r983m0000gn/T//cc8CnAU1.s 			page 13


 544              	.LVL41:
 137:Src/jtag/jtag_low_level.c ****   jtag_tms(0);
 545              		.loc 1 137 0
 546 0014 0020     		movs	r0, #0
 547 0016 FFF7FEFF 		bl	jtag_tms
 548              	.LVL42:
 138:Src/jtag/jtag_low_level.c ****   jtag_tms(0);
 549              		.loc 1 138 0
 550 001a 0020     		movs	r0, #0
 551 001c FFF7FEFF 		bl	jtag_tms
 552              	.LVL43:
 139:Src/jtag/jtag_low_level.c **** }
 553              		.loc 1 139 0
 554 0020 08BD     		pop	{r3, pc}
 555              		.cfi_endproc
 556              	.LFE140:
 558              		.section	.text.jtag_from_idle_to_shift_dr,"ax",%progbits
 559              		.align	1
 560              		.global	jtag_from_idle_to_shift_dr
 561              		.syntax unified
 562              		.thumb
 563              		.thumb_func
 564              		.fpu fpv4-sp-d16
 566              	jtag_from_idle_to_shift_dr:
 567              	.LFB141:
 140:Src/jtag/jtag_low_level.c **** 
 141:Src/jtag/jtag_low_level.c **** void jtag_from_idle_to_shift_dr()
 142:Src/jtag/jtag_low_level.c **** {
 568              		.loc 1 142 0
 569              		.cfi_startproc
 570              		@ args = 0, pretend = 0, frame = 0
 571              		@ frame_needed = 0, uses_anonymous_args = 0
 572 0000 08B5     		push	{r3, lr}
 573              	.LCFI9:
 574              		.cfi_def_cfa_offset 8
 575              		.cfi_offset 3, -8
 576              		.cfi_offset 14, -4
 143:Src/jtag/jtag_low_level.c ****   // jtag_tms: 1, 0, 0
 144:Src/jtag/jtag_low_level.c ****   jtag_tms(0);
 577              		.loc 1 144 0
 578 0002 0020     		movs	r0, #0
 579 0004 FFF7FEFF 		bl	jtag_tms
 580              	.LVL44:
 145:Src/jtag/jtag_low_level.c ****   jtag_tms(1);
 581              		.loc 1 145 0
 582 0008 0120     		movs	r0, #1
 583 000a FFF7FEFF 		bl	jtag_tms
 584              	.LVL45:
 146:Src/jtag/jtag_low_level.c ****   jtag_tms(0);
 585              		.loc 1 146 0
 586 000e 0020     		movs	r0, #0
 587 0010 FFF7FEFF 		bl	jtag_tms
 588              	.LVL46:
 147:Src/jtag/jtag_low_level.c ****   jtag_tms(0);
 589              		.loc 1 147 0
 590 0014 0020     		movs	r0, #0
 591 0016 FFF7FEFF 		bl	jtag_tms
ARM GAS  /var/folders/0d/93p3r6493yg7p0rvl_4r983m0000gn/T//cc8CnAU1.s 			page 14


 592              	.LVL47:
 148:Src/jtag/jtag_low_level.c **** }
 593              		.loc 1 148 0
 594 001a 08BD     		pop	{r3, pc}
 595              		.cfi_endproc
 596              	.LFE141:
 598              		.section	.text.jtag_from_exit_to_idle,"ax",%progbits
 599              		.align	1
 600              		.global	jtag_from_exit_to_idle
 601              		.syntax unified
 602              		.thumb
 603              		.thumb_func
 604              		.fpu fpv4-sp-d16
 606              	jtag_from_exit_to_idle:
 607              	.LFB142:
 149:Src/jtag/jtag_low_level.c **** 
 150:Src/jtag/jtag_low_level.c **** void jtag_from_exit_to_idle()
 151:Src/jtag/jtag_low_level.c **** {
 608              		.loc 1 151 0
 609              		.cfi_startproc
 610              		@ args = 0, pretend = 0, frame = 0
 611              		@ frame_needed = 0, uses_anonymous_args = 0
 612 0000 08B5     		push	{r3, lr}
 613              	.LCFI10:
 614              		.cfi_def_cfa_offset 8
 615              		.cfi_offset 3, -8
 616              		.cfi_offset 14, -4
 152:Src/jtag/jtag_low_level.c ****   // jtag_tms 1, 0
 153:Src/jtag/jtag_low_level.c ****   jtag_tms(1);
 617              		.loc 1 153 0
 618 0002 0120     		movs	r0, #1
 619 0004 FFF7FEFF 		bl	jtag_tms
 620              	.LVL48:
 154:Src/jtag/jtag_low_level.c ****   jtag_tms(0);
 621              		.loc 1 154 0
 622 0008 0020     		movs	r0, #0
 623 000a FFF7FEFF 		bl	jtag_tms
 624              	.LVL49:
 155:Src/jtag/jtag_low_level.c **** }
 625              		.loc 1 155 0
 626 000e 08BD     		pop	{r3, pc}
 627              		.cfi_endproc
 628              	.LFE142:
 630              		.section	.text.jtag_go_to_idle,"ax",%progbits
 631              		.align	1
 632              		.global	jtag_go_to_idle
 633              		.syntax unified
 634              		.thumb
 635              		.thumb_func
 636              		.fpu fpv4-sp-d16
 638              	jtag_go_to_idle:
 639              	.LFB143:
 156:Src/jtag/jtag_low_level.c **** 
 157:Src/jtag/jtag_low_level.c **** void jtag_go_to_idle()
 158:Src/jtag/jtag_low_level.c **** {
 640              		.loc 1 158 0
 641              		.cfi_startproc
ARM GAS  /var/folders/0d/93p3r6493yg7p0rvl_4r983m0000gn/T//cc8CnAU1.s 			page 15


 642              		@ args = 0, pretend = 0, frame = 0
 643              		@ frame_needed = 0, uses_anonymous_args = 0
 644 0000 10B5     		push	{r4, lr}
 645              	.LCFI11:
 646              		.cfi_def_cfa_offset 8
 647              		.cfi_offset 4, -8
 648              		.cfi_offset 14, -4
 649              	.LVL50:
 650              	.LBB10:
 159:Src/jtag/jtag_low_level.c ****   // jtag_tms 1, 1, 1, 1, 1, 0
 160:Src/jtag/jtag_low_level.c ****   for (int i = 0; i < 5; i++){
 651              		.loc 1 160 0
 652 0002 0024     		movs	r4, #0
 653 0004 03E0     		b	.L50
 654              	.LVL51:
 655              	.L51:
 161:Src/jtag/jtag_low_level.c ****     jtag_tms(1);
 656              		.loc 1 161 0 discriminator 3
 657 0006 0120     		movs	r0, #1
 658 0008 FFF7FEFF 		bl	jtag_tms
 659              	.LVL52:
 160:Src/jtag/jtag_low_level.c ****     jtag_tms(1);
 660              		.loc 1 160 0 discriminator 3
 661 000c 0134     		adds	r4, r4, #1
 662              	.LVL53:
 663              	.L50:
 160:Src/jtag/jtag_low_level.c ****     jtag_tms(1);
 664              		.loc 1 160 0 is_stmt 0 discriminator 1
 665 000e 042C     		cmp	r4, #4
 666 0010 F9DD     		ble	.L51
 667              	.LBE10:
 162:Src/jtag/jtag_low_level.c ****   }
 163:Src/jtag/jtag_low_level.c ****   jtag_tms(0);
 668              		.loc 1 163 0 is_stmt 1
 669 0012 0020     		movs	r0, #0
 670 0014 FFF7FEFF 		bl	jtag_tms
 671              	.LVL54:
 164:Src/jtag/jtag_low_level.c **** }
 672              		.loc 1 164 0
 673 0018 10BD     		pop	{r4, pc}
 674              		.cfi_endproc
 675              	.LFE143:
 677              		.section	.bss.usTicks.10251,"aw",%nobits
 678              		.align	2
 679              		.set	.LANCHOR0,. + 0
 682              	usTicks.10251:
 683 0000 00000000 		.space	4
 684              		.section	.rodata.__func__.10287,"a",%progbits
 685              		.align	2
 686              		.set	.LANCHOR1,. + 0
 689              	__func__.10287:
 690 0000 6A746167 		.ascii	"jtag_tdin\000"
 690      5F746469 
 690      6E00
 691              		.section	.rodata.jtag_tdin.str1.4,"aMS",%progbits,1
 692              		.align	2
 693              	.LC0:
ARM GAS  /var/folders/0d/93p3r6493yg7p0rvl_4r983m0000gn/T//cc8CnAU1.s 			page 16


 694 0000 6E203C3D 		.ascii	"n <= SIZEOF_IN_BITS(uint_jtag_transfer_t)\000"
 694      2053495A 
 694      454F465F 
 694      494E5F42 
 694      49545328 
 695 002a 0000     		.space	2
 696              	.LC1:
 697 002c 5372632F 		.ascii	"Src/jtag/jtag_low_level.c\000"
 697      6A746167 
 697      2F6A7461 
 697      675F6C6F 
 697      775F6C65 
 698              		.text
 699              	.Letext0:
 700              		.file 2 "/usr/local/gcc_arm/gcc-arm-none-eabi-7-2017-q4-major/arm-none-eabi/include/machine/_defau
 701              		.file 3 "/usr/local/gcc_arm/gcc-arm-none-eabi-7-2017-q4-major/arm-none-eabi/include/sys/_stdint.h"
 702              		.file 4 "Drivers/CMSIS/Include/core_cm4.h"
 703              		.file 5 "Drivers/CMSIS/Device/ST/STM32F4xx/Include/system_stm32f4xx.h"
 704              		.file 6 "Drivers/CMSIS/Device/ST/STM32F4xx/Include/stm32f429xx.h"
 705              		.file 7 "/usr/local/gcc_arm/gcc-arm-none-eabi-7-2017-q4-major/arm-none-eabi/include/sys/lock.h"
 706              		.file 8 "/usr/local/gcc_arm/gcc-arm-none-eabi-7-2017-q4-major/arm-none-eabi/include/sys/_types.h"
 707              		.file 9 "/usr/local/gcc_arm/gcc-arm-none-eabi-7-2017-q4-major/lib/gcc/arm-none-eabi/7.2.1/include/
 708              		.file 10 "/usr/local/gcc_arm/gcc-arm-none-eabi-7-2017-q4-major/arm-none-eabi/include/sys/reent.h"
 709              		.file 11 "Drivers/STM32F4xx_HAL_Driver/Inc/stm32f4xx_hal_gpio.h"
 710              		.file 12 "Inc/jtag/jtag_low_level.h"
 711              		.file 13 "/usr/local/gcc_arm/gcc-arm-none-eabi-7-2017-q4-major/arm-none-eabi/include/assert.h"
 712              		.file 14 "Drivers/STM32F4xx_HAL_Driver/Inc/stm32f4xx_hal.h"
 713              		.file 15 "Drivers/STM32F4xx_HAL_Driver/Inc/stm32f4xx_hal_rcc.h"
ARM GAS  /var/folders/0d/93p3r6493yg7p0rvl_4r983m0000gn/T//cc8CnAU1.s 			page 17

