ARM GAS  /var/folders/0d/93p3r6493yg7p0rvl_4r983m0000gn/T//ccOiaSyY.s 			page 1


   1              		.cpu cortex-m4
   2              		.eabi_attribute 27, 1
   3              		.eabi_attribute 28, 1
   4              		.eabi_attribute 20, 1
   5              		.eabi_attribute 21, 1
   6              		.eabi_attribute 23, 3
   7              		.eabi_attribute 24, 1
   8              		.eabi_attribute 25, 1
   9              		.eabi_attribute 26, 1
  10              		.eabi_attribute 30, 1
  11              		.eabi_attribute 34, 1
  12              		.eabi_attribute 18, 4
  13              		.file	"objects.c"
  14              		.text
  15              	.Ltext0:
  16              		.cfi_sections	.debug_frame
  17              		.section	.text.prv_getObjectTemplate,"ax",%progbits
  18              		.align	1
  19              		.syntax unified
  20              		.thumb
  21              		.thumb_func
  22              		.fpu fpv4-sp-d16
  24              	prv_getObjectTemplate:
  25              	.LFB12:
  26              		.file 1 "Middlewares/Third_Party/wakaama/objects.c"
   1:Middlewares/Third_Party/wakaama/objects.c **** /*******************************************************************************
   2:Middlewares/Third_Party/wakaama/objects.c ****  *
   3:Middlewares/Third_Party/wakaama/objects.c ****  * Copyright (c) 2013, 2014 Intel Corporation and others.
   4:Middlewares/Third_Party/wakaama/objects.c ****  * All rights reserved. This program and the accompanying materials
   5:Middlewares/Third_Party/wakaama/objects.c ****  * are made available under the terms of the Eclipse Public License v1.0
   6:Middlewares/Third_Party/wakaama/objects.c ****  * and Eclipse Distribution License v1.0 which accompany this distribution.
   7:Middlewares/Third_Party/wakaama/objects.c ****  *
   8:Middlewares/Third_Party/wakaama/objects.c ****  * The Eclipse Public License is available at
   9:Middlewares/Third_Party/wakaama/objects.c ****  *    http://www.eclipse.org/legal/epl-v10.html
  10:Middlewares/Third_Party/wakaama/objects.c ****  * The Eclipse Distribution License is available at
  11:Middlewares/Third_Party/wakaama/objects.c ****  *    http://www.eclipse.org/org/documents/edl-v10.php.
  12:Middlewares/Third_Party/wakaama/objects.c ****  *
  13:Middlewares/Third_Party/wakaama/objects.c ****  * Contributors:
  14:Middlewares/Third_Party/wakaama/objects.c ****  *    David Navarro, Intel Corporation - initial API and implementation
  15:Middlewares/Third_Party/wakaama/objects.c ****  *    Fabien Fleutot - Please refer to git log
  16:Middlewares/Third_Party/wakaama/objects.c ****  *    Toby Jaffey - Please refer to git log
  17:Middlewares/Third_Party/wakaama/objects.c ****  *    Benjamin Cabé - Please refer to git log
  18:Middlewares/Third_Party/wakaama/objects.c ****  *    Bosch Software Innovations GmbH - Please refer to git log
  19:Middlewares/Third_Party/wakaama/objects.c ****  *    Pascal Rieux - Please refer to git log
  20:Middlewares/Third_Party/wakaama/objects.c ****  *    Scott Bertin - Please refer to git log
  21:Middlewares/Third_Party/wakaama/objects.c ****  *
  22:Middlewares/Third_Party/wakaama/objects.c ****  *******************************************************************************/
  23:Middlewares/Third_Party/wakaama/objects.c **** 
  24:Middlewares/Third_Party/wakaama/objects.c **** /*
  25:Middlewares/Third_Party/wakaama/objects.c ****  Copyright (c) 2013, 2014 Intel Corporation
  26:Middlewares/Third_Party/wakaama/objects.c **** 
  27:Middlewares/Third_Party/wakaama/objects.c ****  Redistribution and use in source and binary forms, with or without modification,
  28:Middlewares/Third_Party/wakaama/objects.c ****  are permitted provided that the following conditions are met:
  29:Middlewares/Third_Party/wakaama/objects.c **** 
  30:Middlewares/Third_Party/wakaama/objects.c ****      * Redistributions of source code must retain the above copyright notice,
  31:Middlewares/Third_Party/wakaama/objects.c ****        this list of conditions and the following disclaimer.
  32:Middlewares/Third_Party/wakaama/objects.c ****      * Redistributions in binary form must reproduce the above copyright notice,
ARM GAS  /var/folders/0d/93p3r6493yg7p0rvl_4r983m0000gn/T//ccOiaSyY.s 			page 2


  33:Middlewares/Third_Party/wakaama/objects.c ****        this list of conditions and the following disclaimer in the documentation
  34:Middlewares/Third_Party/wakaama/objects.c ****        and/or other materials provided with the distribution.
  35:Middlewares/Third_Party/wakaama/objects.c ****      * Neither the name of Intel Corporation nor the names of its contributors
  36:Middlewares/Third_Party/wakaama/objects.c ****        may be used to endorse or promote products derived from this software
  37:Middlewares/Third_Party/wakaama/objects.c ****        without specific prior written permission.
  38:Middlewares/Third_Party/wakaama/objects.c **** 
  39:Middlewares/Third_Party/wakaama/objects.c ****  THIS SOFTWARE IS PROVIDED BY THE COPYRIGHT HOLDERS AND CONTRIBUTORS "AS IS" AND
  40:Middlewares/Third_Party/wakaama/objects.c ****  ANY EXPRESS OR IMPLIED WARRANTIES, INCLUDING, BUT NOT LIMITED TO, THE IMPLIED
  41:Middlewares/Third_Party/wakaama/objects.c ****  WARRANTIES OF MERCHANTABILITY AND FITNESS FOR A PARTICULAR PURPOSE ARE DISCLAIMED.
  42:Middlewares/Third_Party/wakaama/objects.c ****  IN NO EVENT SHALL THE COPYRIGHT OWNER OR CONTRIBUTORS BE LIABLE FOR ANY DIRECT,
  43:Middlewares/Third_Party/wakaama/objects.c ****  INDIRECT, INCIDENTAL, SPECIAL, EXEMPLARY, OR CONSEQUENTIAL DAMAGES (INCLUDING,
  44:Middlewares/Third_Party/wakaama/objects.c ****  BUT NOT LIMITED TO, PROCUREMENT OF SUBSTITUTE GOODS OR SERVICES; LOSS OF USE,
  45:Middlewares/Third_Party/wakaama/objects.c ****  DATA, OR PROFITS; OR BUSINESS INTERRUPTION) HOWEVER CAUSED AND ON ANY THEORY OF
  46:Middlewares/Third_Party/wakaama/objects.c ****  LIABILITY, WHETHER IN CONTRACT, STRICT LIABILITY, OR TORT (INCLUDING NEGLIGENCE OR
  47:Middlewares/Third_Party/wakaama/objects.c ****  OTHERWISE) ARISING IN ANY WAY OUT OF THE USE OF THIS SOFTWARE, EVEN IF ADVISED OF
  48:Middlewares/Third_Party/wakaama/objects.c ****  THE POSSIBILITY OF SUCH DAMAGE.
  49:Middlewares/Third_Party/wakaama/objects.c **** 
  50:Middlewares/Third_Party/wakaama/objects.c ****  David Navarro <david.navarro@intel.com>
  51:Middlewares/Third_Party/wakaama/objects.c **** 
  52:Middlewares/Third_Party/wakaama/objects.c **** */
  53:Middlewares/Third_Party/wakaama/objects.c **** #include "internals.h"
  54:Middlewares/Third_Party/wakaama/objects.c **** 
  55:Middlewares/Third_Party/wakaama/objects.c **** #ifdef LWM2M_CLIENT_MODE
  56:Middlewares/Third_Party/wakaama/objects.c **** 
  57:Middlewares/Third_Party/wakaama/objects.c **** 
  58:Middlewares/Third_Party/wakaama/objects.c **** #include <stdlib.h>
  59:Middlewares/Third_Party/wakaama/objects.c **** #include <string.h>
  60:Middlewares/Third_Party/wakaama/objects.c **** #include <stdio.h>
  61:Middlewares/Third_Party/wakaama/objects.c **** 
  62:Middlewares/Third_Party/wakaama/objects.c **** 
  63:Middlewares/Third_Party/wakaama/objects.c **** uint8_t object_checkReadable(lwm2m_context_t * contextP,
  64:Middlewares/Third_Party/wakaama/objects.c ****                              lwm2m_uri_t * uriP,
  65:Middlewares/Third_Party/wakaama/objects.c ****                              lwm2m_attributes_t * attrP)
  66:Middlewares/Third_Party/wakaama/objects.c **** {
  67:Middlewares/Third_Party/wakaama/objects.c ****     uint8_t result;
  68:Middlewares/Third_Party/wakaama/objects.c ****     lwm2m_object_t * targetP;
  69:Middlewares/Third_Party/wakaama/objects.c ****     lwm2m_data_t * dataP = NULL;
  70:Middlewares/Third_Party/wakaama/objects.c ****     int size;
  71:Middlewares/Third_Party/wakaama/objects.c **** 
  72:Middlewares/Third_Party/wakaama/objects.c ****     LOG_URI(uriP);
  73:Middlewares/Third_Party/wakaama/objects.c ****     targetP = (lwm2m_object_t *)LWM2M_LIST_FIND(contextP->objectList, uriP->objectId);
  74:Middlewares/Third_Party/wakaama/objects.c ****     if (NULL == targetP) return COAP_404_NOT_FOUND;
  75:Middlewares/Third_Party/wakaama/objects.c ****     if (NULL == targetP->readFunc) return COAP_405_METHOD_NOT_ALLOWED;
  76:Middlewares/Third_Party/wakaama/objects.c **** 
  77:Middlewares/Third_Party/wakaama/objects.c ****     if (!LWM2M_URI_IS_SET_INSTANCE(uriP)) return COAP_205_CONTENT;
  78:Middlewares/Third_Party/wakaama/objects.c **** 
  79:Middlewares/Third_Party/wakaama/objects.c ****     if (NULL == LWM2M_LIST_FIND(targetP->instanceList, uriP->instanceId)) return COAP_404_NOT_FOUND
  80:Middlewares/Third_Party/wakaama/objects.c **** 
  81:Middlewares/Third_Party/wakaama/objects.c ****     if (!LWM2M_URI_IS_SET_RESOURCE(uriP)) return COAP_205_CONTENT;
  82:Middlewares/Third_Party/wakaama/objects.c **** 
  83:Middlewares/Third_Party/wakaama/objects.c ****     size = 1;
  84:Middlewares/Third_Party/wakaama/objects.c ****     dataP = lwm2m_data_new(1);
  85:Middlewares/Third_Party/wakaama/objects.c ****     if (dataP == NULL) return COAP_500_INTERNAL_SERVER_ERROR;
  86:Middlewares/Third_Party/wakaama/objects.c **** 
  87:Middlewares/Third_Party/wakaama/objects.c ****     dataP->id = uriP->resourceId;
  88:Middlewares/Third_Party/wakaama/objects.c **** 
  89:Middlewares/Third_Party/wakaama/objects.c ****     result = targetP->readFunc(uriP->instanceId, &size, &dataP, targetP);
ARM GAS  /var/folders/0d/93p3r6493yg7p0rvl_4r983m0000gn/T//ccOiaSyY.s 			page 3


  90:Middlewares/Third_Party/wakaama/objects.c ****     if (result == COAP_205_CONTENT)
  91:Middlewares/Third_Party/wakaama/objects.c ****     {
  92:Middlewares/Third_Party/wakaama/objects.c ****         if (attrP->toSet & ATTR_FLAG_NUMERIC)
  93:Middlewares/Third_Party/wakaama/objects.c ****         {
  94:Middlewares/Third_Party/wakaama/objects.c ****             switch (dataP->type)
  95:Middlewares/Third_Party/wakaama/objects.c ****             {
  96:Middlewares/Third_Party/wakaama/objects.c ****                 case LWM2M_TYPE_INTEGER:
  97:Middlewares/Third_Party/wakaama/objects.c ****                 case LWM2M_TYPE_FLOAT:
  98:Middlewares/Third_Party/wakaama/objects.c ****                     break;
  99:Middlewares/Third_Party/wakaama/objects.c ****                 default:
 100:Middlewares/Third_Party/wakaama/objects.c ****                     result = COAP_405_METHOD_NOT_ALLOWED;
 101:Middlewares/Third_Party/wakaama/objects.c ****             }
 102:Middlewares/Third_Party/wakaama/objects.c ****         }
 103:Middlewares/Third_Party/wakaama/objects.c ****     }
 104:Middlewares/Third_Party/wakaama/objects.c ****     lwm2m_data_free(1, dataP);
 105:Middlewares/Third_Party/wakaama/objects.c ****     return result;
 106:Middlewares/Third_Party/wakaama/objects.c **** }
 107:Middlewares/Third_Party/wakaama/objects.c **** 
 108:Middlewares/Third_Party/wakaama/objects.c **** uint8_t object_readData(lwm2m_context_t * contextP,
 109:Middlewares/Third_Party/wakaama/objects.c ****                         lwm2m_uri_t * uriP,
 110:Middlewares/Third_Party/wakaama/objects.c ****                         int * sizeP,
 111:Middlewares/Third_Party/wakaama/objects.c ****                         lwm2m_data_t ** dataP)
 112:Middlewares/Third_Party/wakaama/objects.c **** {
 113:Middlewares/Third_Party/wakaama/objects.c ****     uint8_t result;
 114:Middlewares/Third_Party/wakaama/objects.c ****     lwm2m_object_t * targetP;
 115:Middlewares/Third_Party/wakaama/objects.c **** 
 116:Middlewares/Third_Party/wakaama/objects.c ****     LOG_URI(uriP);
 117:Middlewares/Third_Party/wakaama/objects.c ****     targetP = (lwm2m_object_t *)LWM2M_LIST_FIND(contextP->objectList, uriP->objectId);
 118:Middlewares/Third_Party/wakaama/objects.c ****     if (NULL == targetP) return COAP_404_NOT_FOUND;
 119:Middlewares/Third_Party/wakaama/objects.c ****     if (NULL == targetP->readFunc) return COAP_405_METHOD_NOT_ALLOWED;
 120:Middlewares/Third_Party/wakaama/objects.c **** 
 121:Middlewares/Third_Party/wakaama/objects.c ****     if (LWM2M_URI_IS_SET_INSTANCE(uriP))
 122:Middlewares/Third_Party/wakaama/objects.c ****     {
 123:Middlewares/Third_Party/wakaama/objects.c ****         if (NULL == lwm2m_list_find(targetP->instanceList, uriP->instanceId)) return COAP_404_NOT_F
 124:Middlewares/Third_Party/wakaama/objects.c **** 
 125:Middlewares/Third_Party/wakaama/objects.c ****         // single instance read
 126:Middlewares/Third_Party/wakaama/objects.c ****         if (LWM2M_URI_IS_SET_RESOURCE(uriP))
 127:Middlewares/Third_Party/wakaama/objects.c ****         {
 128:Middlewares/Third_Party/wakaama/objects.c ****             *sizeP = 1;
 129:Middlewares/Third_Party/wakaama/objects.c ****             *dataP = lwm2m_data_new(*sizeP);
 130:Middlewares/Third_Party/wakaama/objects.c ****             if (*dataP == NULL) return COAP_500_INTERNAL_SERVER_ERROR;
 131:Middlewares/Third_Party/wakaama/objects.c **** 
 132:Middlewares/Third_Party/wakaama/objects.c ****             (*dataP)->id = uriP->resourceId;
 133:Middlewares/Third_Party/wakaama/objects.c ****         }
 134:Middlewares/Third_Party/wakaama/objects.c **** 
 135:Middlewares/Third_Party/wakaama/objects.c ****         result = targetP->readFunc(uriP->instanceId, sizeP, dataP, targetP);
 136:Middlewares/Third_Party/wakaama/objects.c ****     }
 137:Middlewares/Third_Party/wakaama/objects.c ****     else
 138:Middlewares/Third_Party/wakaama/objects.c ****     {
 139:Middlewares/Third_Party/wakaama/objects.c ****         // multiple object instances read
 140:Middlewares/Third_Party/wakaama/objects.c ****         lwm2m_list_t * instanceP;
 141:Middlewares/Third_Party/wakaama/objects.c ****         int i;
 142:Middlewares/Third_Party/wakaama/objects.c **** 
 143:Middlewares/Third_Party/wakaama/objects.c ****         result = COAP_205_CONTENT;
 144:Middlewares/Third_Party/wakaama/objects.c **** 
 145:Middlewares/Third_Party/wakaama/objects.c ****         *sizeP = 0;
 146:Middlewares/Third_Party/wakaama/objects.c ****         for (instanceP = targetP->instanceList; instanceP != NULL ; instanceP = instanceP->next)
ARM GAS  /var/folders/0d/93p3r6493yg7p0rvl_4r983m0000gn/T//ccOiaSyY.s 			page 4


 147:Middlewares/Third_Party/wakaama/objects.c ****         {
 148:Middlewares/Third_Party/wakaama/objects.c ****             (*sizeP)++;
 149:Middlewares/Third_Party/wakaama/objects.c ****         }
 150:Middlewares/Third_Party/wakaama/objects.c **** 
 151:Middlewares/Third_Party/wakaama/objects.c ****         if (*sizeP == 0)
 152:Middlewares/Third_Party/wakaama/objects.c ****         {
 153:Middlewares/Third_Party/wakaama/objects.c ****             *dataP = NULL;
 154:Middlewares/Third_Party/wakaama/objects.c ****         }
 155:Middlewares/Third_Party/wakaama/objects.c ****         else
 156:Middlewares/Third_Party/wakaama/objects.c ****         {
 157:Middlewares/Third_Party/wakaama/objects.c ****             *dataP = lwm2m_data_new(*sizeP);
 158:Middlewares/Third_Party/wakaama/objects.c ****             if (*dataP == NULL) return COAP_500_INTERNAL_SERVER_ERROR;
 159:Middlewares/Third_Party/wakaama/objects.c **** 
 160:Middlewares/Third_Party/wakaama/objects.c ****             instanceP = targetP->instanceList;
 161:Middlewares/Third_Party/wakaama/objects.c ****             i = 0;
 162:Middlewares/Third_Party/wakaama/objects.c ****             while (instanceP != NULL && result == COAP_205_CONTENT)
 163:Middlewares/Third_Party/wakaama/objects.c ****             {
 164:Middlewares/Third_Party/wakaama/objects.c ****                 result = targetP->readFunc(instanceP->id, (int*)&((*dataP)[i].value.asChildren.coun
 165:Middlewares/Third_Party/wakaama/objects.c ****                 (*dataP)[i].type = LWM2M_TYPE_OBJECT_INSTANCE;
 166:Middlewares/Third_Party/wakaama/objects.c ****                 (*dataP)[i].id = instanceP->id;
 167:Middlewares/Third_Party/wakaama/objects.c ****                 i++;
 168:Middlewares/Third_Party/wakaama/objects.c ****                 instanceP = instanceP->next;
 169:Middlewares/Third_Party/wakaama/objects.c ****             }
 170:Middlewares/Third_Party/wakaama/objects.c ****         }
 171:Middlewares/Third_Party/wakaama/objects.c ****     }
 172:Middlewares/Third_Party/wakaama/objects.c **** 
 173:Middlewares/Third_Party/wakaama/objects.c ****     LOG_ARG("result: %u.%2u, size: %d", (result & 0xFF) >> 5, (result & 0x1F), *sizeP);
 174:Middlewares/Third_Party/wakaama/objects.c ****     return result;
 175:Middlewares/Third_Party/wakaama/objects.c **** }
 176:Middlewares/Third_Party/wakaama/objects.c **** 
 177:Middlewares/Third_Party/wakaama/objects.c **** uint8_t object_read(lwm2m_context_t * contextP,
 178:Middlewares/Third_Party/wakaama/objects.c ****                     lwm2m_uri_t * uriP,
 179:Middlewares/Third_Party/wakaama/objects.c ****                     lwm2m_media_type_t * formatP,
 180:Middlewares/Third_Party/wakaama/objects.c ****                     uint8_t ** bufferP,
 181:Middlewares/Third_Party/wakaama/objects.c ****                     size_t * lengthP)
 182:Middlewares/Third_Party/wakaama/objects.c **** {
 183:Middlewares/Third_Party/wakaama/objects.c ****     uint8_t result;
 184:Middlewares/Third_Party/wakaama/objects.c ****     lwm2m_data_t * dataP = NULL;
 185:Middlewares/Third_Party/wakaama/objects.c ****     int size = 0;
 186:Middlewares/Third_Party/wakaama/objects.c ****     int res;
 187:Middlewares/Third_Party/wakaama/objects.c **** 
 188:Middlewares/Third_Party/wakaama/objects.c ****     LOG_URI(uriP);
 189:Middlewares/Third_Party/wakaama/objects.c ****     result = object_readData(contextP, uriP, &size, &dataP);
 190:Middlewares/Third_Party/wakaama/objects.c **** 
 191:Middlewares/Third_Party/wakaama/objects.c ****     if (result == COAP_205_CONTENT)
 192:Middlewares/Third_Party/wakaama/objects.c ****     {
 193:Middlewares/Third_Party/wakaama/objects.c ****         res = lwm2m_data_serialize(uriP, size, dataP, formatP, bufferP);
 194:Middlewares/Third_Party/wakaama/objects.c ****         if (res < 0)
 195:Middlewares/Third_Party/wakaama/objects.c ****         {
 196:Middlewares/Third_Party/wakaama/objects.c ****             result = COAP_500_INTERNAL_SERVER_ERROR;
 197:Middlewares/Third_Party/wakaama/objects.c ****         }
 198:Middlewares/Third_Party/wakaama/objects.c ****         else
 199:Middlewares/Third_Party/wakaama/objects.c ****         {
 200:Middlewares/Third_Party/wakaama/objects.c ****             *lengthP = (size_t)res;
 201:Middlewares/Third_Party/wakaama/objects.c ****         }
 202:Middlewares/Third_Party/wakaama/objects.c ****     }
 203:Middlewares/Third_Party/wakaama/objects.c ****     lwm2m_data_free(size, dataP);
ARM GAS  /var/folders/0d/93p3r6493yg7p0rvl_4r983m0000gn/T//ccOiaSyY.s 			page 5


 204:Middlewares/Third_Party/wakaama/objects.c **** 
 205:Middlewares/Third_Party/wakaama/objects.c ****     LOG_ARG("result: %u.%2u, length: %d", (result & 0xFF) >> 5, (result & 0x1F), *lengthP);
 206:Middlewares/Third_Party/wakaama/objects.c **** 
 207:Middlewares/Third_Party/wakaama/objects.c ****     return result;
 208:Middlewares/Third_Party/wakaama/objects.c **** }
 209:Middlewares/Third_Party/wakaama/objects.c **** 
 210:Middlewares/Third_Party/wakaama/objects.c **** uint8_t object_write(lwm2m_context_t * contextP,
 211:Middlewares/Third_Party/wakaama/objects.c ****                      lwm2m_uri_t * uriP,
 212:Middlewares/Third_Party/wakaama/objects.c ****                      lwm2m_media_type_t format,
 213:Middlewares/Third_Party/wakaama/objects.c ****                      uint8_t * buffer,
 214:Middlewares/Third_Party/wakaama/objects.c ****                      size_t length)
 215:Middlewares/Third_Party/wakaama/objects.c **** {
 216:Middlewares/Third_Party/wakaama/objects.c ****     uint8_t result = NO_ERROR;
 217:Middlewares/Third_Party/wakaama/objects.c ****     lwm2m_object_t * targetP;
 218:Middlewares/Third_Party/wakaama/objects.c ****     lwm2m_data_t * dataP = NULL;
 219:Middlewares/Third_Party/wakaama/objects.c ****     int size = 0;
 220:Middlewares/Third_Party/wakaama/objects.c **** 
 221:Middlewares/Third_Party/wakaama/objects.c ****     LOG_URI(uriP);
 222:Middlewares/Third_Party/wakaama/objects.c ****     targetP = (lwm2m_object_t *)LWM2M_LIST_FIND(contextP->objectList, uriP->objectId);
 223:Middlewares/Third_Party/wakaama/objects.c ****     if (NULL == targetP)
 224:Middlewares/Third_Party/wakaama/objects.c ****     {
 225:Middlewares/Third_Party/wakaama/objects.c ****         result = COAP_404_NOT_FOUND;
 226:Middlewares/Third_Party/wakaama/objects.c ****     }
 227:Middlewares/Third_Party/wakaama/objects.c ****     else if (NULL == targetP->writeFunc)
 228:Middlewares/Third_Party/wakaama/objects.c ****     {
 229:Middlewares/Third_Party/wakaama/objects.c ****         result = COAP_405_METHOD_NOT_ALLOWED;
 230:Middlewares/Third_Party/wakaama/objects.c ****     }
 231:Middlewares/Third_Party/wakaama/objects.c ****     else
 232:Middlewares/Third_Party/wakaama/objects.c ****     {
 233:Middlewares/Third_Party/wakaama/objects.c ****         size = lwm2m_data_parse(uriP, buffer, length, format, &dataP);
 234:Middlewares/Third_Party/wakaama/objects.c ****         if (size == 0)
 235:Middlewares/Third_Party/wakaama/objects.c ****         {
 236:Middlewares/Third_Party/wakaama/objects.c ****             result = COAP_406_NOT_ACCEPTABLE;
 237:Middlewares/Third_Party/wakaama/objects.c ****         }
 238:Middlewares/Third_Party/wakaama/objects.c ****     }
 239:Middlewares/Third_Party/wakaama/objects.c ****     if (result == NO_ERROR)
 240:Middlewares/Third_Party/wakaama/objects.c ****     {
 241:Middlewares/Third_Party/wakaama/objects.c ****         result = targetP->writeFunc(uriP->instanceId, size, dataP, targetP);
 242:Middlewares/Third_Party/wakaama/objects.c ****         lwm2m_data_free(size, dataP);
 243:Middlewares/Third_Party/wakaama/objects.c ****     }
 244:Middlewares/Third_Party/wakaama/objects.c **** 
 245:Middlewares/Third_Party/wakaama/objects.c ****     LOG_ARG("result: %u.%2u", (result & 0xFF) >> 5, (result & 0x1F));
 246:Middlewares/Third_Party/wakaama/objects.c **** 
 247:Middlewares/Third_Party/wakaama/objects.c ****     return result;
 248:Middlewares/Third_Party/wakaama/objects.c **** }
 249:Middlewares/Third_Party/wakaama/objects.c **** 
 250:Middlewares/Third_Party/wakaama/objects.c **** uint8_t object_execute(lwm2m_context_t * contextP,
 251:Middlewares/Third_Party/wakaama/objects.c ****                        lwm2m_uri_t * uriP,
 252:Middlewares/Third_Party/wakaama/objects.c ****                        uint8_t * buffer,
 253:Middlewares/Third_Party/wakaama/objects.c ****                        size_t length)
 254:Middlewares/Third_Party/wakaama/objects.c **** {
 255:Middlewares/Third_Party/wakaama/objects.c ****     lwm2m_object_t * targetP;
 256:Middlewares/Third_Party/wakaama/objects.c **** 
 257:Middlewares/Third_Party/wakaama/objects.c ****     LOG_URI(uriP);
 258:Middlewares/Third_Party/wakaama/objects.c ****     targetP = (lwm2m_object_t *)LWM2M_LIST_FIND(contextP->objectList, uriP->objectId);
 259:Middlewares/Third_Party/wakaama/objects.c ****     if (NULL == targetP) return COAP_404_NOT_FOUND;
 260:Middlewares/Third_Party/wakaama/objects.c ****     if (NULL == targetP->executeFunc) return COAP_405_METHOD_NOT_ALLOWED;
ARM GAS  /var/folders/0d/93p3r6493yg7p0rvl_4r983m0000gn/T//ccOiaSyY.s 			page 6


 261:Middlewares/Third_Party/wakaama/objects.c ****     if (NULL == lwm2m_list_find(targetP->instanceList, uriP->instanceId)) return COAP_404_NOT_FOUND
 262:Middlewares/Third_Party/wakaama/objects.c **** 
 263:Middlewares/Third_Party/wakaama/objects.c ****     return targetP->executeFunc(uriP->instanceId, uriP->resourceId, buffer, length, targetP);
 264:Middlewares/Third_Party/wakaama/objects.c **** }
 265:Middlewares/Third_Party/wakaama/objects.c **** 
 266:Middlewares/Third_Party/wakaama/objects.c **** uint8_t object_create(lwm2m_context_t * contextP,
 267:Middlewares/Third_Party/wakaama/objects.c ****                       lwm2m_uri_t * uriP,
 268:Middlewares/Third_Party/wakaama/objects.c ****                       lwm2m_media_type_t format,
 269:Middlewares/Third_Party/wakaama/objects.c ****                       uint8_t * buffer,
 270:Middlewares/Third_Party/wakaama/objects.c ****                       size_t length)
 271:Middlewares/Third_Party/wakaama/objects.c **** {
 272:Middlewares/Third_Party/wakaama/objects.c ****     lwm2m_object_t * targetP;
 273:Middlewares/Third_Party/wakaama/objects.c ****     lwm2m_data_t * dataP = NULL;
 274:Middlewares/Third_Party/wakaama/objects.c ****     int size = 0;
 275:Middlewares/Third_Party/wakaama/objects.c ****     uint8_t result;
 276:Middlewares/Third_Party/wakaama/objects.c **** 
 277:Middlewares/Third_Party/wakaama/objects.c ****     LOG_URI(uriP);
 278:Middlewares/Third_Party/wakaama/objects.c **** 
 279:Middlewares/Third_Party/wakaama/objects.c ****     if (length == 0 || buffer == 0)
 280:Middlewares/Third_Party/wakaama/objects.c ****     {
 281:Middlewares/Third_Party/wakaama/objects.c ****         return COAP_400_BAD_REQUEST;
 282:Middlewares/Third_Party/wakaama/objects.c ****     }
 283:Middlewares/Third_Party/wakaama/objects.c **** 
 284:Middlewares/Third_Party/wakaama/objects.c ****     targetP = (lwm2m_object_t *)LWM2M_LIST_FIND(contextP->objectList, uriP->objectId);
 285:Middlewares/Third_Party/wakaama/objects.c ****     if (NULL == targetP) return COAP_404_NOT_FOUND;
 286:Middlewares/Third_Party/wakaama/objects.c ****     if (NULL == targetP->createFunc) return COAP_405_METHOD_NOT_ALLOWED;
 287:Middlewares/Third_Party/wakaama/objects.c **** 
 288:Middlewares/Third_Party/wakaama/objects.c ****     size = lwm2m_data_parse(uriP, buffer, length, format, &dataP);
 289:Middlewares/Third_Party/wakaama/objects.c ****     if (size <= 0) return COAP_400_BAD_REQUEST;
 290:Middlewares/Third_Party/wakaama/objects.c **** 
 291:Middlewares/Third_Party/wakaama/objects.c ****     switch (dataP[0].type)
 292:Middlewares/Third_Party/wakaama/objects.c ****     {
 293:Middlewares/Third_Party/wakaama/objects.c ****     case LWM2M_TYPE_OBJECT:
 294:Middlewares/Third_Party/wakaama/objects.c ****         result = COAP_400_BAD_REQUEST;
 295:Middlewares/Third_Party/wakaama/objects.c ****         goto exit;
 296:Middlewares/Third_Party/wakaama/objects.c **** 
 297:Middlewares/Third_Party/wakaama/objects.c ****     case LWM2M_TYPE_OBJECT_INSTANCE:
 298:Middlewares/Third_Party/wakaama/objects.c ****         if (size != 1)
 299:Middlewares/Third_Party/wakaama/objects.c ****         {
 300:Middlewares/Third_Party/wakaama/objects.c ****             result = COAP_400_BAD_REQUEST;
 301:Middlewares/Third_Party/wakaama/objects.c ****             goto exit;
 302:Middlewares/Third_Party/wakaama/objects.c ****         }
 303:Middlewares/Third_Party/wakaama/objects.c ****         if (NULL != lwm2m_list_find(targetP->instanceList, dataP[0].id))
 304:Middlewares/Third_Party/wakaama/objects.c ****         {
 305:Middlewares/Third_Party/wakaama/objects.c ****             // Instance already exists
 306:Middlewares/Third_Party/wakaama/objects.c ****             result = COAP_406_NOT_ACCEPTABLE;
 307:Middlewares/Third_Party/wakaama/objects.c ****             goto exit;
 308:Middlewares/Third_Party/wakaama/objects.c ****         }
 309:Middlewares/Third_Party/wakaama/objects.c ****         result = targetP->createFunc(dataP[0].id, dataP[0].value.asChildren.count, dataP[0].value.a
 310:Middlewares/Third_Party/wakaama/objects.c ****         uriP->instanceId = dataP[0].id;
 311:Middlewares/Third_Party/wakaama/objects.c ****         uriP->flag |= LWM2M_URI_FLAG_INSTANCE_ID;
 312:Middlewares/Third_Party/wakaama/objects.c ****         break;
 313:Middlewares/Third_Party/wakaama/objects.c **** 
 314:Middlewares/Third_Party/wakaama/objects.c ****     default:
 315:Middlewares/Third_Party/wakaama/objects.c ****         if (!LWM2M_URI_IS_SET_INSTANCE(uriP))
 316:Middlewares/Third_Party/wakaama/objects.c ****         {
 317:Middlewares/Third_Party/wakaama/objects.c ****             uriP->instanceId = lwm2m_list_newId(targetP->instanceList);
ARM GAS  /var/folders/0d/93p3r6493yg7p0rvl_4r983m0000gn/T//ccOiaSyY.s 			page 7


 318:Middlewares/Third_Party/wakaama/objects.c ****             uriP->flag |= LWM2M_URI_FLAG_INSTANCE_ID;
 319:Middlewares/Third_Party/wakaama/objects.c ****         }
 320:Middlewares/Third_Party/wakaama/objects.c ****         result = targetP->createFunc(uriP->instanceId, size, dataP, targetP);
 321:Middlewares/Third_Party/wakaama/objects.c ****         break;
 322:Middlewares/Third_Party/wakaama/objects.c ****     }
 323:Middlewares/Third_Party/wakaama/objects.c **** 
 324:Middlewares/Third_Party/wakaama/objects.c **** exit:
 325:Middlewares/Third_Party/wakaama/objects.c ****     lwm2m_data_free(size, dataP);
 326:Middlewares/Third_Party/wakaama/objects.c **** 
 327:Middlewares/Third_Party/wakaama/objects.c ****     LOG_ARG("result: %u.%2u", (result & 0xFF) >> 5, (result & 0x1F));
 328:Middlewares/Third_Party/wakaama/objects.c **** 
 329:Middlewares/Third_Party/wakaama/objects.c ****     return result;
 330:Middlewares/Third_Party/wakaama/objects.c **** }
 331:Middlewares/Third_Party/wakaama/objects.c **** 
 332:Middlewares/Third_Party/wakaama/objects.c **** uint8_t object_delete(lwm2m_context_t * contextP,
 333:Middlewares/Third_Party/wakaama/objects.c ****                       lwm2m_uri_t * uriP)
 334:Middlewares/Third_Party/wakaama/objects.c **** {
 335:Middlewares/Third_Party/wakaama/objects.c ****     lwm2m_object_t * objectP;
 336:Middlewares/Third_Party/wakaama/objects.c ****     uint8_t result;
 337:Middlewares/Third_Party/wakaama/objects.c **** 
 338:Middlewares/Third_Party/wakaama/objects.c ****     LOG_URI(uriP);
 339:Middlewares/Third_Party/wakaama/objects.c ****     objectP = (lwm2m_object_t *)LWM2M_LIST_FIND(contextP->objectList, uriP->objectId);
 340:Middlewares/Third_Party/wakaama/objects.c ****     if (NULL == objectP) return COAP_404_NOT_FOUND;
 341:Middlewares/Third_Party/wakaama/objects.c ****     if (NULL == objectP->deleteFunc) return COAP_405_METHOD_NOT_ALLOWED;
 342:Middlewares/Third_Party/wakaama/objects.c **** 
 343:Middlewares/Third_Party/wakaama/objects.c ****     LOG("Entering");
 344:Middlewares/Third_Party/wakaama/objects.c **** 
 345:Middlewares/Third_Party/wakaama/objects.c ****     if (LWM2M_URI_IS_SET_INSTANCE(uriP))
 346:Middlewares/Third_Party/wakaama/objects.c ****     {
 347:Middlewares/Third_Party/wakaama/objects.c ****         result = objectP->deleteFunc(uriP->instanceId, objectP);
 348:Middlewares/Third_Party/wakaama/objects.c ****         if (result == COAP_202_DELETED)
 349:Middlewares/Third_Party/wakaama/objects.c ****         {
 350:Middlewares/Third_Party/wakaama/objects.c ****             observe_clear(contextP, uriP);
 351:Middlewares/Third_Party/wakaama/objects.c ****         }
 352:Middlewares/Third_Party/wakaama/objects.c ****     }
 353:Middlewares/Third_Party/wakaama/objects.c ****     else
 354:Middlewares/Third_Party/wakaama/objects.c ****     {
 355:Middlewares/Third_Party/wakaama/objects.c ****         lwm2m_list_t * instanceP;
 356:Middlewares/Third_Party/wakaama/objects.c **** 
 357:Middlewares/Third_Party/wakaama/objects.c ****         result = COAP_202_DELETED;
 358:Middlewares/Third_Party/wakaama/objects.c ****         instanceP = objectP->instanceList;
 359:Middlewares/Third_Party/wakaama/objects.c ****         while (NULL != instanceP
 360:Middlewares/Third_Party/wakaama/objects.c ****             && result == COAP_202_DELETED)
 361:Middlewares/Third_Party/wakaama/objects.c ****         {
 362:Middlewares/Third_Party/wakaama/objects.c ****             uriP->instanceId = instanceP->id;
 363:Middlewares/Third_Party/wakaama/objects.c ****             result = objectP->deleteFunc(instanceP->id, objectP);
 364:Middlewares/Third_Party/wakaama/objects.c ****             if (result == COAP_202_DELETED)
 365:Middlewares/Third_Party/wakaama/objects.c ****             {
 366:Middlewares/Third_Party/wakaama/objects.c ****                 uriP->flag |= LWM2M_URI_FLAG_INSTANCE_ID;
 367:Middlewares/Third_Party/wakaama/objects.c ****                 observe_clear(contextP, uriP);
 368:Middlewares/Third_Party/wakaama/objects.c ****                 uriP->flag &= ~LWM2M_URI_FLAG_INSTANCE_ID;
 369:Middlewares/Third_Party/wakaama/objects.c ****             }
 370:Middlewares/Third_Party/wakaama/objects.c ****             instanceP = objectP->instanceList;
 371:Middlewares/Third_Party/wakaama/objects.c ****         }
 372:Middlewares/Third_Party/wakaama/objects.c ****     }
 373:Middlewares/Third_Party/wakaama/objects.c **** 
 374:Middlewares/Third_Party/wakaama/objects.c ****     LOG_ARG("result: %u.%2u", (result & 0xFF) >> 5, (result & 0x1F));
ARM GAS  /var/folders/0d/93p3r6493yg7p0rvl_4r983m0000gn/T//ccOiaSyY.s 			page 8


 375:Middlewares/Third_Party/wakaama/objects.c **** 
 376:Middlewares/Third_Party/wakaama/objects.c ****     return result;
 377:Middlewares/Third_Party/wakaama/objects.c **** }
 378:Middlewares/Third_Party/wakaama/objects.c **** 
 379:Middlewares/Third_Party/wakaama/objects.c **** uint8_t object_discover(lwm2m_context_t * contextP,
 380:Middlewares/Third_Party/wakaama/objects.c ****                         lwm2m_uri_t * uriP,
 381:Middlewares/Third_Party/wakaama/objects.c ****                         lwm2m_server_t * serverP,
 382:Middlewares/Third_Party/wakaama/objects.c ****                         uint8_t ** bufferP,
 383:Middlewares/Third_Party/wakaama/objects.c ****                         size_t * lengthP)
 384:Middlewares/Third_Party/wakaama/objects.c **** {
 385:Middlewares/Third_Party/wakaama/objects.c ****     uint8_t result;
 386:Middlewares/Third_Party/wakaama/objects.c ****     lwm2m_object_t * targetP;
 387:Middlewares/Third_Party/wakaama/objects.c ****     lwm2m_data_t * dataP = NULL;
 388:Middlewares/Third_Party/wakaama/objects.c ****     int size = 0;
 389:Middlewares/Third_Party/wakaama/objects.c **** 
 390:Middlewares/Third_Party/wakaama/objects.c ****     LOG_URI(uriP);
 391:Middlewares/Third_Party/wakaama/objects.c ****     targetP = (lwm2m_object_t *)LWM2M_LIST_FIND(contextP->objectList, uriP->objectId);
 392:Middlewares/Third_Party/wakaama/objects.c ****     if (NULL == targetP) return COAP_404_NOT_FOUND;
 393:Middlewares/Third_Party/wakaama/objects.c ****     if (NULL == targetP->discoverFunc) return COAP_501_NOT_IMPLEMENTED;
 394:Middlewares/Third_Party/wakaama/objects.c **** 
 395:Middlewares/Third_Party/wakaama/objects.c ****     if (LWM2M_URI_IS_SET_INSTANCE(uriP))
 396:Middlewares/Third_Party/wakaama/objects.c ****     {
 397:Middlewares/Third_Party/wakaama/objects.c ****         if (NULL == lwm2m_list_find(targetP->instanceList, uriP->instanceId)) return COAP_404_NOT_F
 398:Middlewares/Third_Party/wakaama/objects.c **** 
 399:Middlewares/Third_Party/wakaama/objects.c ****         // single instance read
 400:Middlewares/Third_Party/wakaama/objects.c ****         if (LWM2M_URI_IS_SET_RESOURCE(uriP))
 401:Middlewares/Third_Party/wakaama/objects.c ****         {
 402:Middlewares/Third_Party/wakaama/objects.c ****             size = 1;
 403:Middlewares/Third_Party/wakaama/objects.c ****             dataP = lwm2m_data_new(size);
 404:Middlewares/Third_Party/wakaama/objects.c ****             if (dataP == NULL) return COAP_500_INTERNAL_SERVER_ERROR;
 405:Middlewares/Third_Party/wakaama/objects.c **** 
 406:Middlewares/Third_Party/wakaama/objects.c ****             dataP->id = uriP->resourceId;
 407:Middlewares/Third_Party/wakaama/objects.c ****         }
 408:Middlewares/Third_Party/wakaama/objects.c **** 
 409:Middlewares/Third_Party/wakaama/objects.c ****         result = targetP->discoverFunc(uriP->instanceId, &size, &dataP, targetP);
 410:Middlewares/Third_Party/wakaama/objects.c ****     }
 411:Middlewares/Third_Party/wakaama/objects.c ****     else
 412:Middlewares/Third_Party/wakaama/objects.c ****     {
 413:Middlewares/Third_Party/wakaama/objects.c ****         // multiple object instances read
 414:Middlewares/Third_Party/wakaama/objects.c ****         lwm2m_list_t * instanceP;
 415:Middlewares/Third_Party/wakaama/objects.c ****         int i;
 416:Middlewares/Third_Party/wakaama/objects.c **** 
 417:Middlewares/Third_Party/wakaama/objects.c ****         result = COAP_205_CONTENT;
 418:Middlewares/Third_Party/wakaama/objects.c **** 
 419:Middlewares/Third_Party/wakaama/objects.c ****         size = 0;
 420:Middlewares/Third_Party/wakaama/objects.c ****         for (instanceP = targetP->instanceList; instanceP != NULL ; instanceP = instanceP->next)
 421:Middlewares/Third_Party/wakaama/objects.c ****         {
 422:Middlewares/Third_Party/wakaama/objects.c ****             size++;
 423:Middlewares/Third_Party/wakaama/objects.c ****         }
 424:Middlewares/Third_Party/wakaama/objects.c **** 
 425:Middlewares/Third_Party/wakaama/objects.c ****         if (size != 0)
 426:Middlewares/Third_Party/wakaama/objects.c ****         {
 427:Middlewares/Third_Party/wakaama/objects.c ****             dataP = lwm2m_data_new(size);
 428:Middlewares/Third_Party/wakaama/objects.c ****             if (dataP == NULL) return COAP_500_INTERNAL_SERVER_ERROR;
 429:Middlewares/Third_Party/wakaama/objects.c **** 
 430:Middlewares/Third_Party/wakaama/objects.c ****             instanceP = targetP->instanceList;
 431:Middlewares/Third_Party/wakaama/objects.c ****             i = 0;
ARM GAS  /var/folders/0d/93p3r6493yg7p0rvl_4r983m0000gn/T//ccOiaSyY.s 			page 9


 432:Middlewares/Third_Party/wakaama/objects.c ****             while (instanceP != NULL && result == COAP_205_CONTENT)
 433:Middlewares/Third_Party/wakaama/objects.c ****             {
 434:Middlewares/Third_Party/wakaama/objects.c ****                 result = targetP->discoverFunc(instanceP->id, (int*)&(dataP[i].value.asChildren.cou
 435:Middlewares/Third_Party/wakaama/objects.c ****                 dataP[i].type = LWM2M_TYPE_OBJECT_INSTANCE;
 436:Middlewares/Third_Party/wakaama/objects.c ****                 dataP[i].id = instanceP->id;
 437:Middlewares/Third_Party/wakaama/objects.c ****                 i++;
 438:Middlewares/Third_Party/wakaama/objects.c ****                 instanceP = instanceP->next;
 439:Middlewares/Third_Party/wakaama/objects.c ****             }
 440:Middlewares/Third_Party/wakaama/objects.c ****         }
 441:Middlewares/Third_Party/wakaama/objects.c ****     }
 442:Middlewares/Third_Party/wakaama/objects.c **** 
 443:Middlewares/Third_Party/wakaama/objects.c ****     if (result == COAP_205_CONTENT)
 444:Middlewares/Third_Party/wakaama/objects.c ****     {
 445:Middlewares/Third_Party/wakaama/objects.c ****         int len;
 446:Middlewares/Third_Party/wakaama/objects.c **** 
 447:Middlewares/Third_Party/wakaama/objects.c ****         len = discover_serialize(contextP, uriP, serverP, size, dataP, bufferP);
 448:Middlewares/Third_Party/wakaama/objects.c ****         if (len <= 0) result = COAP_500_INTERNAL_SERVER_ERROR;
 449:Middlewares/Third_Party/wakaama/objects.c ****         else *lengthP = len;
 450:Middlewares/Third_Party/wakaama/objects.c ****     }
 451:Middlewares/Third_Party/wakaama/objects.c ****     lwm2m_data_free(size, dataP);
 452:Middlewares/Third_Party/wakaama/objects.c **** 
 453:Middlewares/Third_Party/wakaama/objects.c ****     LOG_ARG("result: %u.%2u", (result & 0xFF) >> 5, (result & 0x1F));
 454:Middlewares/Third_Party/wakaama/objects.c **** 
 455:Middlewares/Third_Party/wakaama/objects.c ****     return result;
 456:Middlewares/Third_Party/wakaama/objects.c **** }
 457:Middlewares/Third_Party/wakaama/objects.c **** 
 458:Middlewares/Third_Party/wakaama/objects.c **** bool object_isInstanceNew(lwm2m_context_t * contextP,
 459:Middlewares/Third_Party/wakaama/objects.c ****                           uint16_t objectId,
 460:Middlewares/Third_Party/wakaama/objects.c ****                           uint16_t instanceId)
 461:Middlewares/Third_Party/wakaama/objects.c **** {
 462:Middlewares/Third_Party/wakaama/objects.c ****     lwm2m_object_t * targetP;
 463:Middlewares/Third_Party/wakaama/objects.c **** 
 464:Middlewares/Third_Party/wakaama/objects.c ****     LOG("Entering");
 465:Middlewares/Third_Party/wakaama/objects.c ****     targetP = (lwm2m_object_t *)LWM2M_LIST_FIND(contextP->objectList, objectId);
 466:Middlewares/Third_Party/wakaama/objects.c ****     if (targetP != NULL)
 467:Middlewares/Third_Party/wakaama/objects.c ****     {
 468:Middlewares/Third_Party/wakaama/objects.c ****         if (NULL != lwm2m_list_find(targetP->instanceList, instanceId))
 469:Middlewares/Third_Party/wakaama/objects.c ****         {
 470:Middlewares/Third_Party/wakaama/objects.c ****             return false;
 471:Middlewares/Third_Party/wakaama/objects.c ****         }
 472:Middlewares/Third_Party/wakaama/objects.c ****     }
 473:Middlewares/Third_Party/wakaama/objects.c **** 
 474:Middlewares/Third_Party/wakaama/objects.c ****     return true;
 475:Middlewares/Third_Party/wakaama/objects.c **** }
 476:Middlewares/Third_Party/wakaama/objects.c **** 
 477:Middlewares/Third_Party/wakaama/objects.c **** static int prv_getObjectTemplate(uint8_t * buffer,
 478:Middlewares/Third_Party/wakaama/objects.c ****                                  size_t length,
 479:Middlewares/Third_Party/wakaama/objects.c ****                                  uint16_t id)
 480:Middlewares/Third_Party/wakaama/objects.c **** {
  27              		.loc 1 480 0
  28              		.cfi_startproc
  29              		@ args = 0, pretend = 0, frame = 0
  30              		@ frame_needed = 0, uses_anonymous_args = 0
  31              	.LVL0:
 481:Middlewares/Third_Party/wakaama/objects.c ****     int index;
 482:Middlewares/Third_Party/wakaama/objects.c ****     int result;
 483:Middlewares/Third_Party/wakaama/objects.c **** 
ARM GAS  /var/folders/0d/93p3r6493yg7p0rvl_4r983m0000gn/T//ccOiaSyY.s 			page 10


 484:Middlewares/Third_Party/wakaama/objects.c ****     if (length < REG_OBJECT_MIN_LEN) return -1;
  32              		.loc 1 484 0
  33 0000 0429     		cmp	r1, #4
  34 0002 16D9     		bls	.L3
 480:Middlewares/Third_Party/wakaama/objects.c ****     int index;
  35              		.loc 1 480 0
  36 0004 70B5     		push	{r4, r5, r6, lr}
  37              	.LCFI0:
  38              		.cfi_def_cfa_offset 16
  39              		.cfi_offset 4, -16
  40              		.cfi_offset 5, -12
  41              		.cfi_offset 6, -8
  42              		.cfi_offset 14, -4
  43 0006 1646     		mov	r6, r2
  44 0008 0C46     		mov	r4, r1
  45 000a 0546     		mov	r5, r0
 485:Middlewares/Third_Party/wakaama/objects.c **** 
 486:Middlewares/Third_Party/wakaama/objects.c ****     buffer[0] = '<';
  46              		.loc 1 486 0
  47 000c 3C23     		movs	r3, #60
  48 000e 0370     		strb	r3, [r0]
 487:Middlewares/Third_Party/wakaama/objects.c ****     buffer[1] = '/';
  49              		.loc 1 487 0
  50 0010 2F23     		movs	r3, #47
  51 0012 4370     		strb	r3, [r0, #1]
  52              	.LVL1:
 488:Middlewares/Third_Party/wakaama/objects.c ****     index = 2;
 489:Middlewares/Third_Party/wakaama/objects.c **** 
 490:Middlewares/Third_Party/wakaama/objects.c ****     result = utils_intToText(id, buffer + index, length - index);
  53              		.loc 1 490 0
  54 0014 8B1E     		subs	r3, r1, #2
  55 0016 821C     		adds	r2, r0, #2
  56              	.LVL2:
  57 0018 B0B2     		uxth	r0, r6
  58              	.LVL3:
  59 001a 0021     		movs	r1, #0
  60              	.LVL4:
  61 001c FFF7FEFF 		bl	utils_intToText
  62              	.LVL5:
 491:Middlewares/Third_Party/wakaama/objects.c ****     if (result == 0) return -1;
  63              		.loc 1 491 0
  64 0020 50B1     		cbz	r0, .L4
 492:Middlewares/Third_Party/wakaama/objects.c ****     index += result;
  65              		.loc 1 492 0
  66 0022 821C     		adds	r2, r0, #2
  67              	.LVL6:
 493:Middlewares/Third_Party/wakaama/objects.c **** 
 494:Middlewares/Third_Party/wakaama/objects.c ****     if (length - index < REG_OBJECT_MIN_LEN - 3) return -1;
  68              		.loc 1 494 0
  69 0024 A11A     		subs	r1, r4, r2
  70 0026 0129     		cmp	r1, #1
  71 0028 09D9     		bls	.L5
 495:Middlewares/Third_Party/wakaama/objects.c ****     buffer[index] = '/';
  72              		.loc 1 495 0
  73 002a 2F21     		movs	r1, #47
  74 002c A954     		strb	r1, [r5, r2]
 496:Middlewares/Third_Party/wakaama/objects.c ****     index++;
ARM GAS  /var/folders/0d/93p3r6493yg7p0rvl_4r983m0000gn/T//ccOiaSyY.s 			page 11


  75              		.loc 1 496 0
  76 002e 0330     		adds	r0, r0, #3
  77              	.LVL7:
  78              	.L1:
 497:Middlewares/Third_Party/wakaama/objects.c **** 
 498:Middlewares/Third_Party/wakaama/objects.c ****     return index;
 499:Middlewares/Third_Party/wakaama/objects.c **** }
  79              		.loc 1 499 0
  80 0030 70BD     		pop	{r4, r5, r6, pc}
  81              	.LVL8:
  82              	.L3:
  83              	.LCFI1:
  84              		.cfi_def_cfa_offset 0
  85              		.cfi_restore 4
  86              		.cfi_restore 5
  87              		.cfi_restore 6
  88              		.cfi_restore 14
 484:Middlewares/Third_Party/wakaama/objects.c **** 
  89              		.loc 1 484 0
  90 0032 4FF0FF30 		mov	r0, #-1
  91              	.LVL9:
  92              		.loc 1 499 0
  93 0036 7047     		bx	lr
  94              	.LVL10:
  95              	.L4:
  96              	.LCFI2:
  97              		.cfi_def_cfa_offset 16
  98              		.cfi_offset 4, -16
  99              		.cfi_offset 5, -12
 100              		.cfi_offset 6, -8
 101              		.cfi_offset 14, -4
 491:Middlewares/Third_Party/wakaama/objects.c ****     index += result;
 102              		.loc 1 491 0
 103 0038 4FF0FF30 		mov	r0, #-1
 104              	.LVL11:
 105 003c F8E7     		b	.L1
 106              	.LVL12:
 107              	.L5:
 494:Middlewares/Third_Party/wakaama/objects.c ****     buffer[index] = '/';
 108              		.loc 1 494 0
 109 003e 4FF0FF30 		mov	r0, #-1
 110              	.LVL13:
 111 0042 F5E7     		b	.L1
 112              		.cfi_endproc
 113              	.LFE12:
 115              		.section	.text.prv_findServerInstance,"ax",%progbits
 116              		.align	1
 117              		.syntax unified
 118              		.thumb
 119              		.thumb_func
 120              		.fpu fpv4-sp-d16
 122              	prv_findServerInstance:
 123              	.LFB15:
 500:Middlewares/Third_Party/wakaama/objects.c **** 
 501:Middlewares/Third_Party/wakaama/objects.c **** int object_getRegisterPayloadBufferLength(lwm2m_context_t * contextP)
 502:Middlewares/Third_Party/wakaama/objects.c **** {
 503:Middlewares/Third_Party/wakaama/objects.c ****     size_t index;
ARM GAS  /var/folders/0d/93p3r6493yg7p0rvl_4r983m0000gn/T//ccOiaSyY.s 			page 12


 504:Middlewares/Third_Party/wakaama/objects.c ****     int result;
 505:Middlewares/Third_Party/wakaama/objects.c ****     lwm2m_object_t * objectP;
 506:Middlewares/Third_Party/wakaama/objects.c ****     char buffer[REG_OBJECT_MIN_LEN + 5];
 507:Middlewares/Third_Party/wakaama/objects.c **** 
 508:Middlewares/Third_Party/wakaama/objects.c ****     LOG("Entering");
 509:Middlewares/Third_Party/wakaama/objects.c ****     index = strlen(REG_START);
 510:Middlewares/Third_Party/wakaama/objects.c **** 
 511:Middlewares/Third_Party/wakaama/objects.c ****     if ((contextP->altPath != NULL)
 512:Middlewares/Third_Party/wakaama/objects.c ****      && (contextP->altPath[0] != 0))
 513:Middlewares/Third_Party/wakaama/objects.c ****     {
 514:Middlewares/Third_Party/wakaama/objects.c ****         index += strlen(contextP->altPath);
 515:Middlewares/Third_Party/wakaama/objects.c ****     }
 516:Middlewares/Third_Party/wakaama/objects.c ****     else
 517:Middlewares/Third_Party/wakaama/objects.c ****     {
 518:Middlewares/Third_Party/wakaama/objects.c ****         index += strlen(REG_DEFAULT_PATH);
 519:Middlewares/Third_Party/wakaama/objects.c ****     }
 520:Middlewares/Third_Party/wakaama/objects.c **** 
 521:Middlewares/Third_Party/wakaama/objects.c ****     index += strlen(REG_LWM2M_RESOURCE_TYPE);
 522:Middlewares/Third_Party/wakaama/objects.c **** 
 523:Middlewares/Third_Party/wakaama/objects.c ****     for (objectP = contextP->objectList; objectP != NULL; objectP = objectP->next)
 524:Middlewares/Third_Party/wakaama/objects.c ****     {
 525:Middlewares/Third_Party/wakaama/objects.c ****         size_t start;
 526:Middlewares/Third_Party/wakaama/objects.c ****         size_t length;
 527:Middlewares/Third_Party/wakaama/objects.c **** 
 528:Middlewares/Third_Party/wakaama/objects.c ****         if (objectP->objID == LWM2M_SECURITY_OBJECT_ID) continue;
 529:Middlewares/Third_Party/wakaama/objects.c **** 
 530:Middlewares/Third_Party/wakaama/objects.c ****         start = index;
 531:Middlewares/Third_Party/wakaama/objects.c ****         result = prv_getObjectTemplate(buffer, sizeof(buffer), objectP->objID);
 532:Middlewares/Third_Party/wakaama/objects.c ****         if (result < 0) return 0;
 533:Middlewares/Third_Party/wakaama/objects.c ****         length = result;
 534:Middlewares/Third_Party/wakaama/objects.c ****         index += length;
 535:Middlewares/Third_Party/wakaama/objects.c **** 
 536:Middlewares/Third_Party/wakaama/objects.c ****         if (objectP->instanceList == NULL)
 537:Middlewares/Third_Party/wakaama/objects.c ****         {
 538:Middlewares/Third_Party/wakaama/objects.c ****             index -= 1;
 539:Middlewares/Third_Party/wakaama/objects.c ****             index += strlen(REG_PATH_END);
 540:Middlewares/Third_Party/wakaama/objects.c ****         }
 541:Middlewares/Third_Party/wakaama/objects.c ****         else
 542:Middlewares/Third_Party/wakaama/objects.c ****         {
 543:Middlewares/Third_Party/wakaama/objects.c ****             lwm2m_list_t * targetP;
 544:Middlewares/Third_Party/wakaama/objects.c ****             for (targetP = objectP->instanceList ; targetP != NULL ; targetP = targetP->next)
 545:Middlewares/Third_Party/wakaama/objects.c ****             {
 546:Middlewares/Third_Party/wakaama/objects.c ****                 if (index != start + length)
 547:Middlewares/Third_Party/wakaama/objects.c ****                 {
 548:Middlewares/Third_Party/wakaama/objects.c ****                     index += length;
 549:Middlewares/Third_Party/wakaama/objects.c ****                 }
 550:Middlewares/Third_Party/wakaama/objects.c **** 
 551:Middlewares/Third_Party/wakaama/objects.c ****                 result = utils_intToText(targetP->id, buffer, sizeof(buffer));
 552:Middlewares/Third_Party/wakaama/objects.c ****                 if (result == 0) return 0;
 553:Middlewares/Third_Party/wakaama/objects.c ****                 index += result;
 554:Middlewares/Third_Party/wakaama/objects.c **** 
 555:Middlewares/Third_Party/wakaama/objects.c ****                 index += strlen(REG_PATH_END);
 556:Middlewares/Third_Party/wakaama/objects.c ****             }
 557:Middlewares/Third_Party/wakaama/objects.c ****         }
 558:Middlewares/Third_Party/wakaama/objects.c ****     }
 559:Middlewares/Third_Party/wakaama/objects.c **** 
 560:Middlewares/Third_Party/wakaama/objects.c ****     index += 1;  // account for trailing null
ARM GAS  /var/folders/0d/93p3r6493yg7p0rvl_4r983m0000gn/T//ccOiaSyY.s 			page 13


 561:Middlewares/Third_Party/wakaama/objects.c **** 
 562:Middlewares/Third_Party/wakaama/objects.c ****     // Note that object_getRegisterPayload() has REG_PATH_END added after each
 563:Middlewares/Third_Party/wakaama/objects.c ****     // object or instance, and then the trailing comma is replaced by null. The
 564:Middlewares/Third_Party/wakaama/objects.c ****     // trailing nulls are not counted as part of the payload length, so this
 565:Middlewares/Third_Party/wakaama/objects.c ****     // will return a size two bytes greater than what
 566:Middlewares/Third_Party/wakaama/objects.c ****     // object_getRegisterPayload() returns.
 567:Middlewares/Third_Party/wakaama/objects.c **** 
 568:Middlewares/Third_Party/wakaama/objects.c ****     return index;
 569:Middlewares/Third_Party/wakaama/objects.c **** }
 570:Middlewares/Third_Party/wakaama/objects.c **** 
 571:Middlewares/Third_Party/wakaama/objects.c **** int object_getRegisterPayload(lwm2m_context_t * contextP,
 572:Middlewares/Third_Party/wakaama/objects.c ****                            uint8_t * buffer,
 573:Middlewares/Third_Party/wakaama/objects.c ****                            size_t bufferLen)
 574:Middlewares/Third_Party/wakaama/objects.c **** {
 575:Middlewares/Third_Party/wakaama/objects.c ****     size_t index;
 576:Middlewares/Third_Party/wakaama/objects.c ****     int result;
 577:Middlewares/Third_Party/wakaama/objects.c ****     lwm2m_object_t * objectP;
 578:Middlewares/Third_Party/wakaama/objects.c **** 
 579:Middlewares/Third_Party/wakaama/objects.c ****     LOG("Entering");
 580:Middlewares/Third_Party/wakaama/objects.c ****     // index can not be greater than bufferLen
 581:Middlewares/Third_Party/wakaama/objects.c ****     index = 0;
 582:Middlewares/Third_Party/wakaama/objects.c **** 
 583:Middlewares/Third_Party/wakaama/objects.c ****     result = utils_stringCopy((char *)buffer, bufferLen, REG_START);
 584:Middlewares/Third_Party/wakaama/objects.c ****     if (result < 0) return 0;
 585:Middlewares/Third_Party/wakaama/objects.c ****     index += result;
 586:Middlewares/Third_Party/wakaama/objects.c **** 
 587:Middlewares/Third_Party/wakaama/objects.c ****     if ((contextP->altPath != NULL)
 588:Middlewares/Third_Party/wakaama/objects.c ****      && (contextP->altPath[0] != 0))
 589:Middlewares/Third_Party/wakaama/objects.c ****     {
 590:Middlewares/Third_Party/wakaama/objects.c ****         result = utils_stringCopy((char *)buffer + index, bufferLen - index, contextP->altPath);
 591:Middlewares/Third_Party/wakaama/objects.c ****     }
 592:Middlewares/Third_Party/wakaama/objects.c ****     else
 593:Middlewares/Third_Party/wakaama/objects.c ****     {
 594:Middlewares/Third_Party/wakaama/objects.c ****         result = utils_stringCopy((char *)buffer + index, bufferLen - index, REG_DEFAULT_PATH);
 595:Middlewares/Third_Party/wakaama/objects.c ****     }
 596:Middlewares/Third_Party/wakaama/objects.c ****     if (result < 0) return 0;
 597:Middlewares/Third_Party/wakaama/objects.c ****     index += result;
 598:Middlewares/Third_Party/wakaama/objects.c **** 
 599:Middlewares/Third_Party/wakaama/objects.c ****     result = utils_stringCopy((char *)buffer + index, bufferLen - index, REG_LWM2M_RESOURCE_TYPE);
 600:Middlewares/Third_Party/wakaama/objects.c ****     if (result < 0) return 0;
 601:Middlewares/Third_Party/wakaama/objects.c ****     index += result;
 602:Middlewares/Third_Party/wakaama/objects.c **** 
 603:Middlewares/Third_Party/wakaama/objects.c ****     for (objectP = contextP->objectList; objectP != NULL; objectP = objectP->next)
 604:Middlewares/Third_Party/wakaama/objects.c ****     {
 605:Middlewares/Third_Party/wakaama/objects.c ****         size_t start;
 606:Middlewares/Third_Party/wakaama/objects.c ****         size_t length;
 607:Middlewares/Third_Party/wakaama/objects.c **** 
 608:Middlewares/Third_Party/wakaama/objects.c ****         if (objectP->objID == LWM2M_SECURITY_OBJECT_ID) continue;
 609:Middlewares/Third_Party/wakaama/objects.c **** 
 610:Middlewares/Third_Party/wakaama/objects.c ****         start = index;
 611:Middlewares/Third_Party/wakaama/objects.c ****         result = prv_getObjectTemplate(buffer + index, bufferLen - index, objectP->objID);
 612:Middlewares/Third_Party/wakaama/objects.c ****         if (result < 0) return 0;
 613:Middlewares/Third_Party/wakaama/objects.c ****         length = result;
 614:Middlewares/Third_Party/wakaama/objects.c ****         index += length;
 615:Middlewares/Third_Party/wakaama/objects.c **** 
 616:Middlewares/Third_Party/wakaama/objects.c ****         if (objectP->instanceList == NULL)
 617:Middlewares/Third_Party/wakaama/objects.c ****         {
ARM GAS  /var/folders/0d/93p3r6493yg7p0rvl_4r983m0000gn/T//ccOiaSyY.s 			page 14


 618:Middlewares/Third_Party/wakaama/objects.c ****             index--;
 619:Middlewares/Third_Party/wakaama/objects.c ****             result = utils_stringCopy((char *)buffer + index, bufferLen - index, REG_PATH_END);
 620:Middlewares/Third_Party/wakaama/objects.c ****             if (result < 0) return 0;
 621:Middlewares/Third_Party/wakaama/objects.c ****             index += result;
 622:Middlewares/Third_Party/wakaama/objects.c ****         }
 623:Middlewares/Third_Party/wakaama/objects.c ****         else
 624:Middlewares/Third_Party/wakaama/objects.c ****         {
 625:Middlewares/Third_Party/wakaama/objects.c ****             lwm2m_list_t * targetP;
 626:Middlewares/Third_Party/wakaama/objects.c ****             for (targetP = objectP->instanceList ; targetP != NULL ; targetP = targetP->next)
 627:Middlewares/Third_Party/wakaama/objects.c ****             {
 628:Middlewares/Third_Party/wakaama/objects.c ****                 if (index != start + length)
 629:Middlewares/Third_Party/wakaama/objects.c ****                 {
 630:Middlewares/Third_Party/wakaama/objects.c ****                     if (bufferLen - index <= length) return 0;
 631:Middlewares/Third_Party/wakaama/objects.c ****                     memcpy(buffer + index, buffer + start, length);
 632:Middlewares/Third_Party/wakaama/objects.c ****                     index += length;
 633:Middlewares/Third_Party/wakaama/objects.c ****                 }
 634:Middlewares/Third_Party/wakaama/objects.c **** 
 635:Middlewares/Third_Party/wakaama/objects.c ****                 result = utils_intToText(targetP->id, buffer + index, bufferLen - index);
 636:Middlewares/Third_Party/wakaama/objects.c ****                 if (result == 0) return 0;
 637:Middlewares/Third_Party/wakaama/objects.c ****                 index += result;
 638:Middlewares/Third_Party/wakaama/objects.c **** 
 639:Middlewares/Third_Party/wakaama/objects.c ****                 result = utils_stringCopy((char *)buffer + index, bufferLen - index, REG_PATH_END);
 640:Middlewares/Third_Party/wakaama/objects.c ****                 if (result < 0) return 0;
 641:Middlewares/Third_Party/wakaama/objects.c ****                 index += result;
 642:Middlewares/Third_Party/wakaama/objects.c ****             }
 643:Middlewares/Third_Party/wakaama/objects.c ****         }
 644:Middlewares/Third_Party/wakaama/objects.c ****     }
 645:Middlewares/Third_Party/wakaama/objects.c **** 
 646:Middlewares/Third_Party/wakaama/objects.c ****     if (index > 0)
 647:Middlewares/Third_Party/wakaama/objects.c ****     {
 648:Middlewares/Third_Party/wakaama/objects.c ****         index = index - 1;  // remove trailing ','
 649:Middlewares/Third_Party/wakaama/objects.c ****     }
 650:Middlewares/Third_Party/wakaama/objects.c **** 
 651:Middlewares/Third_Party/wakaama/objects.c ****     buffer[index] = 0;
 652:Middlewares/Third_Party/wakaama/objects.c **** 
 653:Middlewares/Third_Party/wakaama/objects.c ****     return index;
 654:Middlewares/Third_Party/wakaama/objects.c **** }
 655:Middlewares/Third_Party/wakaama/objects.c **** 
 656:Middlewares/Third_Party/wakaama/objects.c **** static lwm2m_list_t * prv_findServerInstance(lwm2m_object_t * objectP,
 657:Middlewares/Third_Party/wakaama/objects.c ****                                              uint16_t shortID)
 658:Middlewares/Third_Party/wakaama/objects.c **** {
 124              		.loc 1 658 0
 125              		.cfi_startproc
 126              		@ args = 0, pretend = 0, frame = 16
 127              		@ frame_needed = 0, uses_anonymous_args = 0
 128              	.LVL14:
 129 0000 F0B5     		push	{r4, r5, r6, r7, lr}
 130              	.LCFI3:
 131              		.cfi_def_cfa_offset 20
 132              		.cfi_offset 4, -20
 133              		.cfi_offset 5, -16
 134              		.cfi_offset 6, -12
 135              		.cfi_offset 7, -8
 136              		.cfi_offset 14, -4
 137 0002 85B0     		sub	sp, sp, #20
 138              	.LCFI4:
 139              		.cfi_def_cfa_offset 40
ARM GAS  /var/folders/0d/93p3r6493yg7p0rvl_4r983m0000gn/T//ccOiaSyY.s 			page 15


 140 0004 0546     		mov	r5, r0
 141 0006 0F46     		mov	r7, r1
 659:Middlewares/Third_Party/wakaama/objects.c ****     lwm2m_list_t * instanceP;
 660:Middlewares/Third_Party/wakaama/objects.c **** 
 661:Middlewares/Third_Party/wakaama/objects.c ****     instanceP = objectP->instanceList;
 142              		.loc 1 661 0
 143 0008 8468     		ldr	r4, [r0, #8]
 144              	.LVL15:
 662:Middlewares/Third_Party/wakaama/objects.c ****     while (NULL != instanceP)
 145              		.loc 1 662 0
 146 000a 0CE0     		b	.L11
 147              	.LVL16:
 148              	.L18:
 149              	.LBB2:
 663:Middlewares/Third_Party/wakaama/objects.c ****     {
 664:Middlewares/Third_Party/wakaama/objects.c ****         int64_t value;
 665:Middlewares/Third_Party/wakaama/objects.c ****         lwm2m_data_t * dataP;
 666:Middlewares/Third_Party/wakaama/objects.c ****         int size;
 667:Middlewares/Third_Party/wakaama/objects.c **** 
 668:Middlewares/Third_Party/wakaama/objects.c ****         size = 1;
 669:Middlewares/Third_Party/wakaama/objects.c ****         dataP = lwm2m_data_new(size);
 670:Middlewares/Third_Party/wakaama/objects.c ****         if (dataP == NULL) return NULL;
 671:Middlewares/Third_Party/wakaama/objects.c ****         dataP->id = LWM2M_SERVER_SHORT_ID_ID;
 672:Middlewares/Third_Party/wakaama/objects.c **** 
 673:Middlewares/Third_Party/wakaama/objects.c ****         if (objectP->readFunc(instanceP->id, &size, &dataP, objectP) != COAP_205_CONTENT)
 674:Middlewares/Third_Party/wakaama/objects.c ****         {
 675:Middlewares/Third_Party/wakaama/objects.c ****             lwm2m_data_free(size, dataP);
 150              		.loc 1 675 0
 151 000c 0099     		ldr	r1, [sp]
 152 000e 0198     		ldr	r0, [sp, #4]
 153 0010 FFF7FEFF 		bl	lwm2m_data_free
 154              	.LVL17:
 155              	.L12:
 670:Middlewares/Third_Party/wakaama/objects.c ****         dataP->id = LWM2M_SERVER_SHORT_ID_ID;
 156              		.loc 1 670 0 discriminator 2
 157 0014 0024     		movs	r4, #0
 158              	.LVL18:
 159              	.L10:
 160              	.LBE2:
 676:Middlewares/Third_Party/wakaama/objects.c ****             return NULL;
 677:Middlewares/Third_Party/wakaama/objects.c ****         }
 678:Middlewares/Third_Party/wakaama/objects.c **** 
 679:Middlewares/Third_Party/wakaama/objects.c ****         if (1 == lwm2m_data_decode_int(dataP, &value))
 680:Middlewares/Third_Party/wakaama/objects.c ****         {
 681:Middlewares/Third_Party/wakaama/objects.c ****             if (value == shortID)
 682:Middlewares/Third_Party/wakaama/objects.c ****             {
 683:Middlewares/Third_Party/wakaama/objects.c ****                 lwm2m_data_free(size, dataP);
 684:Middlewares/Third_Party/wakaama/objects.c ****                 break;
 685:Middlewares/Third_Party/wakaama/objects.c ****             }
 686:Middlewares/Third_Party/wakaama/objects.c ****         }
 687:Middlewares/Third_Party/wakaama/objects.c ****         lwm2m_data_free(size, dataP);
 688:Middlewares/Third_Party/wakaama/objects.c ****         instanceP = instanceP->next;
 689:Middlewares/Third_Party/wakaama/objects.c ****     }
 690:Middlewares/Third_Party/wakaama/objects.c **** 
 691:Middlewares/Third_Party/wakaama/objects.c ****     return instanceP;
 692:Middlewares/Third_Party/wakaama/objects.c **** }
 161              		.loc 1 692 0
ARM GAS  /var/folders/0d/93p3r6493yg7p0rvl_4r983m0000gn/T//ccOiaSyY.s 			page 16


 162 0016 2046     		mov	r0, r4
 163 0018 05B0     		add	sp, sp, #20
 164              	.LCFI5:
 165              		.cfi_remember_state
 166              		.cfi_def_cfa_offset 20
 167              		@ sp needed
 168 001a F0BD     		pop	{r4, r5, r6, r7, pc}
 169              	.LVL19:
 170              	.L14:
 171              	.LCFI6:
 172              		.cfi_restore_state
 173              	.LBB3:
 687:Middlewares/Third_Party/wakaama/objects.c ****         instanceP = instanceP->next;
 174              		.loc 1 687 0
 175 001c 0099     		ldr	r1, [sp]
 176 001e 0198     		ldr	r0, [sp, #4]
 177 0020 FFF7FEFF 		bl	lwm2m_data_free
 178              	.LVL20:
 688:Middlewares/Third_Party/wakaama/objects.c ****     }
 179              		.loc 1 688 0
 180 0024 2468     		ldr	r4, [r4]
 181              	.LVL21:
 182              	.L11:
 183              	.LBE3:
 662:Middlewares/Third_Party/wakaama/objects.c ****     {
 184              		.loc 1 662 0
 185 0026 002C     		cmp	r4, #0
 186 0028 F5D0     		beq	.L10
 187              	.LBB4:
 668:Middlewares/Third_Party/wakaama/objects.c ****         dataP = lwm2m_data_new(size);
 188              		.loc 1 668 0
 189 002a 0120     		movs	r0, #1
 190 002c 0190     		str	r0, [sp, #4]
 669:Middlewares/Third_Party/wakaama/objects.c ****         if (dataP == NULL) return NULL;
 191              		.loc 1 669 0
 192 002e FFF7FEFF 		bl	lwm2m_data_new
 193              	.LVL22:
 194 0032 0090     		str	r0, [sp]
 670:Middlewares/Third_Party/wakaama/objects.c ****         dataP->id = LWM2M_SERVER_SHORT_ID_ID;
 195              		.loc 1 670 0
 196 0034 0028     		cmp	r0, #0
 197 0036 EDD0     		beq	.L12
 671:Middlewares/Third_Party/wakaama/objects.c **** 
 198              		.loc 1 671 0
 199 0038 0023     		movs	r3, #0
 200 003a 4380     		strh	r3, [r0, #2]	@ movhi
 673:Middlewares/Third_Party/wakaama/objects.c ****         {
 201              		.loc 1 673 0
 202 003c EE68     		ldr	r6, [r5, #12]
 203 003e 2B46     		mov	r3, r5
 204 0040 6A46     		mov	r2, sp
 205 0042 01A9     		add	r1, sp, #4
 206 0044 A088     		ldrh	r0, [r4, #4]
 207 0046 B047     		blx	r6
 208              	.LVL23:
 209 0048 4528     		cmp	r0, #69
 210 004a DFD1     		bne	.L18
ARM GAS  /var/folders/0d/93p3r6493yg7p0rvl_4r983m0000gn/T//ccOiaSyY.s 			page 17


 679:Middlewares/Third_Party/wakaama/objects.c ****         {
 211              		.loc 1 679 0
 212 004c 02A9     		add	r1, sp, #8
 213 004e 0098     		ldr	r0, [sp]
 214 0050 FFF7FEFF 		bl	lwm2m_data_decode_int
 215              	.LVL24:
 216 0054 0128     		cmp	r0, #1
 217 0056 E1D1     		bne	.L14
 681:Middlewares/Third_Party/wakaama/objects.c ****             {
 218              		.loc 1 681 0
 219 0058 DDE90223 		ldrd	r2, [sp, #8]
 220 005c B8B2     		uxth	r0, r7
 221 005e 0021     		movs	r1, #0
 222 0060 9942     		cmp	r1, r3
 223 0062 08BF     		it	eq
 224 0064 9042     		cmpeq	r0, r2
 225 0066 D9D1     		bne	.L14
 683:Middlewares/Third_Party/wakaama/objects.c ****                 break;
 226              		.loc 1 683 0
 227 0068 0099     		ldr	r1, [sp]
 228 006a 0198     		ldr	r0, [sp, #4]
 229 006c FFF7FEFF 		bl	lwm2m_data_free
 230              	.LVL25:
 231 0070 D1E7     		b	.L10
 232              	.LBE4:
 233              		.cfi_endproc
 234              	.LFE15:
 236              		.section	.text.prv_getMandatoryInfo,"ax",%progbits
 237              		.align	1
 238              		.syntax unified
 239              		.thumb
 240              		.thumb_func
 241              		.fpu fpv4-sp-d16
 243              	prv_getMandatoryInfo:
 244              	.LFB16:
 693:Middlewares/Third_Party/wakaama/objects.c **** 
 694:Middlewares/Third_Party/wakaama/objects.c **** static int prv_getMandatoryInfo(lwm2m_object_t * objectP,
 695:Middlewares/Third_Party/wakaama/objects.c ****                                 uint16_t instanceID,
 696:Middlewares/Third_Party/wakaama/objects.c ****                                 lwm2m_server_t * targetP)
 697:Middlewares/Third_Party/wakaama/objects.c **** {
 245              		.loc 1 697 0
 246              		.cfi_startproc
 247              		@ args = 0, pretend = 0, frame = 16
 248              		@ frame_needed = 0, uses_anonymous_args = 0
 249              	.LVL26:
 250 0000 F0B5     		push	{r4, r5, r6, r7, lr}
 251              	.LCFI7:
 252              		.cfi_def_cfa_offset 20
 253              		.cfi_offset 4, -20
 254              		.cfi_offset 5, -16
 255              		.cfi_offset 6, -12
 256              		.cfi_offset 7, -8
 257              		.cfi_offset 14, -4
 258 0002 85B0     		sub	sp, sp, #20
 259              	.LCFI8:
 260              		.cfi_def_cfa_offset 40
 261 0004 0546     		mov	r5, r0
ARM GAS  /var/folders/0d/93p3r6493yg7p0rvl_4r983m0000gn/T//ccOiaSyY.s 			page 18


 262 0006 0E46     		mov	r6, r1
 263 0008 1446     		mov	r4, r2
 698:Middlewares/Third_Party/wakaama/objects.c ****     lwm2m_data_t * dataP;
 699:Middlewares/Third_Party/wakaama/objects.c ****     int size;
 700:Middlewares/Third_Party/wakaama/objects.c ****     int64_t value;
 701:Middlewares/Third_Party/wakaama/objects.c **** 
 702:Middlewares/Third_Party/wakaama/objects.c ****     size = 2;
 264              		.loc 1 702 0
 265 000a 0220     		movs	r0, #2
 266              	.LVL27:
 267 000c 0290     		str	r0, [sp, #8]
 703:Middlewares/Third_Party/wakaama/objects.c ****     dataP = lwm2m_data_new(size);
 268              		.loc 1 703 0
 269 000e FFF7FEFF 		bl	lwm2m_data_new
 270              	.LVL28:
 271 0012 0390     		str	r0, [sp, #12]
 704:Middlewares/Third_Party/wakaama/objects.c ****     if (dataP == NULL) return -1;
 272              		.loc 1 704 0
 273 0014 0028     		cmp	r0, #0
 274 0016 3ED0     		beq	.L24
 705:Middlewares/Third_Party/wakaama/objects.c ****     dataP[0].id = LWM2M_SERVER_LIFETIME_ID;
 275              		.loc 1 705 0
 276 0018 0123     		movs	r3, #1
 277 001a 4380     		strh	r3, [r0, #2]	@ movhi
 706:Middlewares/Third_Party/wakaama/objects.c ****     dataP[1].id = LWM2M_SERVER_BINDING_ID;
 278              		.loc 1 706 0
 279 001c 04AA     		add	r2, sp, #16
 280 001e 52F8043D 		ldr	r3, [r2, #-4]!
 281 0022 0721     		movs	r1, #7
 282 0024 5982     		strh	r1, [r3, #18]	@ movhi
 707:Middlewares/Third_Party/wakaama/objects.c **** 
 708:Middlewares/Third_Party/wakaama/objects.c ****     if (objectP->readFunc(instanceID, &size, &dataP, objectP) != COAP_205_CONTENT)
 283              		.loc 1 708 0
 284 0026 EF68     		ldr	r7, [r5, #12]
 285 0028 2B46     		mov	r3, r5
 286 002a 02A9     		add	r1, sp, #8
 287 002c 3046     		mov	r0, r6
 288 002e B847     		blx	r7
 289              	.LVL29:
 290 0030 4528     		cmp	r0, #69
 291 0032 1FD1     		bne	.L27
 709:Middlewares/Third_Party/wakaama/objects.c ****     {
 710:Middlewares/Third_Party/wakaama/objects.c ****         lwm2m_data_free(size, dataP);
 711:Middlewares/Third_Party/wakaama/objects.c ****         return -1;
 712:Middlewares/Third_Party/wakaama/objects.c ****     }
 713:Middlewares/Third_Party/wakaama/objects.c **** 
 714:Middlewares/Third_Party/wakaama/objects.c ****     if (0 == lwm2m_data_decode_int(dataP, &value)
 292              		.loc 1 714 0
 293 0034 6946     		mov	r1, sp
 294 0036 0398     		ldr	r0, [sp, #12]
 295 0038 FFF7FEFF 		bl	lwm2m_data_decode_int
 296              	.LVL30:
 297 003c 08B3     		cbz	r0, .L22
 715:Middlewares/Third_Party/wakaama/objects.c ****      || value < 0 || value >0xFFFFFFFF)             // This is an implementation limit
 298              		.loc 1 715 0
 299 003e DDE90023 		ldrd	r2, [sp]
 300 0042 002A     		cmp	r2, #0
ARM GAS  /var/folders/0d/93p3r6493yg7p0rvl_4r983m0000gn/T//ccOiaSyY.s 			page 19


 301 0044 73F10001 		sbcs	r1, r3, #0
 302 0048 1BDB     		blt	.L22
 303              		.loc 1 715 0 is_stmt 0 discriminator 1
 304 004a 002A     		cmp	r2, #0
 305 004c 73F10101 		sbcs	r1, r3, #1
 306 0050 17DA     		bge	.L22
 716:Middlewares/Third_Party/wakaama/objects.c ****     {
 717:Middlewares/Third_Party/wakaama/objects.c ****         lwm2m_data_free(size, dataP);
 718:Middlewares/Third_Party/wakaama/objects.c ****         return -1;
 719:Middlewares/Third_Party/wakaama/objects.c ****     }
 720:Middlewares/Third_Party/wakaama/objects.c ****     targetP->lifetime = value;
 307              		.loc 1 720 0 is_stmt 1
 308 0052 C4E90223 		strd	r2, [r4, #8]
 721:Middlewares/Third_Party/wakaama/objects.c **** 
 722:Middlewares/Third_Party/wakaama/objects.c ****     targetP->binding = utils_stringToBinding(dataP[1].value.asBuffer.buffer, dataP[1].value.asBuffe
 309              		.loc 1 722 0
 310 0056 039B     		ldr	r3, [sp, #12]
 311 0058 9969     		ldr	r1, [r3, #24]
 312 005a D869     		ldr	r0, [r3, #28]
 313 005c FFF7FEFF 		bl	utils_stringToBinding
 314              	.LVL31:
 315 0060 2076     		strb	r0, [r4, #24]
 723:Middlewares/Third_Party/wakaama/objects.c **** 
 724:Middlewares/Third_Party/wakaama/objects.c ****     lwm2m_data_free(size, dataP);
 316              		.loc 1 724 0
 317 0062 0399     		ldr	r1, [sp, #12]
 318 0064 0298     		ldr	r0, [sp, #8]
 319 0066 FFF7FEFF 		bl	lwm2m_data_free
 320              	.LVL32:
 725:Middlewares/Third_Party/wakaama/objects.c **** 
 726:Middlewares/Third_Party/wakaama/objects.c ****     if (targetP->binding == BINDING_UNKNOWN)
 321              		.loc 1 726 0
 322 006a 237E     		ldrb	r3, [r4, #24]	@ zero_extendqisi2
 323 006c 83B1     		cbz	r3, .L28
 727:Middlewares/Third_Party/wakaama/objects.c ****     {
 728:Middlewares/Third_Party/wakaama/objects.c ****         return -1;
 729:Middlewares/Third_Party/wakaama/objects.c ****     }
 730:Middlewares/Third_Party/wakaama/objects.c **** 
 731:Middlewares/Third_Party/wakaama/objects.c ****     return 0;
 324              		.loc 1 731 0
 325 006e 0020     		movs	r0, #0
 326              	.L19:
 732:Middlewares/Third_Party/wakaama/objects.c **** }
 327              		.loc 1 732 0
 328 0070 05B0     		add	sp, sp, #20
 329              	.LCFI9:
 330              		.cfi_remember_state
 331              		.cfi_def_cfa_offset 20
 332              		@ sp needed
 333 0072 F0BD     		pop	{r4, r5, r6, r7, pc}
 334              	.LVL33:
 335              	.L27:
 336              	.LCFI10:
 337              		.cfi_restore_state
 710:Middlewares/Third_Party/wakaama/objects.c ****         return -1;
 338              		.loc 1 710 0
 339 0074 0399     		ldr	r1, [sp, #12]
ARM GAS  /var/folders/0d/93p3r6493yg7p0rvl_4r983m0000gn/T//ccOiaSyY.s 			page 20


 340 0076 0298     		ldr	r0, [sp, #8]
 341 0078 FFF7FEFF 		bl	lwm2m_data_free
 342              	.LVL34:
 711:Middlewares/Third_Party/wakaama/objects.c ****     }
 343              		.loc 1 711 0
 344 007c 4FF0FF30 		mov	r0, #-1
 345 0080 F6E7     		b	.L19
 346              	.L22:
 717:Middlewares/Third_Party/wakaama/objects.c ****         return -1;
 347              		.loc 1 717 0
 348 0082 0399     		ldr	r1, [sp, #12]
 349 0084 0298     		ldr	r0, [sp, #8]
 350 0086 FFF7FEFF 		bl	lwm2m_data_free
 351              	.LVL35:
 718:Middlewares/Third_Party/wakaama/objects.c ****     }
 352              		.loc 1 718 0
 353 008a 4FF0FF30 		mov	r0, #-1
 354 008e EFE7     		b	.L19
 355              	.L28:
 728:Middlewares/Third_Party/wakaama/objects.c ****     }
 356              		.loc 1 728 0
 357 0090 4FF0FF30 		mov	r0, #-1
 358 0094 ECE7     		b	.L19
 359              	.L24:
 704:Middlewares/Third_Party/wakaama/objects.c ****     dataP[0].id = LWM2M_SERVER_LIFETIME_ID;
 360              		.loc 1 704 0
 361 0096 4FF0FF30 		mov	r0, #-1
 362 009a E9E7     		b	.L19
 363              		.cfi_endproc
 364              	.LFE16:
 366              		.section	.text.object_checkReadable,"ax",%progbits
 367              		.align	1
 368              		.global	object_checkReadable
 369              		.syntax unified
 370              		.thumb
 371              		.thumb_func
 372              		.fpu fpv4-sp-d16
 374              	object_checkReadable:
 375              	.LFB3:
  66:Middlewares/Third_Party/wakaama/objects.c ****     uint8_t result;
 376              		.loc 1 66 0
 377              		.cfi_startproc
 378              		@ args = 0, pretend = 0, frame = 8
 379              		@ frame_needed = 0, uses_anonymous_args = 0
 380              	.LVL36:
 381 0000 F0B5     		push	{r4, r5, r6, r7, lr}
 382              	.LCFI11:
 383              		.cfi_def_cfa_offset 20
 384              		.cfi_offset 4, -20
 385              		.cfi_offset 5, -16
 386              		.cfi_offset 6, -12
 387              		.cfi_offset 7, -8
 388              		.cfi_offset 14, -4
 389 0002 83B0     		sub	sp, sp, #12
 390              	.LCFI12:
 391              		.cfi_def_cfa_offset 32
 392 0004 0C46     		mov	r4, r1
ARM GAS  /var/folders/0d/93p3r6493yg7p0rvl_4r983m0000gn/T//ccOiaSyY.s 			page 21


 393 0006 1646     		mov	r6, r2
  69:Middlewares/Third_Party/wakaama/objects.c ****     int size;
 394              		.loc 1 69 0
 395 0008 0023     		movs	r3, #0
 396 000a 0193     		str	r3, [sp, #4]
  73:Middlewares/Third_Party/wakaama/objects.c ****     if (NULL == targetP) return COAP_404_NOT_FOUND;
 397              		.loc 1 73 0
 398 000c 4988     		ldrh	r1, [r1, #2]
 399              	.LVL37:
 400 000e 8069     		ldr	r0, [r0, #24]
 401              	.LVL38:
 402 0010 FFF7FEFF 		bl	lwm2m_list_find
 403              	.LVL39:
  74:Middlewares/Third_Party/wakaama/objects.c ****     if (NULL == targetP->readFunc) return COAP_405_METHOD_NOT_ALLOWED;
 404              		.loc 1 74 0
 405 0014 0028     		cmp	r0, #0
 406 0016 30D0     		beq	.L33
 407 0018 0546     		mov	r5, r0
  75:Middlewares/Third_Party/wakaama/objects.c **** 
 408              		.loc 1 75 0
 409 001a C368     		ldr	r3, [r0, #12]
 410 001c 7BB3     		cbz	r3, .L34
  77:Middlewares/Third_Party/wakaama/objects.c **** 
 411              		.loc 1 77 0
 412 001e 2378     		ldrb	r3, [r4]	@ zero_extendqisi2
 413 0020 13F0020F 		tst	r3, #2
 414 0024 2DD0     		beq	.L35
  79:Middlewares/Third_Party/wakaama/objects.c **** 
 415              		.loc 1 79 0
 416 0026 A188     		ldrh	r1, [r4, #4]
 417 0028 8068     		ldr	r0, [r0, #8]
 418              	.LVL40:
 419 002a FFF7FEFF 		bl	lwm2m_list_find
 420              	.LVL41:
 421 002e 60B3     		cbz	r0, .L36
  81:Middlewares/Third_Party/wakaama/objects.c **** 
 422              		.loc 1 81 0
 423 0030 2378     		ldrb	r3, [r4]	@ zero_extendqisi2
 424 0032 13F0010F 		tst	r3, #1
 425 0036 2AD0     		beq	.L37
  83:Middlewares/Third_Party/wakaama/objects.c ****     dataP = lwm2m_data_new(1);
 426              		.loc 1 83 0
 427 0038 0120     		movs	r0, #1
 428 003a 0090     		str	r0, [sp]
  84:Middlewares/Third_Party/wakaama/objects.c ****     if (dataP == NULL) return COAP_500_INTERNAL_SERVER_ERROR;
 429              		.loc 1 84 0
 430 003c FFF7FEFF 		bl	lwm2m_data_new
 431              	.LVL42:
 432 0040 0190     		str	r0, [sp, #4]
  85:Middlewares/Third_Party/wakaama/objects.c **** 
 433              		.loc 1 85 0
 434 0042 30B3     		cbz	r0, .L38
  87:Middlewares/Third_Party/wakaama/objects.c **** 
 435              		.loc 1 87 0
 436 0044 E388     		ldrh	r3, [r4, #6]
 437 0046 4380     		strh	r3, [r0, #2]	@ movhi
  89:Middlewares/Third_Party/wakaama/objects.c ****     if (result == COAP_205_CONTENT)
ARM GAS  /var/folders/0d/93p3r6493yg7p0rvl_4r983m0000gn/T//ccOiaSyY.s 			page 22


 438              		.loc 1 89 0
 439 0048 EF68     		ldr	r7, [r5, #12]
 440 004a 2B46     		mov	r3, r5
 441 004c 01AA     		add	r2, sp, #4
 442 004e 6946     		mov	r1, sp
 443 0050 A088     		ldrh	r0, [r4, #4]
 444 0052 B847     		blx	r7
 445              	.LVL43:
 446 0054 0446     		mov	r4, r0
 447              	.LVL44:
  90:Middlewares/Third_Party/wakaama/objects.c ****     {
 448              		.loc 1 90 0
 449 0056 4528     		cmp	r0, #69
 450 0058 04D0     		beq	.L41
 451              	.L31:
 452              	.LVL45:
 104:Middlewares/Third_Party/wakaama/objects.c ****     return result;
 453              		.loc 1 104 0
 454 005a 0199     		ldr	r1, [sp, #4]
 455 005c 0120     		movs	r0, #1
 456 005e FFF7FEFF 		bl	lwm2m_data_free
 457              	.LVL46:
 105:Middlewares/Third_Party/wakaama/objects.c **** }
 458              		.loc 1 105 0
 459 0062 0FE0     		b	.L30
 460              	.LVL47:
 461              	.L41:
  92:Middlewares/Third_Party/wakaama/objects.c ****         {
 462              		.loc 1 92 0
 463 0064 3378     		ldrb	r3, [r6]	@ zero_extendqisi2
 464 0066 13F01C0F 		tst	r3, #28
 465 006a F6D0     		beq	.L31
  94:Middlewares/Third_Party/wakaama/objects.c ****             {
 466              		.loc 1 94 0
 467 006c 019B     		ldr	r3, [sp, #4]
 468 006e 1B78     		ldrb	r3, [r3]	@ zero_extendqisi2
 469 0070 063B     		subs	r3, r3, #6
 470 0072 012B     		cmp	r3, #1
 471 0074 F1D9     		bls	.L31
 100:Middlewares/Third_Party/wakaama/objects.c ****             }
 472              		.loc 1 100 0
 473 0076 8524     		movs	r4, #133
 474 0078 EFE7     		b	.L31
 475              	.LVL48:
 476              	.L33:
  74:Middlewares/Third_Party/wakaama/objects.c ****     if (NULL == targetP->readFunc) return COAP_405_METHOD_NOT_ALLOWED;
 477              		.loc 1 74 0
 478 007a 8424     		movs	r4, #132
 479              	.LVL49:
 480 007c 02E0     		b	.L30
 481              	.LVL50:
 482              	.L34:
  75:Middlewares/Third_Party/wakaama/objects.c **** 
 483              		.loc 1 75 0
 484 007e 8524     		movs	r4, #133
 485              	.LVL51:
 486 0080 00E0     		b	.L30
ARM GAS  /var/folders/0d/93p3r6493yg7p0rvl_4r983m0000gn/T//ccOiaSyY.s 			page 23


 487              	.LVL52:
 488              	.L35:
  77:Middlewares/Third_Party/wakaama/objects.c **** 
 489              		.loc 1 77 0
 490 0082 4524     		movs	r4, #69
 491              	.LVL53:
 492              	.L30:
 106:Middlewares/Third_Party/wakaama/objects.c **** 
 493              		.loc 1 106 0
 494 0084 2046     		mov	r0, r4
 495 0086 03B0     		add	sp, sp, #12
 496              	.LCFI13:
 497              		.cfi_remember_state
 498              		.cfi_def_cfa_offset 20
 499              		@ sp needed
 500 0088 F0BD     		pop	{r4, r5, r6, r7, pc}
 501              	.LVL54:
 502              	.L36:
 503              	.LCFI14:
 504              		.cfi_restore_state
  79:Middlewares/Third_Party/wakaama/objects.c **** 
 505              		.loc 1 79 0
 506 008a 8424     		movs	r4, #132
 507              	.LVL55:
 508 008c FAE7     		b	.L30
 509              	.LVL56:
 510              	.L37:
  81:Middlewares/Third_Party/wakaama/objects.c **** 
 511              		.loc 1 81 0
 512 008e 4524     		movs	r4, #69
 513              	.LVL57:
 514 0090 F8E7     		b	.L30
 515              	.LVL58:
 516              	.L38:
  85:Middlewares/Third_Party/wakaama/objects.c **** 
 517              		.loc 1 85 0
 518 0092 A024     		movs	r4, #160
 519              	.LVL59:
 520 0094 F6E7     		b	.L30
 521              		.cfi_endproc
 522              	.LFE3:
 524              		.section	.text.object_readData,"ax",%progbits
 525              		.align	1
 526              		.global	object_readData
 527              		.syntax unified
 528              		.thumb
 529              		.thumb_func
 530              		.fpu fpv4-sp-d16
 532              	object_readData:
 533              	.LFB4:
 112:Middlewares/Third_Party/wakaama/objects.c ****     uint8_t result;
 534              		.loc 1 112 0
 535              		.cfi_startproc
 536              		@ args = 0, pretend = 0, frame = 0
 537              		@ frame_needed = 0, uses_anonymous_args = 0
 538              	.LVL60:
 539 0000 2DE9F843 		push	{r3, r4, r5, r6, r7, r8, r9, lr}
ARM GAS  /var/folders/0d/93p3r6493yg7p0rvl_4r983m0000gn/T//ccOiaSyY.s 			page 24


 540              	.LCFI15:
 541              		.cfi_def_cfa_offset 32
 542              		.cfi_offset 3, -32
 543              		.cfi_offset 4, -28
 544              		.cfi_offset 5, -24
 545              		.cfi_offset 6, -20
 546              		.cfi_offset 7, -16
 547              		.cfi_offset 8, -12
 548              		.cfi_offset 9, -8
 549              		.cfi_offset 14, -4
 550 0004 0F46     		mov	r7, r1
 551 0006 1446     		mov	r4, r2
 552 0008 1E46     		mov	r6, r3
 117:Middlewares/Third_Party/wakaama/objects.c ****     if (NULL == targetP) return COAP_404_NOT_FOUND;
 553              		.loc 1 117 0
 554 000a 4988     		ldrh	r1, [r1, #2]
 555              	.LVL61:
 556 000c 8069     		ldr	r0, [r0, #24]
 557              	.LVL62:
 558 000e FFF7FEFF 		bl	lwm2m_list_find
 559              	.LVL63:
 118:Middlewares/Third_Party/wakaama/objects.c ****     if (NULL == targetP->readFunc) return COAP_405_METHOD_NOT_ALLOWED;
 560              		.loc 1 118 0
 561 0012 0028     		cmp	r0, #0
 562 0014 58D0     		beq	.L51
 563 0016 0546     		mov	r5, r0
 119:Middlewares/Third_Party/wakaama/objects.c **** 
 564              		.loc 1 119 0
 565 0018 C368     		ldr	r3, [r0, #12]
 566 001a 002B     		cmp	r3, #0
 567 001c 56D0     		beq	.L52
 121:Middlewares/Third_Party/wakaama/objects.c ****     {
 568              		.loc 1 121 0
 569 001e 3B78     		ldrb	r3, [r7]	@ zero_extendqisi2
 570 0020 13F0020F 		tst	r3, #2
 571 0024 03D1     		bne	.L57
 572              	.LVL64:
 573              	.LBB5:
 145:Middlewares/Third_Party/wakaama/objects.c ****         for (instanceP = targetP->instanceList; instanceP != NULL ; instanceP = instanceP->next)
 574              		.loc 1 145 0
 575 0026 0023     		movs	r3, #0
 576 0028 2360     		str	r3, [r4]
 146:Middlewares/Third_Party/wakaama/objects.c ****         {
 577              		.loc 1 146 0
 578 002a 8268     		ldr	r2, [r0, #8]
 579              	.LVL65:
 580 002c 1FE0     		b	.L46
 581              	.LVL66:
 582              	.L57:
 583              	.LBE5:
 123:Middlewares/Third_Party/wakaama/objects.c **** 
 584              		.loc 1 123 0
 585 002e B988     		ldrh	r1, [r7, #4]
 586 0030 8068     		ldr	r0, [r0, #8]
 587              	.LVL67:
 588 0032 FFF7FEFF 		bl	lwm2m_list_find
 589              	.LVL68:
ARM GAS  /var/folders/0d/93p3r6493yg7p0rvl_4r983m0000gn/T//ccOiaSyY.s 			page 25


 590 0036 0028     		cmp	r0, #0
 591 0038 4AD0     		beq	.L53
 126:Middlewares/Third_Party/wakaama/objects.c ****         {
 592              		.loc 1 126 0
 593 003a 3B78     		ldrb	r3, [r7]	@ zero_extendqisi2
 594 003c 13F0010F 		tst	r3, #1
 595 0040 07D1     		bne	.L58
 596              	.L45:
 135:Middlewares/Third_Party/wakaama/objects.c ****     }
 597              		.loc 1 135 0
 598 0042 D5F80C80 		ldr	r8, [r5, #12]
 599 0046 2B46     		mov	r3, r5
 600 0048 3246     		mov	r2, r6
 601 004a 2146     		mov	r1, r4
 602 004c B888     		ldrh	r0, [r7, #4]
 603 004e C047     		blx	r8
 604              	.LVL69:
 605 0050 1DE0     		b	.L43
 606              	.LVL70:
 607              	.L58:
 128:Middlewares/Third_Party/wakaama/objects.c ****             *dataP = lwm2m_data_new(*sizeP);
 608              		.loc 1 128 0
 609 0052 0120     		movs	r0, #1
 610 0054 2060     		str	r0, [r4]
 129:Middlewares/Third_Party/wakaama/objects.c ****             if (*dataP == NULL) return COAP_500_INTERNAL_SERVER_ERROR;
 611              		.loc 1 129 0
 612 0056 FFF7FEFF 		bl	lwm2m_data_new
 613              	.LVL71:
 614 005a 3060     		str	r0, [r6]
 130:Middlewares/Third_Party/wakaama/objects.c **** 
 615              		.loc 1 130 0
 616 005c 0028     		cmp	r0, #0
 617 005e 39D0     		beq	.L54
 132:Middlewares/Third_Party/wakaama/objects.c ****         }
 618              		.loc 1 132 0
 619 0060 FB88     		ldrh	r3, [r7, #6]
 620 0062 4380     		strh	r3, [r0, #2]	@ movhi
 621 0064 EDE7     		b	.L45
 622              	.LVL72:
 623              	.L47:
 624              	.LBB6:
 148:Middlewares/Third_Party/wakaama/objects.c ****         }
 625              		.loc 1 148 0 discriminator 3
 626 0066 2368     		ldr	r3, [r4]
 627 0068 0133     		adds	r3, r3, #1
 628 006a 2360     		str	r3, [r4]
 146:Middlewares/Third_Party/wakaama/objects.c ****         {
 629              		.loc 1 146 0 discriminator 3
 630 006c 1268     		ldr	r2, [r2]
 631              	.LVL73:
 632              	.L46:
 146:Middlewares/Third_Party/wakaama/objects.c ****         {
 633              		.loc 1 146 0 is_stmt 0 discriminator 1
 634 006e 002A     		cmp	r2, #0
 635 0070 F9D1     		bne	.L47
 151:Middlewares/Third_Party/wakaama/objects.c ****         {
 636              		.loc 1 151 0 is_stmt 1
ARM GAS  /var/folders/0d/93p3r6493yg7p0rvl_4r983m0000gn/T//ccOiaSyY.s 			page 26


 637 0072 2068     		ldr	r0, [r4]
 638              	.LVL74:
 639 0074 40B1     		cbz	r0, .L59
 157:Middlewares/Third_Party/wakaama/objects.c ****             if (*dataP == NULL) return COAP_500_INTERNAL_SERVER_ERROR;
 640              		.loc 1 157 0
 641 0076 FFF7FEFF 		bl	lwm2m_data_new
 642              	.LVL75:
 643 007a 3060     		str	r0, [r6]
 158:Middlewares/Third_Party/wakaama/objects.c **** 
 644              		.loc 1 158 0
 645 007c 60B3     		cbz	r0, .L55
 160:Middlewares/Third_Party/wakaama/objects.c ****             i = 0;
 646              		.loc 1 160 0
 647 007e AC68     		ldr	r4, [r5, #8]
 648              	.LVL76:
 161:Middlewares/Third_Party/wakaama/objects.c ****             while (instanceP != NULL && result == COAP_205_CONTENT)
 649              		.loc 1 161 0
 650 0080 4FF00009 		mov	r9, #0
 143:Middlewares/Third_Party/wakaama/objects.c **** 
 651              		.loc 1 143 0
 652 0084 4520     		movs	r0, #69
 162:Middlewares/Third_Party/wakaama/objects.c ****             {
 653              		.loc 1 162 0
 654 0086 1AE0     		b	.L49
 655              	.LVL77:
 656              	.L59:
 153:Middlewares/Third_Party/wakaama/objects.c ****         }
 657              		.loc 1 153 0
 658 0088 0023     		movs	r3, #0
 659 008a 3360     		str	r3, [r6]
 143:Middlewares/Third_Party/wakaama/objects.c **** 
 660              		.loc 1 143 0
 661 008c 4520     		movs	r0, #69
 662              	.LVL78:
 663              	.L43:
 664              	.LBE6:
 175:Middlewares/Third_Party/wakaama/objects.c **** 
 665              		.loc 1 175 0
 666 008e BDE8F883 		pop	{r3, r4, r5, r6, r7, r8, r9, pc}
 667              	.LVL79:
 668              	.L50:
 669              	.LBB7:
 164:Middlewares/Third_Party/wakaama/objects.c ****                 (*dataP)[i].type = LWM2M_TYPE_OBJECT_INSTANCE;
 670              		.loc 1 164 0
 671 0092 EF68     		ldr	r7, [r5, #12]
 672 0094 3168     		ldr	r1, [r6]
 673 0096 4FEA0918 		lsl	r8, r9, #4
 674 009a 4144     		add	r1, r1, r8
 675 009c 2B46     		mov	r3, r5
 676 009e 01F10C02 		add	r2, r1, #12
 677 00a2 0831     		adds	r1, r1, #8
 678 00a4 A088     		ldrh	r0, [r4, #4]
 679              	.LVL80:
 680 00a6 B847     		blx	r7
 681              	.LVL81:
 165:Middlewares/Third_Party/wakaama/objects.c ****                 (*dataP)[i].id = instanceP->id;
 682              		.loc 1 165 0
ARM GAS  /var/folders/0d/93p3r6493yg7p0rvl_4r983m0000gn/T//ccOiaSyY.s 			page 27


 683 00a8 3368     		ldr	r3, [r6]
 684 00aa 0222     		movs	r2, #2
 685 00ac 03F80820 		strb	r2, [r3, r8]
 166:Middlewares/Third_Party/wakaama/objects.c ****                 i++;
 686              		.loc 1 166 0
 687 00b0 3368     		ldr	r3, [r6]
 688 00b2 4344     		add	r3, r3, r8
 689 00b4 A288     		ldrh	r2, [r4, #4]
 690 00b6 5A80     		strh	r2, [r3, #2]	@ movhi
 167:Middlewares/Third_Party/wakaama/objects.c ****                 instanceP = instanceP->next;
 691              		.loc 1 167 0
 692 00b8 09F10109 		add	r9, r9, #1
 693              	.LVL82:
 168:Middlewares/Third_Party/wakaama/objects.c ****             }
 694              		.loc 1 168 0
 695 00bc 2468     		ldr	r4, [r4]
 696              	.LVL83:
 697              	.L49:
 162:Middlewares/Third_Party/wakaama/objects.c ****             {
 698              		.loc 1 162 0
 699 00be 002C     		cmp	r4, #0
 700 00c0 E5D0     		beq	.L43
 162:Middlewares/Third_Party/wakaama/objects.c ****             {
 701              		.loc 1 162 0 is_stmt 0 discriminator 1
 702 00c2 4528     		cmp	r0, #69
 703 00c4 E5D0     		beq	.L50
 704 00c6 E2E7     		b	.L43
 705              	.LVL84:
 706              	.L51:
 707              	.LBE7:
 118:Middlewares/Third_Party/wakaama/objects.c ****     if (NULL == targetP->readFunc) return COAP_405_METHOD_NOT_ALLOWED;
 708              		.loc 1 118 0 is_stmt 1
 709 00c8 8420     		movs	r0, #132
 710              	.LVL85:
 711 00ca E0E7     		b	.L43
 712              	.LVL86:
 713              	.L52:
 119:Middlewares/Third_Party/wakaama/objects.c **** 
 714              		.loc 1 119 0
 715 00cc 8520     		movs	r0, #133
 716              	.LVL87:
 717 00ce DEE7     		b	.L43
 718              	.L53:
 123:Middlewares/Third_Party/wakaama/objects.c **** 
 719              		.loc 1 123 0
 720 00d0 8420     		movs	r0, #132
 721 00d2 DCE7     		b	.L43
 722              	.L54:
 130:Middlewares/Third_Party/wakaama/objects.c **** 
 723              		.loc 1 130 0
 724 00d4 A020     		movs	r0, #160
 725 00d6 DAE7     		b	.L43
 726              	.LVL88:
 727              	.L55:
 728              	.LBB8:
 158:Middlewares/Third_Party/wakaama/objects.c **** 
 729              		.loc 1 158 0
ARM GAS  /var/folders/0d/93p3r6493yg7p0rvl_4r983m0000gn/T//ccOiaSyY.s 			page 28


 730 00d8 A020     		movs	r0, #160
 731 00da D8E7     		b	.L43
 732              	.LBE8:
 733              		.cfi_endproc
 734              	.LFE4:
 736              		.section	.text.object_read,"ax",%progbits
 737              		.align	1
 738              		.global	object_read
 739              		.syntax unified
 740              		.thumb
 741              		.thumb_func
 742              		.fpu fpv4-sp-d16
 744              	object_read:
 745              	.LFB5:
 182:Middlewares/Third_Party/wakaama/objects.c ****     uint8_t result;
 746              		.loc 1 182 0
 747              		.cfi_startproc
 748              		@ args = 4, pretend = 0, frame = 8
 749              		@ frame_needed = 0, uses_anonymous_args = 0
 750              	.LVL89:
 751 0000 F0B5     		push	{r4, r5, r6, r7, lr}
 752              	.LCFI16:
 753              		.cfi_def_cfa_offset 20
 754              		.cfi_offset 4, -20
 755              		.cfi_offset 5, -16
 756              		.cfi_offset 6, -12
 757              		.cfi_offset 7, -8
 758              		.cfi_offset 14, -4
 759 0002 85B0     		sub	sp, sp, #20
 760              	.LCFI17:
 761              		.cfi_def_cfa_offset 40
 762 0004 0D46     		mov	r5, r1
 763 0006 1646     		mov	r6, r2
 764 0008 1F46     		mov	r7, r3
 184:Middlewares/Third_Party/wakaama/objects.c ****     int size = 0;
 765              		.loc 1 184 0
 766 000a 0023     		movs	r3, #0
 767              	.LVL90:
 768 000c 0393     		str	r3, [sp, #12]
 185:Middlewares/Third_Party/wakaama/objects.c ****     int res;
 769              		.loc 1 185 0
 770 000e 0293     		str	r3, [sp, #8]
 189:Middlewares/Third_Party/wakaama/objects.c **** 
 771              		.loc 1 189 0
 772 0010 03AB     		add	r3, sp, #12
 773 0012 02AA     		add	r2, sp, #8
 774              	.LVL91:
 775 0014 FFF7FEFF 		bl	object_readData
 776              	.LVL92:
 777 0018 0446     		mov	r4, r0
 778              	.LVL93:
 191:Middlewares/Third_Party/wakaama/objects.c ****     {
 779              		.loc 1 191 0
 780 001a 4528     		cmp	r0, #69
 781 001c 06D0     		beq	.L64
 782              	.LVL94:
 783              	.L61:
ARM GAS  /var/folders/0d/93p3r6493yg7p0rvl_4r983m0000gn/T//ccOiaSyY.s 			page 29


 203:Middlewares/Third_Party/wakaama/objects.c **** 
 784              		.loc 1 203 0
 785 001e 0399     		ldr	r1, [sp, #12]
 786 0020 0298     		ldr	r0, [sp, #8]
 787 0022 FFF7FEFF 		bl	lwm2m_data_free
 788              	.LVL95:
 208:Middlewares/Third_Party/wakaama/objects.c **** 
 789              		.loc 1 208 0
 790 0026 2046     		mov	r0, r4
 791 0028 05B0     		add	sp, sp, #20
 792              	.LCFI18:
 793              		.cfi_remember_state
 794              		.cfi_def_cfa_offset 20
 795              		@ sp needed
 796 002a F0BD     		pop	{r4, r5, r6, r7, pc}
 797              	.LVL96:
 798              	.L64:
 799              	.LCFI19:
 800              		.cfi_restore_state
 193:Middlewares/Third_Party/wakaama/objects.c ****         if (res < 0)
 801              		.loc 1 193 0
 802 002c 0097     		str	r7, [sp]
 803 002e 3346     		mov	r3, r6
 804 0030 039A     		ldr	r2, [sp, #12]
 805 0032 0299     		ldr	r1, [sp, #8]
 806 0034 2846     		mov	r0, r5
 807              	.LVL97:
 808 0036 FFF7FEFF 		bl	lwm2m_data_serialize
 809              	.LVL98:
 194:Middlewares/Third_Party/wakaama/objects.c ****         {
 810              		.loc 1 194 0
 811 003a 0028     		cmp	r0, #0
 812 003c 02DB     		blt	.L62
 200:Middlewares/Third_Party/wakaama/objects.c ****         }
 813              		.loc 1 200 0
 814 003e 0A9B     		ldr	r3, [sp, #40]
 815 0040 1860     		str	r0, [r3]
 816 0042 ECE7     		b	.L61
 817              	.L62:
 196:Middlewares/Third_Party/wakaama/objects.c ****         }
 818              		.loc 1 196 0
 819 0044 A024     		movs	r4, #160
 820 0046 EAE7     		b	.L61
 821              		.cfi_endproc
 822              	.LFE5:
 824              		.section	.text.object_write,"ax",%progbits
 825              		.align	1
 826              		.global	object_write
 827              		.syntax unified
 828              		.thumb
 829              		.thumb_func
 830              		.fpu fpv4-sp-d16
 832              	object_write:
 833              	.LFB6:
 215:Middlewares/Third_Party/wakaama/objects.c ****     uint8_t result = NO_ERROR;
 834              		.loc 1 215 0
 835              		.cfi_startproc
ARM GAS  /var/folders/0d/93p3r6493yg7p0rvl_4r983m0000gn/T//ccOiaSyY.s 			page 30


 836              		@ args = 4, pretend = 0, frame = 8
 837              		@ frame_needed = 0, uses_anonymous_args = 0
 838              	.LVL99:
 839 0000 F0B5     		push	{r4, r5, r6, r7, lr}
 840              	.LCFI20:
 841              		.cfi_def_cfa_offset 20
 842              		.cfi_offset 4, -20
 843              		.cfi_offset 5, -16
 844              		.cfi_offset 6, -12
 845              		.cfi_offset 7, -8
 846              		.cfi_offset 14, -4
 847 0002 85B0     		sub	sp, sp, #20
 848              	.LCFI21:
 849              		.cfi_def_cfa_offset 40
 850 0004 0C46     		mov	r4, r1
 851 0006 1746     		mov	r7, r2
 852 0008 1E46     		mov	r6, r3
 853              	.LVL100:
 218:Middlewares/Third_Party/wakaama/objects.c ****     int size = 0;
 854              		.loc 1 218 0
 855 000a 0023     		movs	r3, #0
 856              	.LVL101:
 857 000c 0393     		str	r3, [sp, #12]
 858              	.LVL102:
 222:Middlewares/Third_Party/wakaama/objects.c ****     if (NULL == targetP)
 859              		.loc 1 222 0
 860 000e 4988     		ldrh	r1, [r1, #2]
 861              	.LVL103:
 862 0010 8069     		ldr	r0, [r0, #24]
 863              	.LVL104:
 864 0012 FFF7FEFF 		bl	lwm2m_list_find
 865              	.LVL105:
 223:Middlewares/Third_Party/wakaama/objects.c ****     {
 866              		.loc 1 223 0
 867 0016 D0B1     		cbz	r0, .L67
 868 0018 0546     		mov	r5, r0
 227:Middlewares/Third_Party/wakaama/objects.c ****     {
 869              		.loc 1 227 0
 870 001a 0369     		ldr	r3, [r0, #16]
 871 001c CBB1     		cbz	r3, .L68
 233:Middlewares/Third_Party/wakaama/objects.c ****         if (size == 0)
 872              		.loc 1 233 0
 873 001e 03AB     		add	r3, sp, #12
 874 0020 0093     		str	r3, [sp]
 875 0022 3B46     		mov	r3, r7
 876 0024 0A9A     		ldr	r2, [sp, #40]
 877 0026 3146     		mov	r1, r6
 878 0028 2046     		mov	r0, r4
 879              	.LVL106:
 880 002a FFF7FEFF 		bl	lwm2m_data_parse
 881              	.LVL107:
 234:Middlewares/Third_Party/wakaama/objects.c ****         {
 882              		.loc 1 234 0
 883 002e 0646     		mov	r6, r0
 884              	.LVL108:
 885 0030 88B1     		cbz	r0, .L69
 241:Middlewares/Third_Party/wakaama/objects.c ****         lwm2m_data_free(size, dataP);
ARM GAS  /var/folders/0d/93p3r6493yg7p0rvl_4r983m0000gn/T//ccOiaSyY.s 			page 31


 886              		.loc 1 241 0
 887 0032 2F69     		ldr	r7, [r5, #16]
 888 0034 2B46     		mov	r3, r5
 889 0036 039A     		ldr	r2, [sp, #12]
 890 0038 0146     		mov	r1, r0
 891 003a A088     		ldrh	r0, [r4, #4]
 892              	.LVL109:
 893 003c B847     		blx	r7
 894              	.LVL110:
 895 003e 0446     		mov	r4, r0
 896              	.LVL111:
 242:Middlewares/Third_Party/wakaama/objects.c ****     }
 897              		.loc 1 242 0
 898 0040 0399     		ldr	r1, [sp, #12]
 899 0042 3046     		mov	r0, r6
 900 0044 FFF7FEFF 		bl	lwm2m_data_free
 901              	.LVL112:
 902              	.L66:
 248:Middlewares/Third_Party/wakaama/objects.c **** 
 903              		.loc 1 248 0
 904 0048 2046     		mov	r0, r4
 905 004a 05B0     		add	sp, sp, #20
 906              	.LCFI22:
 907              		.cfi_remember_state
 908              		.cfi_def_cfa_offset 20
 909              		@ sp needed
 910 004c F0BD     		pop	{r4, r5, r6, r7, pc}
 911              	.LVL113:
 912              	.L67:
 913              	.LCFI23:
 914              		.cfi_restore_state
 225:Middlewares/Third_Party/wakaama/objects.c ****     }
 915              		.loc 1 225 0
 916 004e 8424     		movs	r4, #132
 917              	.LVL114:
 918 0050 FAE7     		b	.L66
 919              	.LVL115:
 920              	.L68:
 229:Middlewares/Third_Party/wakaama/objects.c ****     }
 921              		.loc 1 229 0
 922 0052 8524     		movs	r4, #133
 923              	.LVL116:
 924 0054 F8E7     		b	.L66
 925              	.LVL117:
 926              	.L69:
 236:Middlewares/Third_Party/wakaama/objects.c ****         }
 927              		.loc 1 236 0
 928 0056 8624     		movs	r4, #134
 929              	.LVL118:
 930 0058 F6E7     		b	.L66
 931              		.cfi_endproc
 932              	.LFE6:
 934              		.section	.text.object_execute,"ax",%progbits
 935              		.align	1
 936              		.global	object_execute
 937              		.syntax unified
 938              		.thumb
ARM GAS  /var/folders/0d/93p3r6493yg7p0rvl_4r983m0000gn/T//ccOiaSyY.s 			page 32


 939              		.thumb_func
 940              		.fpu fpv4-sp-d16
 942              	object_execute:
 943              	.LFB7:
 254:Middlewares/Third_Party/wakaama/objects.c ****     lwm2m_object_t * targetP;
 944              		.loc 1 254 0
 945              		.cfi_startproc
 946              		@ args = 0, pretend = 0, frame = 0
 947              		@ frame_needed = 0, uses_anonymous_args = 0
 948              	.LVL119:
 949 0000 2DE9F041 		push	{r4, r5, r6, r7, r8, lr}
 950              	.LCFI24:
 951              		.cfi_def_cfa_offset 24
 952              		.cfi_offset 4, -24
 953              		.cfi_offset 5, -20
 954              		.cfi_offset 6, -16
 955              		.cfi_offset 7, -12
 956              		.cfi_offset 8, -8
 957              		.cfi_offset 14, -4
 958 0004 82B0     		sub	sp, sp, #8
 959              	.LCFI25:
 960              		.cfi_def_cfa_offset 32
 961 0006 0C46     		mov	r4, r1
 962 0008 9046     		mov	r8, r2
 963 000a 1F46     		mov	r7, r3
 258:Middlewares/Third_Party/wakaama/objects.c ****     if (NULL == targetP) return COAP_404_NOT_FOUND;
 964              		.loc 1 258 0
 965 000c 4988     		ldrh	r1, [r1, #2]
 966              	.LVL120:
 967 000e 8069     		ldr	r0, [r0, #24]
 968              	.LVL121:
 969 0010 FFF7FEFF 		bl	lwm2m_list_find
 970              	.LVL122:
 259:Middlewares/Third_Party/wakaama/objects.c ****     if (NULL == targetP->executeFunc) return COAP_405_METHOD_NOT_ALLOWED;
 971              		.loc 1 259 0
 972 0014 88B1     		cbz	r0, .L73
 973 0016 0546     		mov	r5, r0
 260:Middlewares/Third_Party/wakaama/objects.c ****     if (NULL == lwm2m_list_find(targetP->instanceList, uriP->instanceId)) return COAP_404_NOT_FOUND
 974              		.loc 1 260 0
 975 0018 4369     		ldr	r3, [r0, #20]
 976 001a 83B1     		cbz	r3, .L74
 261:Middlewares/Third_Party/wakaama/objects.c **** 
 977              		.loc 1 261 0
 978 001c A188     		ldrh	r1, [r4, #4]
 979 001e 8068     		ldr	r0, [r0, #8]
 980              	.LVL123:
 981 0020 FFF7FEFF 		bl	lwm2m_list_find
 982              	.LVL124:
 983 0024 68B1     		cbz	r0, .L75
 263:Middlewares/Third_Party/wakaama/objects.c **** }
 984              		.loc 1 263 0
 985 0026 6E69     		ldr	r6, [r5, #20]
 986 0028 E188     		ldrh	r1, [r4, #6]
 987 002a A088     		ldrh	r0, [r4, #4]
 988 002c 0095     		str	r5, [sp]
 989 002e 3B46     		mov	r3, r7
 990 0030 4246     		mov	r2, r8
ARM GAS  /var/folders/0d/93p3r6493yg7p0rvl_4r983m0000gn/T//ccOiaSyY.s 			page 33


 991 0032 B047     		blx	r6
 992              	.LVL125:
 993              	.L72:
 264:Middlewares/Third_Party/wakaama/objects.c **** 
 994              		.loc 1 264 0
 995 0034 02B0     		add	sp, sp, #8
 996              	.LCFI26:
 997              		.cfi_remember_state
 998              		.cfi_def_cfa_offset 24
 999              		@ sp needed
 1000 0036 BDE8F081 		pop	{r4, r5, r6, r7, r8, pc}
 1001              	.LVL126:
 1002              	.L73:
 1003              	.LCFI27:
 1004              		.cfi_restore_state
 259:Middlewares/Third_Party/wakaama/objects.c ****     if (NULL == targetP->executeFunc) return COAP_405_METHOD_NOT_ALLOWED;
 1005              		.loc 1 259 0
 1006 003a 8420     		movs	r0, #132
 1007              	.LVL127:
 1008 003c FAE7     		b	.L72
 1009              	.LVL128:
 1010              	.L74:
 260:Middlewares/Third_Party/wakaama/objects.c ****     if (NULL == lwm2m_list_find(targetP->instanceList, uriP->instanceId)) return COAP_404_NOT_FOUND
 1011              		.loc 1 260 0
 1012 003e 8520     		movs	r0, #133
 1013              	.LVL129:
 1014 0040 F8E7     		b	.L72
 1015              	.L75:
 261:Middlewares/Third_Party/wakaama/objects.c **** 
 1016              		.loc 1 261 0
 1017 0042 8420     		movs	r0, #132
 1018 0044 F6E7     		b	.L72
 1019              		.cfi_endproc
 1020              	.LFE7:
 1022              		.section	.text.object_create,"ax",%progbits
 1023              		.align	1
 1024              		.global	object_create
 1025              		.syntax unified
 1026              		.thumb
 1027              		.thumb_func
 1028              		.fpu fpv4-sp-d16
 1030              	object_create:
 1031              	.LFB8:
 271:Middlewares/Third_Party/wakaama/objects.c ****     lwm2m_object_t * targetP;
 1032              		.loc 1 271 0
 1033              		.cfi_startproc
 1034              		@ args = 4, pretend = 0, frame = 8
 1035              		@ frame_needed = 0, uses_anonymous_args = 0
 1036              	.LVL130:
 1037 0000 2DE9F041 		push	{r4, r5, r6, r7, r8, lr}
 1038              	.LCFI28:
 1039              		.cfi_def_cfa_offset 24
 1040              		.cfi_offset 4, -24
 1041              		.cfi_offset 5, -20
 1042              		.cfi_offset 6, -16
 1043              		.cfi_offset 7, -12
 1044              		.cfi_offset 8, -8
ARM GAS  /var/folders/0d/93p3r6493yg7p0rvl_4r983m0000gn/T//ccOiaSyY.s 			page 34


 1045              		.cfi_offset 14, -4
 1046 0004 84B0     		sub	sp, sp, #16
 1047              	.LCFI29:
 1048              		.cfi_def_cfa_offset 40
 1049 0006 0A9D     		ldr	r5, [sp, #40]
 273:Middlewares/Third_Party/wakaama/objects.c ****     int size = 0;
 1050              		.loc 1 273 0
 1051 0008 0026     		movs	r6, #0
 1052 000a 0396     		str	r6, [sp, #12]
 1053              	.LVL131:
 279:Middlewares/Third_Party/wakaama/objects.c ****     {
 1054              		.loc 1 279 0
 1055 000c 002D     		cmp	r5, #0
 1056 000e 58D0     		beq	.L83
 279:Middlewares/Third_Party/wakaama/objects.c ****     {
 1057              		.loc 1 279 0 is_stmt 0 discriminator 1
 1058 0010 002B     		cmp	r3, #0
 1059 0012 5BD0     		beq	.L84
 1060 0014 1E46     		mov	r6, r3
 1061 0016 1746     		mov	r7, r2
 1062 0018 0C46     		mov	r4, r1
 284:Middlewares/Third_Party/wakaama/objects.c ****     if (NULL == targetP) return COAP_404_NOT_FOUND;
 1063              		.loc 1 284 0 is_stmt 1
 1064 001a 4988     		ldrh	r1, [r1, #2]
 1065              	.LVL132:
 1066 001c 8069     		ldr	r0, [r0, #24]
 1067              	.LVL133:
 1068 001e FFF7FEFF 		bl	lwm2m_list_find
 1069              	.LVL134:
 285:Middlewares/Third_Party/wakaama/objects.c ****     if (NULL == targetP->createFunc) return COAP_405_METHOD_NOT_ALLOWED;
 1070              		.loc 1 285 0
 1071 0022 8046     		mov	r8, r0
 1072 0024 0028     		cmp	r0, #0
 1073 0026 53D0     		beq	.L85
 286:Middlewares/Third_Party/wakaama/objects.c **** 
 1074              		.loc 1 286 0
 1075 0028 8369     		ldr	r3, [r0, #24]
 1076 002a 002B     		cmp	r3, #0
 1077 002c 52D0     		beq	.L86
 288:Middlewares/Third_Party/wakaama/objects.c ****     if (size <= 0) return COAP_400_BAD_REQUEST;
 1078              		.loc 1 288 0
 1079 002e 03AB     		add	r3, sp, #12
 1080 0030 0093     		str	r3, [sp]
 1081 0032 3B46     		mov	r3, r7
 1082 0034 2A46     		mov	r2, r5
 1083 0036 3146     		mov	r1, r6
 1084 0038 2046     		mov	r0, r4
 1085              	.LVL135:
 1086 003a FFF7FEFF 		bl	lwm2m_data_parse
 1087              	.LVL136:
 289:Middlewares/Third_Party/wakaama/objects.c **** 
 1088              		.loc 1 289 0
 1089 003e 061E     		subs	r6, r0, #0
 1090              	.LVL137:
 1091 0040 4ADD     		ble	.L87
 291:Middlewares/Third_Party/wakaama/objects.c ****     {
 1092              		.loc 1 291 0
ARM GAS  /var/folders/0d/93p3r6493yg7p0rvl_4r983m0000gn/T//ccOiaSyY.s 			page 35


 1093 0042 039A     		ldr	r2, [sp, #12]
 1094 0044 1378     		ldrb	r3, [r2]	@ zero_extendqisi2
 1095 0046 012B     		cmp	r3, #1
 1096 0048 37D0     		beq	.L88
 1097 004a 022B     		cmp	r3, #2
 1098 004c 1AD1     		bne	.L91
 298:Middlewares/Third_Party/wakaama/objects.c ****         {
 1099              		.loc 1 298 0
 1100 004e 012E     		cmp	r6, #1
 1101 0050 01D0     		beq	.L93
 300:Middlewares/Third_Party/wakaama/objects.c ****             goto exit;
 1102              		.loc 1 300 0
 1103 0052 8025     		movs	r5, #128
 1104 0054 22E0     		b	.L80
 1105              	.L93:
 303:Middlewares/Third_Party/wakaama/objects.c ****         {
 1106              		.loc 1 303 0
 1107 0056 5188     		ldrh	r1, [r2, #2]
 1108 0058 D8F80800 		ldr	r0, [r8, #8]
 1109              	.LVL138:
 1110 005c FFF7FEFF 		bl	lwm2m_list_find
 1111              	.LVL139:
 1112 0060 68BB     		cbnz	r0, .L90
 309:Middlewares/Third_Party/wakaama/objects.c ****         uriP->instanceId = dataP[0].id;
 1113              		.loc 1 309 0
 1114 0062 D8F81850 		ldr	r5, [r8, #24]
 1115 0066 0398     		ldr	r0, [sp, #12]
 1116 0068 4346     		mov	r3, r8
 1117 006a C268     		ldr	r2, [r0, #12]
 1118 006c 8168     		ldr	r1, [r0, #8]
 1119 006e 4088     		ldrh	r0, [r0, #2]
 1120 0070 A847     		blx	r5
 1121              	.LVL140:
 1122 0072 0546     		mov	r5, r0
 1123              	.LVL141:
 310:Middlewares/Third_Party/wakaama/objects.c ****         uriP->flag |= LWM2M_URI_FLAG_INSTANCE_ID;
 1124              		.loc 1 310 0
 1125 0074 039B     		ldr	r3, [sp, #12]
 1126 0076 5B88     		ldrh	r3, [r3, #2]
 1127 0078 A380     		strh	r3, [r4, #4]	@ movhi
 311:Middlewares/Third_Party/wakaama/objects.c ****         break;
 1128              		.loc 1 311 0
 1129 007a 2378     		ldrb	r3, [r4]	@ zero_extendqisi2
 1130 007c 43F00203 		orr	r3, r3, #2
 1131 0080 2370     		strb	r3, [r4]
 312:Middlewares/Third_Party/wakaama/objects.c **** 
 1132              		.loc 1 312 0
 1133 0082 0BE0     		b	.L80
 1134              	.LVL142:
 1135              	.L91:
 315:Middlewares/Third_Party/wakaama/objects.c ****         {
 1136              		.loc 1 315 0
 1137 0084 2378     		ldrb	r3, [r4]	@ zero_extendqisi2
 1138 0086 13F0020F 		tst	r3, #2
 1139 008a 0CD0     		beq	.L94
 1140              	.LVL143:
 1141              	.L82:
ARM GAS  /var/folders/0d/93p3r6493yg7p0rvl_4r983m0000gn/T//ccOiaSyY.s 			page 36


 320:Middlewares/Third_Party/wakaama/objects.c ****         break;
 1142              		.loc 1 320 0
 1143 008c D8F81850 		ldr	r5, [r8, #24]
 1144 0090 4346     		mov	r3, r8
 1145 0092 039A     		ldr	r2, [sp, #12]
 1146 0094 3146     		mov	r1, r6
 1147 0096 A088     		ldrh	r0, [r4, #4]
 1148 0098 A847     		blx	r5
 1149              	.LVL144:
 1150 009a 0546     		mov	r5, r0
 1151              	.LVL145:
 1152              	.L80:
 325:Middlewares/Third_Party/wakaama/objects.c **** 
 1153              		.loc 1 325 0
 1154 009c 0399     		ldr	r1, [sp, #12]
 1155 009e 3046     		mov	r0, r6
 1156 00a0 FFF7FEFF 		bl	lwm2m_data_free
 1157              	.LVL146:
 329:Middlewares/Third_Party/wakaama/objects.c **** }
 1158              		.loc 1 329 0
 1159 00a4 0EE0     		b	.L78
 1160              	.LVL147:
 1161              	.L94:
 317:Middlewares/Third_Party/wakaama/objects.c ****             uriP->flag |= LWM2M_URI_FLAG_INSTANCE_ID;
 1162              		.loc 1 317 0
 1163 00a6 D8F80800 		ldr	r0, [r8, #8]
 1164              	.LVL148:
 1165 00aa FFF7FEFF 		bl	lwm2m_list_newId
 1166              	.LVL149:
 1167 00ae A080     		strh	r0, [r4, #4]	@ movhi
 318:Middlewares/Third_Party/wakaama/objects.c ****         }
 1168              		.loc 1 318 0
 1169 00b0 2378     		ldrb	r3, [r4]	@ zero_extendqisi2
 1170 00b2 43F00203 		orr	r3, r3, #2
 1171 00b6 2370     		strb	r3, [r4]
 1172 00b8 E8E7     		b	.L82
 1173              	.LVL150:
 1174              	.L88:
 294:Middlewares/Third_Party/wakaama/objects.c ****         goto exit;
 1175              		.loc 1 294 0
 1176 00ba 8025     		movs	r5, #128
 1177 00bc EEE7     		b	.L80
 1178              	.LVL151:
 1179              	.L90:
 306:Middlewares/Third_Party/wakaama/objects.c ****             goto exit;
 1180              		.loc 1 306 0
 1181 00be 8625     		movs	r5, #134
 1182 00c0 ECE7     		b	.L80
 1183              	.LVL152:
 1184              	.L83:
 281:Middlewares/Third_Party/wakaama/objects.c ****     }
 1185              		.loc 1 281 0
 1186 00c2 8025     		movs	r5, #128
 1187              	.LVL153:
 1188              	.L78:
 330:Middlewares/Third_Party/wakaama/objects.c **** 
 1189              		.loc 1 330 0
ARM GAS  /var/folders/0d/93p3r6493yg7p0rvl_4r983m0000gn/T//ccOiaSyY.s 			page 37


 1190 00c4 2846     		mov	r0, r5
 1191 00c6 04B0     		add	sp, sp, #16
 1192              	.LCFI30:
 1193              		.cfi_remember_state
 1194              		.cfi_def_cfa_offset 24
 1195              		@ sp needed
 1196 00c8 BDE8F081 		pop	{r4, r5, r6, r7, r8, pc}
 1197              	.LVL154:
 1198              	.L84:
 1199              	.LCFI31:
 1200              		.cfi_restore_state
 281:Middlewares/Third_Party/wakaama/objects.c ****     }
 1201              		.loc 1 281 0
 1202 00cc 8025     		movs	r5, #128
 1203 00ce F9E7     		b	.L78
 1204              	.LVL155:
 1205              	.L85:
 285:Middlewares/Third_Party/wakaama/objects.c ****     if (NULL == targetP->createFunc) return COAP_405_METHOD_NOT_ALLOWED;
 1206              		.loc 1 285 0
 1207 00d0 8425     		movs	r5, #132
 1208 00d2 F7E7     		b	.L78
 1209              	.L86:
 286:Middlewares/Third_Party/wakaama/objects.c **** 
 1210              		.loc 1 286 0
 1211 00d4 8525     		movs	r5, #133
 1212 00d6 F5E7     		b	.L78
 1213              	.LVL156:
 1214              	.L87:
 289:Middlewares/Third_Party/wakaama/objects.c **** 
 1215              		.loc 1 289 0
 1216 00d8 8025     		movs	r5, #128
 1217 00da F3E7     		b	.L78
 1218              		.cfi_endproc
 1219              	.LFE8:
 1221              		.section	.text.object_delete,"ax",%progbits
 1222              		.align	1
 1223              		.global	object_delete
 1224              		.syntax unified
 1225              		.thumb
 1226              		.thumb_func
 1227              		.fpu fpv4-sp-d16
 1229              	object_delete:
 1230              	.LFB9:
 334:Middlewares/Third_Party/wakaama/objects.c ****     lwm2m_object_t * objectP;
 1231              		.loc 1 334 0
 1232              		.cfi_startproc
 1233              		@ args = 0, pretend = 0, frame = 0
 1234              		@ frame_needed = 0, uses_anonymous_args = 0
 1235              	.LVL157:
 1236 0000 F8B5     		push	{r3, r4, r5, r6, r7, lr}
 1237              	.LCFI32:
 1238              		.cfi_def_cfa_offset 24
 1239              		.cfi_offset 3, -24
 1240              		.cfi_offset 4, -20
 1241              		.cfi_offset 5, -16
 1242              		.cfi_offset 6, -12
 1243              		.cfi_offset 7, -8
ARM GAS  /var/folders/0d/93p3r6493yg7p0rvl_4r983m0000gn/T//ccOiaSyY.s 			page 38


 1244              		.cfi_offset 14, -4
 1245 0002 0746     		mov	r7, r0
 1246 0004 0C46     		mov	r4, r1
 339:Middlewares/Third_Party/wakaama/objects.c ****     if (NULL == objectP) return COAP_404_NOT_FOUND;
 1247              		.loc 1 339 0
 1248 0006 4988     		ldrh	r1, [r1, #2]
 1249              	.LVL158:
 1250 0008 8069     		ldr	r0, [r0, #24]
 1251              	.LVL159:
 1252 000a FFF7FEFF 		bl	lwm2m_list_find
 1253              	.LVL160:
 340:Middlewares/Third_Party/wakaama/objects.c ****     if (NULL == objectP->deleteFunc) return COAP_405_METHOD_NOT_ALLOWED;
 1254              		.loc 1 340 0
 1255 000e 0028     		cmp	r0, #0
 1256 0010 31D0     		beq	.L101
 1257 0012 0646     		mov	r6, r0
 341:Middlewares/Third_Party/wakaama/objects.c **** 
 1258              		.loc 1 341 0
 1259 0014 C369     		ldr	r3, [r0, #28]
 1260 0016 83B3     		cbz	r3, .L102
 345:Middlewares/Third_Party/wakaama/objects.c ****     {
 1261              		.loc 1 345 0
 1262 0018 2278     		ldrb	r2, [r4]	@ zero_extendqisi2
 1263 001a 12F0020F 		tst	r2, #2
 1264 001e 0CD0     		beq	.L97
 347:Middlewares/Third_Party/wakaama/objects.c ****         if (result == COAP_202_DELETED)
 1265              		.loc 1 347 0
 1266 0020 0146     		mov	r1, r0
 1267 0022 A088     		ldrh	r0, [r4, #4]
 1268              	.LVL161:
 1269 0024 9847     		blx	r3
 1270              	.LVL162:
 1271 0026 0546     		mov	r5, r0
 1272              	.LVL163:
 348:Middlewares/Third_Party/wakaama/objects.c ****         {
 1273              		.loc 1 348 0
 1274 0028 4228     		cmp	r0, #66
 1275 002a 01D0     		beq	.L104
 1276              	.LVL164:
 1277              	.L96:
 377:Middlewares/Third_Party/wakaama/objects.c **** 
 1278              		.loc 1 377 0
 1279 002c 2846     		mov	r0, r5
 1280 002e F8BD     		pop	{r3, r4, r5, r6, r7, pc}
 1281              	.LVL165:
 1282              	.L104:
 350:Middlewares/Third_Party/wakaama/objects.c ****         }
 1283              		.loc 1 350 0
 1284 0030 2146     		mov	r1, r4
 1285 0032 3846     		mov	r0, r7
 1286              	.LVL166:
 1287 0034 FFF7FEFF 		bl	observe_clear
 1288              	.LVL167:
 1289 0038 F8E7     		b	.L96
 1290              	.LVL168:
 1291              	.L97:
 1292              	.LBB9:
ARM GAS  /var/folders/0d/93p3r6493yg7p0rvl_4r983m0000gn/T//ccOiaSyY.s 			page 39


 358:Middlewares/Third_Party/wakaama/objects.c ****         while (NULL != instanceP
 1293              		.loc 1 358 0
 1294 003a 8368     		ldr	r3, [r0, #8]
 1295              	.LVL169:
 357:Middlewares/Third_Party/wakaama/objects.c ****         instanceP = objectP->instanceList;
 1296              		.loc 1 357 0
 1297 003c 4225     		movs	r5, #66
 359:Middlewares/Third_Party/wakaama/objects.c ****             && result == COAP_202_DELETED)
 1298              		.loc 1 359 0
 1299 003e 00E0     		b	.L98
 1300              	.LVL170:
 1301              	.L99:
 370:Middlewares/Third_Party/wakaama/objects.c ****         }
 1302              		.loc 1 370 0
 1303 0040 B368     		ldr	r3, [r6, #8]
 1304              	.LVL171:
 1305              	.L98:
 359:Middlewares/Third_Party/wakaama/objects.c ****             && result == COAP_202_DELETED)
 1306              		.loc 1 359 0
 1307 0042 002B     		cmp	r3, #0
 1308 0044 F2D0     		beq	.L96
 360:Middlewares/Third_Party/wakaama/objects.c ****         {
 1309              		.loc 1 360 0
 1310 0046 422D     		cmp	r5, #66
 1311 0048 F0D1     		bne	.L96
 362:Middlewares/Third_Party/wakaama/objects.c ****             result = objectP->deleteFunc(instanceP->id, objectP);
 1312              		.loc 1 362 0
 1313 004a 9A88     		ldrh	r2, [r3, #4]
 1314 004c A280     		strh	r2, [r4, #4]	@ movhi
 363:Middlewares/Third_Party/wakaama/objects.c ****             if (result == COAP_202_DELETED)
 1315              		.loc 1 363 0
 1316 004e F269     		ldr	r2, [r6, #28]
 1317 0050 3146     		mov	r1, r6
 1318 0052 9888     		ldrh	r0, [r3, #4]
 1319 0054 9047     		blx	r2
 1320              	.LVL172:
 1321 0056 0546     		mov	r5, r0
 1322              	.LVL173:
 364:Middlewares/Third_Party/wakaama/objects.c ****             {
 1323              		.loc 1 364 0
 1324 0058 4228     		cmp	r0, #66
 1325 005a F1D1     		bne	.L99
 366:Middlewares/Third_Party/wakaama/objects.c ****                 observe_clear(contextP, uriP);
 1326              		.loc 1 366 0
 1327 005c 2378     		ldrb	r3, [r4]	@ zero_extendqisi2
 1328 005e 43F00203 		orr	r3, r3, #2
 1329 0062 2370     		strb	r3, [r4]
 367:Middlewares/Third_Party/wakaama/objects.c ****                 uriP->flag &= ~LWM2M_URI_FLAG_INSTANCE_ID;
 1330              		.loc 1 367 0
 1331 0064 2146     		mov	r1, r4
 1332 0066 3846     		mov	r0, r7
 1333              	.LVL174:
 1334 0068 FFF7FEFF 		bl	observe_clear
 1335              	.LVL175:
 368:Middlewares/Third_Party/wakaama/objects.c ****             }
 1336              		.loc 1 368 0
 1337 006c 2378     		ldrb	r3, [r4]	@ zero_extendqisi2
ARM GAS  /var/folders/0d/93p3r6493yg7p0rvl_4r983m0000gn/T//ccOiaSyY.s 			page 40


 1338 006e 23F00203 		bic	r3, r3, #2
 1339 0072 2370     		strb	r3, [r4]
 1340 0074 E4E7     		b	.L99
 1341              	.LVL176:
 1342              	.L101:
 1343              	.LBE9:
 340:Middlewares/Third_Party/wakaama/objects.c ****     if (NULL == objectP->deleteFunc) return COAP_405_METHOD_NOT_ALLOWED;
 1344              		.loc 1 340 0
 1345 0076 8425     		movs	r5, #132
 1346 0078 D8E7     		b	.L96
 1347              	.L102:
 341:Middlewares/Third_Party/wakaama/objects.c **** 
 1348              		.loc 1 341 0
 1349 007a 8525     		movs	r5, #133
 1350 007c D6E7     		b	.L96
 1351              		.cfi_endproc
 1352              	.LFE9:
 1354              		.section	.text.object_discover,"ax",%progbits
 1355              		.align	1
 1356              		.global	object_discover
 1357              		.syntax unified
 1358              		.thumb
 1359              		.thumb_func
 1360              		.fpu fpv4-sp-d16
 1362              	object_discover:
 1363              	.LFB10:
 384:Middlewares/Third_Party/wakaama/objects.c ****     uint8_t result;
 1364              		.loc 1 384 0
 1365              		.cfi_startproc
 1366              		@ args = 4, pretend = 0, frame = 16
 1367              		@ frame_needed = 0, uses_anonymous_args = 0
 1368              	.LVL177:
 1369 0000 2DE9F04F 		push	{r4, r5, r6, r7, r8, r9, r10, fp, lr}
 1370              	.LCFI33:
 1371              		.cfi_def_cfa_offset 36
 1372              		.cfi_offset 4, -36
 1373              		.cfi_offset 5, -32
 1374              		.cfi_offset 6, -28
 1375              		.cfi_offset 7, -24
 1376              		.cfi_offset 8, -20
 1377              		.cfi_offset 9, -16
 1378              		.cfi_offset 10, -12
 1379              		.cfi_offset 11, -8
 1380              		.cfi_offset 14, -4
 1381 0004 87B0     		sub	sp, sp, #28
 1382              	.LCFI34:
 1383              		.cfi_def_cfa_offset 64
 1384 0006 8246     		mov	r10, r0
 1385 0008 8846     		mov	r8, r1
 1386 000a 0392     		str	r2, [sp, #12]
 1387 000c 9B46     		mov	fp, r3
 387:Middlewares/Third_Party/wakaama/objects.c ****     int size = 0;
 1388              		.loc 1 387 0
 1389 000e 0023     		movs	r3, #0
 1390              	.LVL178:
 1391 0010 0593     		str	r3, [sp, #20]
 388:Middlewares/Third_Party/wakaama/objects.c **** 
ARM GAS  /var/folders/0d/93p3r6493yg7p0rvl_4r983m0000gn/T//ccOiaSyY.s 			page 41


 1392              		.loc 1 388 0
 1393 0012 0493     		str	r3, [sp, #16]
 391:Middlewares/Third_Party/wakaama/objects.c ****     if (NULL == targetP) return COAP_404_NOT_FOUND;
 1394              		.loc 1 391 0
 1395 0014 4988     		ldrh	r1, [r1, #2]
 1396              	.LVL179:
 1397 0016 8069     		ldr	r0, [r0, #24]
 1398              	.LVL180:
 1399 0018 FFF7FEFF 		bl	lwm2m_list_find
 1400              	.LVL181:
 392:Middlewares/Third_Party/wakaama/objects.c ****     if (NULL == targetP->discoverFunc) return COAP_501_NOT_IMPLEMENTED;
 1401              		.loc 1 392 0
 1402 001c 0028     		cmp	r0, #0
 1403 001e 75D0     		beq	.L116
 1404 0020 0546     		mov	r5, r0
 393:Middlewares/Third_Party/wakaama/objects.c **** 
 1405              		.loc 1 393 0
 1406 0022 036A     		ldr	r3, [r0, #32]
 1407 0024 002B     		cmp	r3, #0
 1408 0026 73D0     		beq	.L117
 395:Middlewares/Third_Party/wakaama/objects.c ****     {
 1409              		.loc 1 395 0
 1410 0028 98F80030 		ldrb	r3, [r8]	@ zero_extendqisi2
 1411 002c 13F0020F 		tst	r3, #2
 1412 0030 03D1     		bne	.L125
 1413              	.LVL182:
 1414              	.LBB10:
 419:Middlewares/Third_Party/wakaama/objects.c ****         for (instanceP = targetP->instanceList; instanceP != NULL ; instanceP = instanceP->next)
 1415              		.loc 1 419 0
 1416 0032 0023     		movs	r3, #0
 1417 0034 0493     		str	r3, [sp, #16]
 420:Middlewares/Third_Party/wakaama/objects.c ****         {
 1418              		.loc 1 420 0
 1419 0036 8268     		ldr	r2, [r0, #8]
 1420              	.LVL183:
 1421 0038 25E0     		b	.L110
 1422              	.LVL184:
 1423              	.L125:
 1424              	.LBE10:
 397:Middlewares/Third_Party/wakaama/objects.c **** 
 1425              		.loc 1 397 0
 1426 003a B8F80410 		ldrh	r1, [r8, #4]
 1427 003e 8068     		ldr	r0, [r0, #8]
 1428              	.LVL185:
 1429 0040 FFF7FEFF 		bl	lwm2m_list_find
 1430              	.LVL186:
 1431 0044 0028     		cmp	r0, #0
 1432 0046 65D0     		beq	.L118
 400:Middlewares/Third_Party/wakaama/objects.c ****         {
 1433              		.loc 1 400 0
 1434 0048 98F80030 		ldrb	r3, [r8]	@ zero_extendqisi2
 1435 004c 13F0010F 		tst	r3, #1
 1436 0050 0AD1     		bne	.L126
 1437              	.L108:
 409:Middlewares/Third_Party/wakaama/objects.c ****     }
 1438              		.loc 1 409 0
 1439 0052 2C6A     		ldr	r4, [r5, #32]
ARM GAS  /var/folders/0d/93p3r6493yg7p0rvl_4r983m0000gn/T//ccOiaSyY.s 			page 42


 1440 0054 2B46     		mov	r3, r5
 1441 0056 05AA     		add	r2, sp, #20
 1442 0058 04A9     		add	r1, sp, #16
 1443 005a B8F80400 		ldrh	r0, [r8, #4]
 1444 005e A047     		blx	r4
 1445              	.LVL187:
 1446 0060 0746     		mov	r7, r0
 1447              	.LVL188:
 1448              	.L109:
 443:Middlewares/Third_Party/wakaama/objects.c ****     {
 1449              		.loc 1 443 0
 1450 0062 452F     		cmp	r7, #69
 1451 0064 22D1     		bne	.L115
 1452 0066 13E0     		b	.L112
 1453              	.LVL189:
 1454              	.L126:
 402:Middlewares/Third_Party/wakaama/objects.c ****             dataP = lwm2m_data_new(size);
 1455              		.loc 1 402 0
 1456 0068 0120     		movs	r0, #1
 1457 006a 0490     		str	r0, [sp, #16]
 403:Middlewares/Third_Party/wakaama/objects.c ****             if (dataP == NULL) return COAP_500_INTERNAL_SERVER_ERROR;
 1458              		.loc 1 403 0
 1459 006c FFF7FEFF 		bl	lwm2m_data_new
 1460              	.LVL190:
 1461 0070 0590     		str	r0, [sp, #20]
 404:Middlewares/Third_Party/wakaama/objects.c **** 
 1462              		.loc 1 404 0
 1463 0072 0028     		cmp	r0, #0
 1464 0074 50D0     		beq	.L119
 406:Middlewares/Third_Party/wakaama/objects.c ****         }
 1465              		.loc 1 406 0
 1466 0076 B8F80630 		ldrh	r3, [r8, #6]
 1467 007a 4380     		strh	r3, [r0, #2]	@ movhi
 1468 007c E9E7     		b	.L108
 1469              	.LVL191:
 1470              	.L111:
 1471              	.LBB11:
 422:Middlewares/Third_Party/wakaama/objects.c ****         }
 1472              		.loc 1 422 0 discriminator 3
 1473 007e 049B     		ldr	r3, [sp, #16]
 1474 0080 0133     		adds	r3, r3, #1
 1475 0082 0493     		str	r3, [sp, #16]
 420:Middlewares/Third_Party/wakaama/objects.c ****         {
 1476              		.loc 1 420 0 discriminator 3
 1477 0084 1268     		ldr	r2, [r2]
 1478              	.LVL192:
 1479              	.L110:
 420:Middlewares/Third_Party/wakaama/objects.c ****         {
 1480              		.loc 1 420 0 is_stmt 0 discriminator 1
 1481 0086 002A     		cmp	r2, #0
 1482 0088 F9D1     		bne	.L111
 425:Middlewares/Third_Party/wakaama/objects.c ****         {
 1483              		.loc 1 425 0 is_stmt 1
 1484 008a 0498     		ldr	r0, [sp, #16]
 1485              	.LVL193:
 1486 008c B0B9     		cbnz	r0, .L127
 417:Middlewares/Third_Party/wakaama/objects.c **** 
ARM GAS  /var/folders/0d/93p3r6493yg7p0rvl_4r983m0000gn/T//ccOiaSyY.s 			page 43


 1487              		.loc 1 417 0
 1488 008e 4527     		movs	r7, #69
 1489              	.LVL194:
 1490              	.L112:
 1491              	.LBE11:
 1492              	.LBB12:
 447:Middlewares/Third_Party/wakaama/objects.c ****         if (len <= 0) result = COAP_500_INTERNAL_SERVER_ERROR;
 1493              		.loc 1 447 0
 1494 0090 CDF804B0 		str	fp, [sp, #4]
 1495 0094 059B     		ldr	r3, [sp, #20]
 1496 0096 0093     		str	r3, [sp]
 1497 0098 049B     		ldr	r3, [sp, #16]
 1498 009a 039A     		ldr	r2, [sp, #12]
 1499 009c 4146     		mov	r1, r8
 1500 009e 5046     		mov	r0, r10
 1501 00a0 FFF7FEFF 		bl	discover_serialize
 1502              	.LVL195:
 448:Middlewares/Third_Party/wakaama/objects.c ****         else *lengthP = len;
 1503              		.loc 1 448 0
 1504 00a4 0028     		cmp	r0, #0
 1505 00a6 2FDD     		ble	.L122
 449:Middlewares/Third_Party/wakaama/objects.c ****     }
 1506              		.loc 1 449 0
 1507 00a8 109B     		ldr	r3, [sp, #64]
 1508 00aa 1860     		str	r0, [r3]
 1509              	.LVL196:
 1510              	.L115:
 1511              	.LBE12:
 451:Middlewares/Third_Party/wakaama/objects.c **** 
 1512              		.loc 1 451 0
 1513 00ac 0599     		ldr	r1, [sp, #20]
 1514 00ae 0498     		ldr	r0, [sp, #16]
 1515 00b0 FFF7FEFF 		bl	lwm2m_data_free
 1516              	.LVL197:
 1517              	.L106:
 456:Middlewares/Third_Party/wakaama/objects.c **** 
 1518              		.loc 1 456 0
 1519 00b4 3846     		mov	r0, r7
 1520 00b6 07B0     		add	sp, sp, #28
 1521              	.LCFI35:
 1522              		.cfi_remember_state
 1523              		.cfi_def_cfa_offset 36
 1524              		@ sp needed
 1525 00b8 BDE8F08F 		pop	{r4, r5, r6, r7, r8, r9, r10, fp, pc}
 1526              	.LVL198:
 1527              	.L127:
 1528              	.LCFI36:
 1529              		.cfi_restore_state
 1530              	.LBB13:
 427:Middlewares/Third_Party/wakaama/objects.c ****             if (dataP == NULL) return COAP_500_INTERNAL_SERVER_ERROR;
 1531              		.loc 1 427 0
 1532 00bc FFF7FEFF 		bl	lwm2m_data_new
 1533              	.LVL199:
 1534 00c0 0590     		str	r0, [sp, #20]
 428:Middlewares/Third_Party/wakaama/objects.c **** 
 1535              		.loc 1 428 0
 1536 00c2 58B3     		cbz	r0, .L121
ARM GAS  /var/folders/0d/93p3r6493yg7p0rvl_4r983m0000gn/T//ccOiaSyY.s 			page 44


 430:Middlewares/Third_Party/wakaama/objects.c ****             i = 0;
 1537              		.loc 1 430 0
 1538 00c4 AE68     		ldr	r6, [r5, #8]
 1539              	.LVL200:
 431:Middlewares/Third_Party/wakaama/objects.c ****             while (instanceP != NULL && result == COAP_205_CONTENT)
 1540              		.loc 1 431 0
 1541 00c6 4FF00009 		mov	r9, #0
 417:Middlewares/Third_Party/wakaama/objects.c **** 
 1542              		.loc 1 417 0
 1543 00ca 4527     		movs	r7, #69
 1544 00cc 3846     		mov	r0, r7
 432:Middlewares/Third_Party/wakaama/objects.c ****             {
 1545              		.loc 1 432 0
 1546 00ce 14E0     		b	.L113
 1547              	.LVL201:
 1548              	.L114:
 434:Middlewares/Third_Party/wakaama/objects.c ****                 dataP[i].type = LWM2M_TYPE_OBJECT_INSTANCE;
 1549              		.loc 1 434 0
 1550 00d0 2F6A     		ldr	r7, [r5, #32]
 1551 00d2 4FEA0914 		lsl	r4, r9, #4
 1552 00d6 0599     		ldr	r1, [sp, #20]
 1553 00d8 2144     		add	r1, r1, r4
 1554 00da 2B46     		mov	r3, r5
 1555 00dc 01F10C02 		add	r2, r1, #12
 1556 00e0 0831     		adds	r1, r1, #8
 1557 00e2 B088     		ldrh	r0, [r6, #4]
 1558              	.LVL202:
 1559 00e4 B847     		blx	r7
 1560              	.LVL203:
 435:Middlewares/Third_Party/wakaama/objects.c ****                 dataP[i].id = instanceP->id;
 1561              		.loc 1 435 0
 1562 00e6 059B     		ldr	r3, [sp, #20]
 1563 00e8 0222     		movs	r2, #2
 1564 00ea 1A55     		strb	r2, [r3, r4]
 436:Middlewares/Third_Party/wakaama/objects.c ****                 i++;
 1565              		.loc 1 436 0
 1566 00ec 059B     		ldr	r3, [sp, #20]
 1567 00ee 1C44     		add	r4, r4, r3
 1568 00f0 B388     		ldrh	r3, [r6, #4]
 1569 00f2 6380     		strh	r3, [r4, #2]	@ movhi
 437:Middlewares/Third_Party/wakaama/objects.c ****                 instanceP = instanceP->next;
 1570              		.loc 1 437 0
 1571 00f4 09F10109 		add	r9, r9, #1
 1572              	.LVL204:
 438:Middlewares/Third_Party/wakaama/objects.c ****             }
 1573              		.loc 1 438 0
 1574 00f8 3668     		ldr	r6, [r6]
 1575              	.LVL205:
 1576              	.L113:
 432:Middlewares/Third_Party/wakaama/objects.c ****             {
 1577              		.loc 1 432 0
 1578 00fa 1EB1     		cbz	r6, .L123
 432:Middlewares/Third_Party/wakaama/objects.c ****             {
 1579              		.loc 1 432 0 is_stmt 0 discriminator 1
 1580 00fc 4528     		cmp	r0, #69
 1581 00fe E7D0     		beq	.L114
 1582 0100 0746     		mov	r7, r0
ARM GAS  /var/folders/0d/93p3r6493yg7p0rvl_4r983m0000gn/T//ccOiaSyY.s 			page 45


 1583 0102 AEE7     		b	.L109
 1584              	.L123:
 1585 0104 0746     		mov	r7, r0
 1586 0106 ACE7     		b	.L109
 1587              	.LVL206:
 1588              	.L122:
 1589              	.LBE13:
 1590              	.LBB14:
 448:Middlewares/Third_Party/wakaama/objects.c ****         else *lengthP = len;
 1591              		.loc 1 448 0 is_stmt 1
 1592 0108 A027     		movs	r7, #160
 1593 010a CFE7     		b	.L115
 1594              	.LVL207:
 1595              	.L116:
 1596              	.LBE14:
 392:Middlewares/Third_Party/wakaama/objects.c ****     if (NULL == targetP->discoverFunc) return COAP_501_NOT_IMPLEMENTED;
 1597              		.loc 1 392 0
 1598 010c 8427     		movs	r7, #132
 1599 010e D1E7     		b	.L106
 1600              	.L117:
 393:Middlewares/Third_Party/wakaama/objects.c **** 
 1601              		.loc 1 393 0
 1602 0110 A127     		movs	r7, #161
 1603 0112 CFE7     		b	.L106
 1604              	.LVL208:
 1605              	.L118:
 397:Middlewares/Third_Party/wakaama/objects.c **** 
 1606              		.loc 1 397 0
 1607 0114 8427     		movs	r7, #132
 1608 0116 CDE7     		b	.L106
 1609              	.L119:
 404:Middlewares/Third_Party/wakaama/objects.c **** 
 1610              		.loc 1 404 0
 1611 0118 A027     		movs	r7, #160
 1612 011a CBE7     		b	.L106
 1613              	.LVL209:
 1614              	.L121:
 1615              	.LBB15:
 428:Middlewares/Third_Party/wakaama/objects.c **** 
 1616              		.loc 1 428 0
 1617 011c A027     		movs	r7, #160
 1618 011e C9E7     		b	.L106
 1619              	.LBE15:
 1620              		.cfi_endproc
 1621              	.LFE10:
 1623              		.section	.text.object_isInstanceNew,"ax",%progbits
 1624              		.align	1
 1625              		.global	object_isInstanceNew
 1626              		.syntax unified
 1627              		.thumb
 1628              		.thumb_func
 1629              		.fpu fpv4-sp-d16
 1631              	object_isInstanceNew:
 1632              	.LFB11:
 461:Middlewares/Third_Party/wakaama/objects.c ****     lwm2m_object_t * targetP;
 1633              		.loc 1 461 0
 1634              		.cfi_startproc
ARM GAS  /var/folders/0d/93p3r6493yg7p0rvl_4r983m0000gn/T//ccOiaSyY.s 			page 46


 1635              		@ args = 0, pretend = 0, frame = 0
 1636              		@ frame_needed = 0, uses_anonymous_args = 0
 1637              	.LVL210:
 1638 0000 10B5     		push	{r4, lr}
 1639              	.LCFI37:
 1640              		.cfi_def_cfa_offset 8
 1641              		.cfi_offset 4, -8
 1642              		.cfi_offset 14, -4
 1643 0002 1446     		mov	r4, r2
 465:Middlewares/Third_Party/wakaama/objects.c ****     if (targetP != NULL)
 1644              		.loc 1 465 0
 1645 0004 8069     		ldr	r0, [r0, #24]
 1646              	.LVL211:
 1647 0006 FFF7FEFF 		bl	lwm2m_list_find
 1648              	.LVL212:
 466:Middlewares/Third_Party/wakaama/objects.c ****     {
 1649              		.loc 1 466 0
 1650 000a 30B1     		cbz	r0, .L130
 468:Middlewares/Third_Party/wakaama/objects.c ****         {
 1651              		.loc 1 468 0
 1652 000c 2146     		mov	r1, r4
 1653 000e 8068     		ldr	r0, [r0, #8]
 1654              	.LVL213:
 1655 0010 FFF7FEFF 		bl	lwm2m_list_find
 1656              	.LVL214:
 1657 0014 18B1     		cbz	r0, .L131
 470:Middlewares/Third_Party/wakaama/objects.c ****         }
 1658              		.loc 1 470 0
 1659 0016 0020     		movs	r0, #0
 1660 0018 00E0     		b	.L129
 1661              	.LVL215:
 1662              	.L130:
 474:Middlewares/Third_Party/wakaama/objects.c **** }
 1663              		.loc 1 474 0
 1664 001a 0120     		movs	r0, #1
 1665              	.LVL216:
 1666              	.L129:
 475:Middlewares/Third_Party/wakaama/objects.c **** 
 1667              		.loc 1 475 0
 1668 001c 10BD     		pop	{r4, pc}
 1669              	.L131:
 474:Middlewares/Third_Party/wakaama/objects.c **** }
 1670              		.loc 1 474 0
 1671 001e 0120     		movs	r0, #1
 1672 0020 FCE7     		b	.L129
 1673              		.cfi_endproc
 1674              	.LFE11:
 1676              		.section	.text.object_getRegisterPayloadBufferLength,"ax",%progbits
 1677              		.align	1
 1678              		.global	object_getRegisterPayloadBufferLength
 1679              		.syntax unified
 1680              		.thumb
 1681              		.thumb_func
 1682              		.fpu fpv4-sp-d16
 1684              	object_getRegisterPayloadBufferLength:
 1685              	.LFB13:
 502:Middlewares/Third_Party/wakaama/objects.c ****     size_t index;
ARM GAS  /var/folders/0d/93p3r6493yg7p0rvl_4r983m0000gn/T//ccOiaSyY.s 			page 47


 1686              		.loc 1 502 0
 1687              		.cfi_startproc
 1688              		@ args = 0, pretend = 0, frame = 16
 1689              		@ frame_needed = 0, uses_anonymous_args = 0
 1690              	.LVL217:
 1691 0000 2DE9F041 		push	{r4, r5, r6, r7, r8, lr}
 1692              	.LCFI38:
 1693              		.cfi_def_cfa_offset 24
 1694              		.cfi_offset 4, -24
 1695              		.cfi_offset 5, -20
 1696              		.cfi_offset 6, -16
 1697              		.cfi_offset 7, -12
 1698              		.cfi_offset 8, -8
 1699              		.cfi_offset 14, -4
 1700 0004 84B0     		sub	sp, sp, #16
 1701              	.LCFI39:
 1702              		.cfi_def_cfa_offset 40
 1703 0006 0546     		mov	r5, r0
 1704              	.LVL218:
 511:Middlewares/Third_Party/wakaama/objects.c ****      && (contextP->altPath[0] != 0))
 1705              		.loc 1 511 0
 1706 0008 C068     		ldr	r0, [r0, #12]
 1707              	.LVL219:
 1708 000a 38B1     		cbz	r0, .L142
 512:Middlewares/Third_Party/wakaama/objects.c ****     {
 1709              		.loc 1 512 0
 1710 000c 0378     		ldrb	r3, [r0]	@ zero_extendqisi2
 1711 000e 3BB1     		cbz	r3, .L143
 514:Middlewares/Third_Party/wakaama/objects.c ****     }
 1712              		.loc 1 514 0
 1713 0010 FFF7FEFF 		bl	strlen
 1714              	.LVL220:
 1715 0014 441C     		adds	r4, r0, #1
 1716              	.LVL221:
 1717              	.L134:
 521:Middlewares/Third_Party/wakaama/objects.c **** 
 1718              		.loc 1 521 0
 1719 0016 1134     		adds	r4, r4, #17
 1720              	.LVL222:
 523:Middlewares/Third_Party/wakaama/objects.c ****     {
 1721              		.loc 1 523 0
 1722 0018 AE69     		ldr	r6, [r5, #24]
 1723              	.LVL223:
 1724 001a 05E0     		b	.L135
 1725              	.LVL224:
 1726              	.L142:
 518:Middlewares/Third_Party/wakaama/objects.c ****     }
 1727              		.loc 1 518 0
 1728 001c 0224     		movs	r4, #2
 1729 001e FAE7     		b	.L134
 1730              	.L143:
 1731 0020 0224     		movs	r4, #2
 1732 0022 F8E7     		b	.L134
 1733              	.LVL225:
 1734              	.L149:
 1735              	.LBB16:
 539:Middlewares/Third_Party/wakaama/objects.c ****         }
ARM GAS  /var/folders/0d/93p3r6493yg7p0rvl_4r983m0000gn/T//ccOiaSyY.s 			page 48


 1736              		.loc 1 539 0
 1737 0024 7C1C     		adds	r4, r7, #1
 1738              	.LVL226:
 1739              	.L136:
 1740              	.LBE16:
 523:Middlewares/Third_Party/wakaama/objects.c ****     {
 1741              		.loc 1 523 0 discriminator 2
 1742 0026 3668     		ldr	r6, [r6]
 1743              	.LVL227:
 1744              	.L135:
 523:Middlewares/Third_Party/wakaama/objects.c ****     {
 1745              		.loc 1 523 0 is_stmt 0 discriminator 1
 1746 0028 FEB1     		cbz	r6, .L148
 1747              	.LBB19:
 528:Middlewares/Third_Party/wakaama/objects.c **** 
 1748              		.loc 1 528 0 is_stmt 1
 1749 002a B288     		ldrh	r2, [r6, #4]
 1750 002c 002A     		cmp	r2, #0
 1751 002e FAD0     		beq	.L136
 1752              	.LVL228:
 531:Middlewares/Third_Party/wakaama/objects.c ****         if (result < 0) return 0;
 1753              		.loc 1 531 0
 1754 0030 0A21     		movs	r1, #10
 1755 0032 01A8     		add	r0, sp, #4
 1756 0034 FFF7FEFF 		bl	prv_getObjectTemplate
 1757              	.LVL229:
 532:Middlewares/Third_Party/wakaama/objects.c ****         length = result;
 1758              		.loc 1 532 0
 1759 0038 0028     		cmp	r0, #0
 1760 003a 18DB     		blt	.L144
 533:Middlewares/Third_Party/wakaama/objects.c ****         index += length;
 1761              		.loc 1 533 0
 1762 003c 8046     		mov	r8, r0
 1763              	.LVL230:
 534:Middlewares/Third_Party/wakaama/objects.c **** 
 1764              		.loc 1 534 0
 1765 003e 2718     		adds	r7, r4, r0
 1766              	.LVL231:
 536:Middlewares/Third_Party/wakaama/objects.c ****         {
 1767              		.loc 1 536 0
 1768 0040 B568     		ldr	r5, [r6, #8]
 1769 0042 002D     		cmp	r5, #0
 1770 0044 EED0     		beq	.L149
 534:Middlewares/Third_Party/wakaama/objects.c **** 
 1771              		.loc 1 534 0
 1772 0046 3C46     		mov	r4, r7
 1773              	.LVL232:
 1774 0048 09E0     		b	.L138
 1775              	.LVL233:
 1776              	.L139:
 1777              	.LBB17:
 551:Middlewares/Third_Party/wakaama/objects.c ****                 if (result == 0) return 0;
 1778              		.loc 1 551 0
 1779 004a 0A23     		movs	r3, #10
 1780 004c 01AA     		add	r2, sp, #4
 1781 004e A888     		ldrh	r0, [r5, #4]
 1782              	.LVL234:
ARM GAS  /var/folders/0d/93p3r6493yg7p0rvl_4r983m0000gn/T//ccOiaSyY.s 			page 49


 1783 0050 0021     		movs	r1, #0
 1784 0052 FFF7FEFF 		bl	utils_intToText
 1785              	.LVL235:
 552:Middlewares/Third_Party/wakaama/objects.c ****                 index += result;
 1786              		.loc 1 552 0
 1787 0056 60B1     		cbz	r0, .L146
 553:Middlewares/Third_Party/wakaama/objects.c **** 
 1788              		.loc 1 553 0 discriminator 2
 1789 0058 0444     		add	r4, r4, r0
 1790              	.LVL236:
 555:Middlewares/Third_Party/wakaama/objects.c ****             }
 1791              		.loc 1 555 0 discriminator 2
 1792 005a 0234     		adds	r4, r4, #2
 1793              	.LVL237:
 544:Middlewares/Third_Party/wakaama/objects.c ****             {
 1794              		.loc 1 544 0 discriminator 2
 1795 005c 2D68     		ldr	r5, [r5]
 1796              	.LVL238:
 1797              	.L138:
 544:Middlewares/Third_Party/wakaama/objects.c ****             {
 1798              		.loc 1 544 0 is_stmt 0 discriminator 1
 1799 005e 002D     		cmp	r5, #0
 1800 0060 E1D0     		beq	.L136
 546:Middlewares/Third_Party/wakaama/objects.c ****                 {
 1801              		.loc 1 546 0 is_stmt 1
 1802 0062 BC42     		cmp	r4, r7
 1803 0064 F1D0     		beq	.L139
 548:Middlewares/Third_Party/wakaama/objects.c ****                 }
 1804              		.loc 1 548 0
 1805 0066 4444     		add	r4, r4, r8
 1806              	.LVL239:
 1807 0068 EFE7     		b	.L139
 1808              	.LVL240:
 1809              	.L148:
 1810              	.LBE17:
 1811              	.LBE19:
 560:Middlewares/Third_Party/wakaama/objects.c **** 
 1812              		.loc 1 560 0
 1813 006a 601C     		adds	r0, r4, #1
 1814              	.LVL241:
 568:Middlewares/Third_Party/wakaama/objects.c **** }
 1815              		.loc 1 568 0
 1816 006c 02E0     		b	.L133
 1817              	.LVL242:
 1818              	.L144:
 1819              	.LBB20:
 532:Middlewares/Third_Party/wakaama/objects.c ****         length = result;
 1820              		.loc 1 532 0
 1821 006e 0020     		movs	r0, #0
 1822              	.LVL243:
 1823 0070 00E0     		b	.L133
 1824              	.LVL244:
 1825              	.L146:
 1826              	.LBB18:
 552:Middlewares/Third_Party/wakaama/objects.c ****                 index += result;
 1827              		.loc 1 552 0
 1828 0072 0020     		movs	r0, #0
ARM GAS  /var/folders/0d/93p3r6493yg7p0rvl_4r983m0000gn/T//ccOiaSyY.s 			page 50


 1829              	.LVL245:
 1830              	.L133:
 1831              	.LBE18:
 1832              	.LBE20:
 569:Middlewares/Third_Party/wakaama/objects.c **** 
 1833              		.loc 1 569 0
 1834 0074 04B0     		add	sp, sp, #16
 1835              	.LCFI40:
 1836              		.cfi_def_cfa_offset 24
 1837              		@ sp needed
 1838 0076 BDE8F081 		pop	{r4, r5, r6, r7, r8, pc}
 1839              		.cfi_endproc
 1840              	.LFE13:
 1842              		.section	.text.object_getRegisterPayload,"ax",%progbits
 1843              		.align	1
 1844              		.global	object_getRegisterPayload
 1845              		.syntax unified
 1846              		.thumb
 1847              		.thumb_func
 1848              		.fpu fpv4-sp-d16
 1850              	object_getRegisterPayload:
 1851              	.LFB14:
 574:Middlewares/Third_Party/wakaama/objects.c ****     size_t index;
 1852              		.loc 1 574 0
 1853              		.cfi_startproc
 1854              		@ args = 0, pretend = 0, frame = 0
 1855              		@ frame_needed = 0, uses_anonymous_args = 0
 1856              	.LVL246:
 1857 0000 2DE9F84F 		push	{r3, r4, r5, r6, r7, r8, r9, r10, fp, lr}
 1858              	.LCFI41:
 1859              		.cfi_def_cfa_offset 40
 1860              		.cfi_offset 3, -40
 1861              		.cfi_offset 4, -36
 1862              		.cfi_offset 5, -32
 1863              		.cfi_offset 6, -28
 1864              		.cfi_offset 7, -24
 1865              		.cfi_offset 8, -20
 1866              		.cfi_offset 9, -16
 1867              		.cfi_offset 10, -12
 1868              		.cfi_offset 11, -8
 1869              		.cfi_offset 14, -4
 1870 0004 0746     		mov	r7, r0
 1871 0006 0E46     		mov	r6, r1
 1872 0008 1546     		mov	r5, r2
 1873              	.LVL247:
 583:Middlewares/Third_Party/wakaama/objects.c ****     if (result < 0) return 0;
 1874              		.loc 1 583 0
 1875 000a 404A     		ldr	r2, .L174
 1876              	.LVL248:
 1877 000c 2946     		mov	r1, r5
 1878              	.LVL249:
 1879 000e 3046     		mov	r0, r6
 1880              	.LVL250:
 1881 0010 FFF7FEFF 		bl	utils_stringCopy
 1882              	.LVL251:
 584:Middlewares/Third_Party/wakaama/objects.c ****     index += result;
 1883              		.loc 1 584 0
ARM GAS  /var/folders/0d/93p3r6493yg7p0rvl_4r983m0000gn/T//ccOiaSyY.s 			page 51


 1884 0014 041E     		subs	r4, r0, #0
 1885 0016 67DB     		blt	.L161
 1886              	.LVL252:
 587:Middlewares/Third_Party/wakaama/objects.c ****      && (contextP->altPath[0] != 0))
 1887              		.loc 1 587 0
 1888 0018 FA68     		ldr	r2, [r7, #12]
 1889 001a 0AB1     		cbz	r2, .L152
 588:Middlewares/Third_Party/wakaama/objects.c ****     {
 1890              		.loc 1 588 0
 1891 001c 1378     		ldrb	r3, [r2]	@ zero_extendqisi2
 1892 001e 93B9     		cbnz	r3, .L171
 1893              	.L152:
 594:Middlewares/Third_Party/wakaama/objects.c ****     }
 1894              		.loc 1 594 0
 1895 0020 3B4A     		ldr	r2, .L174+4
 1896 0022 291B     		subs	r1, r5, r4
 1897 0024 3019     		adds	r0, r6, r4
 1898              	.LVL253:
 1899 0026 FFF7FEFF 		bl	utils_stringCopy
 1900              	.LVL254:
 1901              	.L153:
 596:Middlewares/Third_Party/wakaama/objects.c ****     index += result;
 1902              		.loc 1 596 0
 1903 002a 0028     		cmp	r0, #0
 1904 002c 5EDB     		blt	.L162
 597:Middlewares/Third_Party/wakaama/objects.c **** 
 1905              		.loc 1 597 0
 1906 002e 0444     		add	r4, r4, r0
 1907              	.LVL255:
 599:Middlewares/Third_Party/wakaama/objects.c ****     if (result < 0) return 0;
 1908              		.loc 1 599 0
 1909 0030 384A     		ldr	r2, .L174+8
 1910 0032 291B     		subs	r1, r5, r4
 1911 0034 3019     		adds	r0, r6, r4
 1912              	.LVL256:
 1913 0036 FFF7FEFF 		bl	utils_stringCopy
 1914              	.LVL257:
 600:Middlewares/Third_Party/wakaama/objects.c ****     index += result;
 1915              		.loc 1 600 0
 1916 003a 0028     		cmp	r0, #0
 1917 003c 59DB     		blt	.L163
 601:Middlewares/Third_Party/wakaama/objects.c **** 
 1918              		.loc 1 601 0
 1919 003e 0444     		add	r4, r4, r0
 1920              	.LVL258:
 603:Middlewares/Third_Party/wakaama/objects.c ****     {
 1921              		.loc 1 603 0
 1922 0040 D7F818A0 		ldr	r10, [r7, #24]
 1923              	.LVL259:
 1924 0044 13E0     		b	.L154
 1925              	.LVL260:
 1926              	.L171:
 590:Middlewares/Third_Party/wakaama/objects.c ****     }
 1927              		.loc 1 590 0
 1928 0046 291B     		subs	r1, r5, r4
 1929 0048 3019     		adds	r0, r6, r4
 1930              	.LVL261:
ARM GAS  /var/folders/0d/93p3r6493yg7p0rvl_4r983m0000gn/T//ccOiaSyY.s 			page 52


 1931 004a FFF7FEFF 		bl	utils_stringCopy
 1932              	.LVL262:
 1933 004e ECE7     		b	.L153
 1934              	.LVL263:
 1935              	.L173:
 1936              	.LBB21:
 618:Middlewares/Third_Party/wakaama/objects.c ****             result = utils_stringCopy((char *)buffer + index, bufferLen - index, REG_PATH_END);
 1937              		.loc 1 618 0
 1938 0050 09F1FF39 		add	r9, r9, #-1
 1939              	.LVL264:
 619:Middlewares/Third_Party/wakaama/objects.c ****             if (result < 0) return 0;
 1940              		.loc 1 619 0
 1941 0054 304A     		ldr	r2, .L174+12
 1942 0056 A5EB0901 		sub	r1, r5, r9
 1943 005a 06EB0900 		add	r0, r6, r9
 1944              	.LVL265:
 1945 005e FFF7FEFF 		bl	utils_stringCopy
 1946              	.LVL266:
 620:Middlewares/Third_Party/wakaama/objects.c ****             index += result;
 1947              		.loc 1 620 0
 1948 0062 0028     		cmp	r0, #0
 1949 0064 49DB     		blt	.L166
 621:Middlewares/Third_Party/wakaama/objects.c ****         }
 1950              		.loc 1 621 0
 1951 0066 00EB0904 		add	r4, r0, r9
 1952              	.LVL267:
 1953              	.L155:
 1954              	.LBE21:
 603:Middlewares/Third_Party/wakaama/objects.c ****     {
 1955              		.loc 1 603 0 discriminator 2
 1956 006a DAF800A0 		ldr	r10, [r10]
 1957              	.LVL268:
 1958              	.L154:
 603:Middlewares/Third_Party/wakaama/objects.c ****     {
 1959              		.loc 1 603 0 is_stmt 0 discriminator 1
 1960 006e BAF1000F 		cmp	r10, #0
 1961 0072 33D0     		beq	.L172
 1962              	.LBB24:
 608:Middlewares/Third_Party/wakaama/objects.c **** 
 1963              		.loc 1 608 0 is_stmt 1
 1964 0074 BAF80420 		ldrh	r2, [r10, #4]
 1965 0078 002A     		cmp	r2, #0
 1966 007a F6D0     		beq	.L155
 1967              	.LVL269:
 611:Middlewares/Third_Party/wakaama/objects.c ****         if (result < 0) return 0;
 1968              		.loc 1 611 0
 1969 007c 06EB040B 		add	fp, r6, r4
 1970 0080 291B     		subs	r1, r5, r4
 1971 0082 5846     		mov	r0, fp
 1972              	.LVL270:
 1973 0084 FFF7FEFF 		bl	prv_getObjectTemplate
 1974              	.LVL271:
 612:Middlewares/Third_Party/wakaama/objects.c ****         length = result;
 1975              		.loc 1 612 0
 1976 0088 0028     		cmp	r0, #0
 1977 008a 34DB     		blt	.L164
 613:Middlewares/Third_Party/wakaama/objects.c ****         index += length;
ARM GAS  /var/folders/0d/93p3r6493yg7p0rvl_4r983m0000gn/T//ccOiaSyY.s 			page 53


 1978              		.loc 1 613 0
 1979 008c 8046     		mov	r8, r0
 1980              	.LVL272:
 614:Middlewares/Third_Party/wakaama/objects.c **** 
 1981              		.loc 1 614 0
 1982 008e 04EB0009 		add	r9, r4, r0
 1983              	.LVL273:
 616:Middlewares/Third_Party/wakaama/objects.c ****         {
 1984              		.loc 1 616 0
 1985 0092 DAF80870 		ldr	r7, [r10, #8]
 1986 0096 002F     		cmp	r7, #0
 1987 0098 DAD0     		beq	.L173
 614:Middlewares/Third_Party/wakaama/objects.c **** 
 1988              		.loc 1 614 0
 1989 009a 4C46     		mov	r4, r9
 1990              	.LVL274:
 1991 009c 10E0     		b	.L156
 1992              	.LVL275:
 1993              	.L157:
 1994              	.LBB22:
 635:Middlewares/Third_Party/wakaama/objects.c ****                 if (result == 0) return 0;
 1995              		.loc 1 635 0
 1996 009e 2B1B     		subs	r3, r5, r4
 1997 00a0 3219     		adds	r2, r6, r4
 1998 00a2 B888     		ldrh	r0, [r7, #4]
 1999 00a4 0021     		movs	r1, #0
 2000 00a6 FFF7FEFF 		bl	utils_intToText
 2001              	.LVL276:
 636:Middlewares/Third_Party/wakaama/objects.c ****                 index += result;
 2002              		.loc 1 636 0
 2003 00aa 50B3     		cbz	r0, .L168
 637:Middlewares/Third_Party/wakaama/objects.c **** 
 2004              		.loc 1 637 0
 2005 00ac 0444     		add	r4, r4, r0
 2006              	.LVL277:
 639:Middlewares/Third_Party/wakaama/objects.c ****                 if (result < 0) return 0;
 2007              		.loc 1 639 0
 2008 00ae 1A4A     		ldr	r2, .L174+12
 2009 00b0 291B     		subs	r1, r5, r4
 2010 00b2 3019     		adds	r0, r6, r4
 2011              	.LVL278:
 2012 00b4 FFF7FEFF 		bl	utils_stringCopy
 2013              	.LVL279:
 640:Middlewares/Third_Party/wakaama/objects.c ****                 index += result;
 2014              		.loc 1 640 0
 2015 00b8 0028     		cmp	r0, #0
 2016 00ba 24DB     		blt	.L169
 641:Middlewares/Third_Party/wakaama/objects.c ****             }
 2017              		.loc 1 641 0 discriminator 2
 2018 00bc 0444     		add	r4, r4, r0
 2019              	.LVL280:
 626:Middlewares/Third_Party/wakaama/objects.c ****             {
 2020              		.loc 1 626 0 discriminator 2
 2021 00be 3F68     		ldr	r7, [r7]
 2022              	.LVL281:
 2023              	.L156:
 626:Middlewares/Third_Party/wakaama/objects.c ****             {
ARM GAS  /var/folders/0d/93p3r6493yg7p0rvl_4r983m0000gn/T//ccOiaSyY.s 			page 54


 2024              		.loc 1 626 0 is_stmt 0 discriminator 1
 2025 00c0 002F     		cmp	r7, #0
 2026 00c2 D2D0     		beq	.L155
 628:Middlewares/Third_Party/wakaama/objects.c ****                 {
 2027              		.loc 1 628 0 is_stmt 1
 2028 00c4 4C45     		cmp	r4, r9
 2029 00c6 EAD0     		beq	.L157
 630:Middlewares/Third_Party/wakaama/objects.c ****                     memcpy(buffer + index, buffer + start, length);
 2030              		.loc 1 630 0
 2031 00c8 2B1B     		subs	r3, r5, r4
 2032 00ca 4345     		cmp	r3, r8
 2033 00cc 17D9     		bls	.L167
 631:Middlewares/Third_Party/wakaama/objects.c ****                     index += length;
 2034              		.loc 1 631 0
 2035 00ce 4246     		mov	r2, r8
 2036 00d0 5946     		mov	r1, fp
 2037 00d2 3019     		adds	r0, r6, r4
 2038              	.LVL282:
 2039 00d4 FFF7FEFF 		bl	memcpy
 2040              	.LVL283:
 632:Middlewares/Third_Party/wakaama/objects.c ****                 }
 2041              		.loc 1 632 0
 2042 00d8 4444     		add	r4, r4, r8
 2043              	.LVL284:
 2044 00da E0E7     		b	.L157
 2045              	.LVL285:
 2046              	.L172:
 2047              	.LBE22:
 2048              	.LBE24:
 646:Middlewares/Third_Party/wakaama/objects.c ****     {
 2049              		.loc 1 646 0
 2050 00dc 04B1     		cbz	r4, .L160
 648:Middlewares/Third_Party/wakaama/objects.c ****     }
 2051              		.loc 1 648 0
 2052 00de 013C     		subs	r4, r4, #1
 2053              	.LVL286:
 2054              	.L160:
 651:Middlewares/Third_Party/wakaama/objects.c **** 
 2055              		.loc 1 651 0
 2056 00e0 0023     		movs	r3, #0
 2057 00e2 3355     		strb	r3, [r6, r4]
 653:Middlewares/Third_Party/wakaama/objects.c **** }
 2058              		.loc 1 653 0
 2059 00e4 2046     		mov	r0, r4
 2060              	.LVL287:
 2061 00e6 02E0     		b	.L150
 2062              	.LVL288:
 2063              	.L161:
 584:Middlewares/Third_Party/wakaama/objects.c ****     index += result;
 2064              		.loc 1 584 0
 2065 00e8 0020     		movs	r0, #0
 2066              	.LVL289:
 2067 00ea 00E0     		b	.L150
 2068              	.LVL290:
 2069              	.L162:
 596:Middlewares/Third_Party/wakaama/objects.c ****     index += result;
 2070              		.loc 1 596 0
ARM GAS  /var/folders/0d/93p3r6493yg7p0rvl_4r983m0000gn/T//ccOiaSyY.s 			page 55


 2071 00ec 0020     		movs	r0, #0
 2072              	.LVL291:
 2073              	.L150:
 654:Middlewares/Third_Party/wakaama/objects.c **** 
 2074              		.loc 1 654 0
 2075 00ee BDE8F88F 		pop	{r3, r4, r5, r6, r7, r8, r9, r10, fp, pc}
 2076              	.LVL292:
 2077              	.L163:
 600:Middlewares/Third_Party/wakaama/objects.c ****     index += result;
 2078              		.loc 1 600 0
 2079 00f2 0020     		movs	r0, #0
 2080              	.LVL293:
 2081 00f4 FBE7     		b	.L150
 2082              	.LVL294:
 2083              	.L164:
 2084              	.LBB25:
 612:Middlewares/Third_Party/wakaama/objects.c ****         length = result;
 2085              		.loc 1 612 0
 2086 00f6 0020     		movs	r0, #0
 2087              	.LVL295:
 2088 00f8 F9E7     		b	.L150
 2089              	.LVL296:
 2090              	.L166:
 620:Middlewares/Third_Party/wakaama/objects.c ****             index += result;
 2091              		.loc 1 620 0
 2092 00fa 0020     		movs	r0, #0
 2093              	.LVL297:
 2094 00fc F7E7     		b	.L150
 2095              	.LVL298:
 2096              	.L167:
 2097              	.LBB23:
 630:Middlewares/Third_Party/wakaama/objects.c ****                     memcpy(buffer + index, buffer + start, length);
 2098              		.loc 1 630 0
 2099 00fe 0020     		movs	r0, #0
 2100              	.LVL299:
 2101 0100 F5E7     		b	.L150
 2102              	.LVL300:
 2103              	.L168:
 636:Middlewares/Third_Party/wakaama/objects.c ****                 index += result;
 2104              		.loc 1 636 0
 2105 0102 0020     		movs	r0, #0
 2106              	.LVL301:
 2107 0104 F3E7     		b	.L150
 2108              	.LVL302:
 2109              	.L169:
 640:Middlewares/Third_Party/wakaama/objects.c ****                 index += result;
 2110              		.loc 1 640 0
 2111 0106 0020     		movs	r0, #0
 2112              	.LVL303:
 2113 0108 F1E7     		b	.L150
 2114              	.L175:
 2115 010a 00BF     		.align	2
 2116              	.L174:
 2117 010c 00000000 		.word	.LC0
 2118 0110 04000000 		.word	.LC1
 2119 0114 08000000 		.word	.LC2
 2120 0118 1C000000 		.word	.LC3
ARM GAS  /var/folders/0d/93p3r6493yg7p0rvl_4r983m0000gn/T//ccOiaSyY.s 			page 56


 2121              	.LBE23:
 2122              	.LBE25:
 2123              		.cfi_endproc
 2124              	.LFE14:
 2126              		.section	.text.object_getServers,"ax",%progbits
 2127              		.align	1
 2128              		.global	object_getServers
 2129              		.syntax unified
 2130              		.thumb
 2131              		.thumb_func
 2132              		.fpu fpv4-sp-d16
 2134              	object_getServers:
 2135              	.LFB17:
 733:Middlewares/Third_Party/wakaama/objects.c **** 
 734:Middlewares/Third_Party/wakaama/objects.c **** int object_getServers(lwm2m_context_t * contextP, bool checkOnly)
 735:Middlewares/Third_Party/wakaama/objects.c **** {
 2136              		.loc 1 735 0
 2137              		.cfi_startproc
 2138              		@ args = 0, pretend = 0, frame = 24
 2139              		@ frame_needed = 0, uses_anonymous_args = 0
 2140              	.LVL304:
 2141 0000 2DE9F043 		push	{r4, r5, r6, r7, r8, r9, lr}
 2142              	.LCFI42:
 2143              		.cfi_def_cfa_offset 28
 2144              		.cfi_offset 4, -28
 2145              		.cfi_offset 5, -24
 2146              		.cfi_offset 6, -20
 2147              		.cfi_offset 7, -16
 2148              		.cfi_offset 8, -12
 2149              		.cfi_offset 9, -8
 2150              		.cfi_offset 14, -4
 2151 0004 87B0     		sub	sp, sp, #28
 2152              	.LCFI43:
 2153              		.cfi_def_cfa_offset 56
 2154              	.LVL305:
 736:Middlewares/Third_Party/wakaama/objects.c ****     lwm2m_object_t * objectP;
 737:Middlewares/Third_Party/wakaama/objects.c ****     lwm2m_object_t * securityObjP = NULL;
 738:Middlewares/Third_Party/wakaama/objects.c ****     lwm2m_object_t * serverObjP = NULL;
 739:Middlewares/Third_Party/wakaama/objects.c ****     lwm2m_list_t * securityInstP;   // instanceID of the server in the LWM2M Security Object
 740:Middlewares/Third_Party/wakaama/objects.c **** 
 741:Middlewares/Third_Party/wakaama/objects.c ****     LOG("Entering");
 742:Middlewares/Third_Party/wakaama/objects.c **** 
 743:Middlewares/Third_Party/wakaama/objects.c ****     for (objectP = contextP->objectList; objectP != NULL; objectP = objectP->next)
 2155              		.loc 1 743 0
 2156 0006 8369     		ldr	r3, [r0, #24]
 2157              	.LVL306:
 738:Middlewares/Third_Party/wakaama/objects.c ****     lwm2m_list_t * securityInstP;   // instanceID of the server in the LWM2M Security Object
 2158              		.loc 1 738 0
 2159 0008 4FF00008 		mov	r8, #0
 737:Middlewares/Third_Party/wakaama/objects.c ****     lwm2m_object_t * serverObjP = NULL;
 2160              		.loc 1 737 0
 2161 000c 4646     		mov	r6, r8
 2162              		.loc 1 743 0
 2163 000e 01E0     		b	.L177
 2164              	.LVL307:
 2165              	.L198:
 744:Middlewares/Third_Party/wakaama/objects.c ****     {
ARM GAS  /var/folders/0d/93p3r6493yg7p0rvl_4r983m0000gn/T//ccOiaSyY.s 			page 57


 745:Middlewares/Third_Party/wakaama/objects.c ****         if (objectP->objID == LWM2M_SECURITY_OBJECT_ID)
 746:Middlewares/Third_Party/wakaama/objects.c ****         {
 747:Middlewares/Third_Party/wakaama/objects.c ****             securityObjP = objectP;
 2166              		.loc 1 747 0
 2167 0010 1E46     		mov	r6, r3
 2168              	.LVL308:
 2169              	.L178:
 743:Middlewares/Third_Party/wakaama/objects.c ****     {
 2170              		.loc 1 743 0 discriminator 2
 2171 0012 1B68     		ldr	r3, [r3]
 2172              	.LVL309:
 2173              	.L177:
 743:Middlewares/Third_Party/wakaama/objects.c ****     {
 2174              		.loc 1 743 0 is_stmt 0 discriminator 1
 2175 0014 33B1     		cbz	r3, .L202
 745:Middlewares/Third_Party/wakaama/objects.c ****         {
 2176              		.loc 1 745 0 is_stmt 1
 2177 0016 9A88     		ldrh	r2, [r3, #4]
 2178 0018 002A     		cmp	r2, #0
 2179 001a F9D0     		beq	.L198
 748:Middlewares/Third_Party/wakaama/objects.c ****         }
 749:Middlewares/Third_Party/wakaama/objects.c ****         else if (objectP->objID == LWM2M_SERVER_OBJECT_ID)
 2180              		.loc 1 749 0
 2181 001c 012A     		cmp	r2, #1
 2182 001e F8D1     		bne	.L178
 750:Middlewares/Third_Party/wakaama/objects.c ****         {
 751:Middlewares/Third_Party/wakaama/objects.c ****             serverObjP = objectP;
 2183              		.loc 1 751 0
 2184 0020 9846     		mov	r8, r3
 2185              	.LVL310:
 2186 0022 F6E7     		b	.L178
 2187              	.LVL311:
 2188              	.L202:
 752:Middlewares/Third_Party/wakaama/objects.c ****         }
 753:Middlewares/Third_Party/wakaama/objects.c ****     }
 754:Middlewares/Third_Party/wakaama/objects.c **** 
 755:Middlewares/Third_Party/wakaama/objects.c ****     if (NULL == securityObjP) return -1;
 2189              		.loc 1 755 0
 2190 0024 002E     		cmp	r6, #0
 2191 0026 00F0D080 		beq	.L200
 2192 002a 8946     		mov	r9, r1
 2193 002c 0546     		mov	r5, r0
 756:Middlewares/Third_Party/wakaama/objects.c **** 
 757:Middlewares/Third_Party/wakaama/objects.c ****     securityInstP = securityObjP->instanceList;
 2194              		.loc 1 757 0
 2195 002e B468     		ldr	r4, [r6, #8]
 2196              	.LVL312:
 758:Middlewares/Third_Party/wakaama/objects.c ****     while (securityInstP != NULL)
 2197              		.loc 1 758 0
 2198 0030 2DE0     		b	.L181
 2199              	.LVL313:
 2200              	.L204:
 2201              	.LBB26:
 759:Middlewares/Third_Party/wakaama/objects.c ****     {
 760:Middlewares/Third_Party/wakaama/objects.c ****         if (LWM2M_LIST_FIND(contextP->bootstrapServerList, securityInstP->id) == NULL
 761:Middlewares/Third_Party/wakaama/objects.c ****          && LWM2M_LIST_FIND(contextP->serverList, securityInstP->id) == NULL)
 762:Middlewares/Third_Party/wakaama/objects.c ****         {
ARM GAS  /var/folders/0d/93p3r6493yg7p0rvl_4r983m0000gn/T//ccOiaSyY.s 			page 58


 763:Middlewares/Third_Party/wakaama/objects.c ****             // This server is new. eg created by last bootstrap
 764:Middlewares/Third_Party/wakaama/objects.c **** 
 765:Middlewares/Third_Party/wakaama/objects.c ****             lwm2m_data_t * dataP;
 766:Middlewares/Third_Party/wakaama/objects.c ****             int size;
 767:Middlewares/Third_Party/wakaama/objects.c ****             lwm2m_server_t * targetP;
 768:Middlewares/Third_Party/wakaama/objects.c ****             bool isBootstrap;
 769:Middlewares/Third_Party/wakaama/objects.c ****             int64_t value = 0;
 770:Middlewares/Third_Party/wakaama/objects.c **** 
 771:Middlewares/Third_Party/wakaama/objects.c ****             size = 3;
 772:Middlewares/Third_Party/wakaama/objects.c ****             dataP = lwm2m_data_new(size);
 773:Middlewares/Third_Party/wakaama/objects.c ****             if (dataP == NULL) return -1;
 774:Middlewares/Third_Party/wakaama/objects.c ****             dataP[0].id = LWM2M_SECURITY_BOOTSTRAP_ID;
 775:Middlewares/Third_Party/wakaama/objects.c ****             dataP[1].id = LWM2M_SECURITY_SHORT_SERVER_ID;
 776:Middlewares/Third_Party/wakaama/objects.c ****             dataP[2].id = LWM2M_SECURITY_HOLD_OFF_ID;
 777:Middlewares/Third_Party/wakaama/objects.c **** 
 778:Middlewares/Third_Party/wakaama/objects.c ****             if (securityObjP->readFunc(securityInstP->id, &size, &dataP, securityObjP) != COAP_205_
 779:Middlewares/Third_Party/wakaama/objects.c ****             {
 780:Middlewares/Third_Party/wakaama/objects.c ****                 lwm2m_data_free(size, dataP);
 2202              		.loc 1 780 0
 2203 0032 0299     		ldr	r1, [sp, #8]
 2204 0034 0398     		ldr	r0, [sp, #12]
 2205 0036 FFF7FEFF 		bl	lwm2m_data_free
 2206              	.LVL314:
 781:Middlewares/Third_Party/wakaama/objects.c ****                 return -1;
 2207              		.loc 1 781 0
 2208 003a 13E0     		b	.L183
 2209              	.LVL315:
 2210              	.L205:
 782:Middlewares/Third_Party/wakaama/objects.c ****             }
 783:Middlewares/Third_Party/wakaama/objects.c **** 
 784:Middlewares/Third_Party/wakaama/objects.c ****             targetP = (lwm2m_server_t *)lwm2m_malloc(sizeof(lwm2m_server_t));
 785:Middlewares/Third_Party/wakaama/objects.c ****             if (targetP == NULL) {
 786:Middlewares/Third_Party/wakaama/objects.c ****                 lwm2m_data_free(size, dataP);
 2211              		.loc 1 786 0
 2212 003c 0299     		ldr	r1, [sp, #8]
 2213 003e 0398     		ldr	r0, [sp, #12]
 2214              	.LVL316:
 2215 0040 FFF7FEFF 		bl	lwm2m_data_free
 2216              	.LVL317:
 787:Middlewares/Third_Party/wakaama/objects.c ****                 return -1;
 2217              		.loc 1 787 0
 2218 0044 0EE0     		b	.L183
 2219              	.L206:
 788:Middlewares/Third_Party/wakaama/objects.c ****             }
 789:Middlewares/Third_Party/wakaama/objects.c ****             memset(targetP, 0, sizeof(lwm2m_server_t));
 790:Middlewares/Third_Party/wakaama/objects.c ****             targetP->secObjInstID = securityInstP->id;
 791:Middlewares/Third_Party/wakaama/objects.c **** 
 792:Middlewares/Third_Party/wakaama/objects.c ****             if (0 == lwm2m_data_decode_bool(dataP + 0, &isBootstrap))
 793:Middlewares/Third_Party/wakaama/objects.c ****             {
 794:Middlewares/Third_Party/wakaama/objects.c ****                 lwm2m_free(targetP);
 2220              		.loc 1 794 0
 2221 0046 3846     		mov	r0, r7
 2222 0048 FFF7FEFF 		bl	lwm2m_free
 2223              	.LVL318:
 795:Middlewares/Third_Party/wakaama/objects.c ****                 lwm2m_data_free(size, dataP);
 2224              		.loc 1 795 0
 2225 004c 0299     		ldr	r1, [sp, #8]
ARM GAS  /var/folders/0d/93p3r6493yg7p0rvl_4r983m0000gn/T//ccOiaSyY.s 			page 59


 2226 004e 0398     		ldr	r0, [sp, #12]
 2227 0050 FFF7FEFF 		bl	lwm2m_data_free
 2228              	.LVL319:
 796:Middlewares/Third_Party/wakaama/objects.c ****                 return -1;
 2229              		.loc 1 796 0
 2230 0054 06E0     		b	.L183
 2231              	.L187:
 797:Middlewares/Third_Party/wakaama/objects.c ****             }
 798:Middlewares/Third_Party/wakaama/objects.c **** 
 799:Middlewares/Third_Party/wakaama/objects.c ****             if (0 == lwm2m_data_decode_int(dataP + 1, &value)
 800:Middlewares/Third_Party/wakaama/objects.c ****              || value < (isBootstrap ? 0 : 1) || value > 0xFFFF)                // 0 is forbidden a
 801:Middlewares/Third_Party/wakaama/objects.c ****             {
 802:Middlewares/Third_Party/wakaama/objects.c ****                 lwm2m_free(targetP);
 2232              		.loc 1 802 0
 2233 0056 3846     		mov	r0, r7
 2234 0058 FFF7FEFF 		bl	lwm2m_free
 2235              	.LVL320:
 803:Middlewares/Third_Party/wakaama/objects.c ****                 lwm2m_data_free(size, dataP);
 2236              		.loc 1 803 0
 2237 005c 0299     		ldr	r1, [sp, #8]
 2238 005e 0398     		ldr	r0, [sp, #12]
 2239 0060 FFF7FEFF 		bl	lwm2m_data_free
 2240              	.LVL321:
 2241              	.L183:
 773:Middlewares/Third_Party/wakaama/objects.c ****             dataP[0].id = LWM2M_SECURITY_BOOTSTRAP_ID;
 2242              		.loc 1 773 0 discriminator 2
 2243 0064 4FF0FF30 		mov	r0, #-1
 2244 0068 ACE0     		b	.L176
 2245              	.LVL322:
 2246              	.L190:
 804:Middlewares/Third_Party/wakaama/objects.c ****                 return -1;
 805:Middlewares/Third_Party/wakaama/objects.c ****             }
 806:Middlewares/Third_Party/wakaama/objects.c ****             targetP->shortID = value;
 807:Middlewares/Third_Party/wakaama/objects.c **** 
 808:Middlewares/Third_Party/wakaama/objects.c ****             if (isBootstrap == true)
 809:Middlewares/Third_Party/wakaama/objects.c ****             {
 810:Middlewares/Third_Party/wakaama/objects.c ****                 if (0 == lwm2m_data_decode_int(dataP + 2, &value)
 811:Middlewares/Third_Party/wakaama/objects.c ****                  || value < 0 || value > 0xFFFFFFFF)             // This is an implementation limit
 812:Middlewares/Third_Party/wakaama/objects.c ****                 {
 813:Middlewares/Third_Party/wakaama/objects.c ****                     lwm2m_free(targetP);
 2247              		.loc 1 813 0
 2248 006a 3846     		mov	r0, r7
 2249 006c FFF7FEFF 		bl	lwm2m_free
 2250              	.LVL323:
 814:Middlewares/Third_Party/wakaama/objects.c ****                     lwm2m_data_free(size, dataP);
 2251              		.loc 1 814 0
 2252 0070 0299     		ldr	r1, [sp, #8]
 2253 0072 0398     		ldr	r0, [sp, #12]
 2254 0074 FFF7FEFF 		bl	lwm2m_data_free
 2255              	.LVL324:
 815:Middlewares/Third_Party/wakaama/objects.c ****                     return -1;
 2256              		.loc 1 815 0
 2257 0078 F4E7     		b	.L183
 2258              	.L192:
 816:Middlewares/Third_Party/wakaama/objects.c ****                 }
 817:Middlewares/Third_Party/wakaama/objects.c ****                 // lifetime of a bootstrap server is set to ClientHoldOffTime
 818:Middlewares/Third_Party/wakaama/objects.c ****                 targetP->lifetime = value;
ARM GAS  /var/folders/0d/93p3r6493yg7p0rvl_4r983m0000gn/T//ccOiaSyY.s 			page 60


 819:Middlewares/Third_Party/wakaama/objects.c **** 
 820:Middlewares/Third_Party/wakaama/objects.c ****                 if (checkOnly)
 821:Middlewares/Third_Party/wakaama/objects.c ****                 {
 822:Middlewares/Third_Party/wakaama/objects.c ****                     lwm2m_free(targetP);
 823:Middlewares/Third_Party/wakaama/objects.c ****                 }
 824:Middlewares/Third_Party/wakaama/objects.c ****                 else
 825:Middlewares/Third_Party/wakaama/objects.c ****                 {
 826:Middlewares/Third_Party/wakaama/objects.c ****                     contextP->bootstrapServerList = (lwm2m_server_t*)LWM2M_LIST_ADD(contextP->boots
 2259              		.loc 1 826 0
 2260 007a 3946     		mov	r1, r7
 2261 007c 2869     		ldr	r0, [r5, #16]
 2262 007e FFF7FEFF 		bl	lwm2m_list_add
 2263              	.LVL325:
 2264 0082 2861     		str	r0, [r5, #16]
 2265              	.L193:
 827:Middlewares/Third_Party/wakaama/objects.c ****                 }
 828:Middlewares/Third_Party/wakaama/objects.c ****             }
 829:Middlewares/Third_Party/wakaama/objects.c ****             else
 830:Middlewares/Third_Party/wakaama/objects.c ****             {
 831:Middlewares/Third_Party/wakaama/objects.c ****                 lwm2m_list_t * serverInstP;     // instanceID of the server in the LWM2M Server Obj
 832:Middlewares/Third_Party/wakaama/objects.c **** 
 833:Middlewares/Third_Party/wakaama/objects.c ****                 serverInstP = prv_findServerInstance(serverObjP, targetP->shortID);
 834:Middlewares/Third_Party/wakaama/objects.c ****                 if (serverInstP == NULL)
 835:Middlewares/Third_Party/wakaama/objects.c ****                 {
 836:Middlewares/Third_Party/wakaama/objects.c ****                     lwm2m_free(targetP);
 837:Middlewares/Third_Party/wakaama/objects.c ****                 }
 838:Middlewares/Third_Party/wakaama/objects.c ****                 else
 839:Middlewares/Third_Party/wakaama/objects.c ****                 {
 840:Middlewares/Third_Party/wakaama/objects.c ****                     if (0 != prv_getMandatoryInfo(serverObjP, serverInstP->id, targetP))
 841:Middlewares/Third_Party/wakaama/objects.c ****                     {
 842:Middlewares/Third_Party/wakaama/objects.c ****                         lwm2m_free(targetP);
 843:Middlewares/Third_Party/wakaama/objects.c ****                         lwm2m_data_free(size, dataP);
 844:Middlewares/Third_Party/wakaama/objects.c ****                         return -1;
 845:Middlewares/Third_Party/wakaama/objects.c ****                     }
 846:Middlewares/Third_Party/wakaama/objects.c ****                     targetP->status = STATE_DEREGISTERED;
 847:Middlewares/Third_Party/wakaama/objects.c ****                     if (checkOnly)
 848:Middlewares/Third_Party/wakaama/objects.c ****                     {
 849:Middlewares/Third_Party/wakaama/objects.c ****                         lwm2m_free(targetP);
 850:Middlewares/Third_Party/wakaama/objects.c ****                     }
 851:Middlewares/Third_Party/wakaama/objects.c ****                     else
 852:Middlewares/Third_Party/wakaama/objects.c ****                     {
 853:Middlewares/Third_Party/wakaama/objects.c ****                         contextP->serverList = (lwm2m_server_t*)LWM2M_LIST_ADD(contextP->serverList
 854:Middlewares/Third_Party/wakaama/objects.c ****                     }
 855:Middlewares/Third_Party/wakaama/objects.c ****                 }
 856:Middlewares/Third_Party/wakaama/objects.c ****             }
 857:Middlewares/Third_Party/wakaama/objects.c ****             lwm2m_data_free(size, dataP);
 2266              		.loc 1 857 0 discriminator 1
 2267 0084 0299     		ldr	r1, [sp, #8]
 2268 0086 0398     		ldr	r0, [sp, #12]
 2269 0088 FFF7FEFF 		bl	lwm2m_data_free
 2270              	.LVL326:
 2271              	.L182:
 2272              	.LBE26:
 858:Middlewares/Third_Party/wakaama/objects.c ****         }
 859:Middlewares/Third_Party/wakaama/objects.c ****         securityInstP = securityInstP->next;
 2273              		.loc 1 859 0
 2274 008c 2468     		ldr	r4, [r4]
ARM GAS  /var/folders/0d/93p3r6493yg7p0rvl_4r983m0000gn/T//ccOiaSyY.s 			page 61


 2275              	.LVL327:
 2276              	.L181:
 758:Middlewares/Third_Party/wakaama/objects.c ****     {
 2277              		.loc 1 758 0
 2278 008e 002C     		cmp	r4, #0
 2279 0090 00F09780 		beq	.L203
 760:Middlewares/Third_Party/wakaama/objects.c ****          && LWM2M_LIST_FIND(contextP->serverList, securityInstP->id) == NULL)
 2280              		.loc 1 760 0
 2281 0094 A188     		ldrh	r1, [r4, #4]
 2282 0096 2869     		ldr	r0, [r5, #16]
 2283 0098 FFF7FEFF 		bl	lwm2m_list_find
 2284              	.LVL328:
 2285 009c 0028     		cmp	r0, #0
 2286 009e F5D1     		bne	.L182
 761:Middlewares/Third_Party/wakaama/objects.c ****         {
 2287              		.loc 1 761 0
 2288 00a0 A188     		ldrh	r1, [r4, #4]
 2289 00a2 6869     		ldr	r0, [r5, #20]
 2290 00a4 FFF7FEFF 		bl	lwm2m_list_find
 2291              	.LVL329:
 2292 00a8 0028     		cmp	r0, #0
 2293 00aa EFD1     		bne	.L182
 2294              	.LBB28:
 769:Middlewares/Third_Party/wakaama/objects.c **** 
 2295              		.loc 1 769 0
 2296 00ac 0022     		movs	r2, #0
 2297 00ae 0023     		movs	r3, #0
 2298 00b0 CDE90423 		strd	r2, [sp, #16]
 771:Middlewares/Third_Party/wakaama/objects.c ****             dataP = lwm2m_data_new(size);
 2299              		.loc 1 771 0
 2300 00b4 0320     		movs	r0, #3
 2301 00b6 0390     		str	r0, [sp, #12]
 772:Middlewares/Third_Party/wakaama/objects.c ****             if (dataP == NULL) return -1;
 2302              		.loc 1 772 0
 2303 00b8 FFF7FEFF 		bl	lwm2m_data_new
 2304              	.LVL330:
 2305 00bc 0290     		str	r0, [sp, #8]
 773:Middlewares/Third_Party/wakaama/objects.c ****             dataP[0].id = LWM2M_SECURITY_BOOTSTRAP_ID;
 2306              		.loc 1 773 0
 2307 00be 0028     		cmp	r0, #0
 2308 00c0 D0D0     		beq	.L183
 774:Middlewares/Third_Party/wakaama/objects.c ****             dataP[1].id = LWM2M_SECURITY_SHORT_SERVER_ID;
 2309              		.loc 1 774 0
 2310 00c2 0123     		movs	r3, #1
 2311 00c4 4380     		strh	r3, [r0, #2]	@ movhi
 775:Middlewares/Third_Party/wakaama/objects.c ****             dataP[2].id = LWM2M_SECURITY_HOLD_OFF_ID;
 2312              		.loc 1 775 0
 2313 00c6 06AA     		add	r2, sp, #24
 2314 00c8 52F8103D 		ldr	r3, [r2, #-16]!
 2315 00cc 0A21     		movs	r1, #10
 2316 00ce 5982     		strh	r1, [r3, #18]	@ movhi
 776:Middlewares/Third_Party/wakaama/objects.c **** 
 2317              		.loc 1 776 0
 2318 00d0 0B21     		movs	r1, #11
 2319 00d2 5984     		strh	r1, [r3, #34]	@ movhi
 778:Middlewares/Third_Party/wakaama/objects.c ****             {
 2320              		.loc 1 778 0
ARM GAS  /var/folders/0d/93p3r6493yg7p0rvl_4r983m0000gn/T//ccOiaSyY.s 			page 62


 2321 00d4 F768     		ldr	r7, [r6, #12]
 2322 00d6 3346     		mov	r3, r6
 2323 00d8 03A9     		add	r1, sp, #12
 2324 00da A088     		ldrh	r0, [r4, #4]
 2325 00dc B847     		blx	r7
 2326              	.LVL331:
 2327 00de 4528     		cmp	r0, #69
 2328 00e0 A7D1     		bne	.L204
 784:Middlewares/Third_Party/wakaama/objects.c ****             if (targetP == NULL) {
 2329              		.loc 1 784 0
 2330 00e2 3020     		movs	r0, #48
 2331 00e4 FFF7FEFF 		bl	lwm2m_malloc
 2332              	.LVL332:
 785:Middlewares/Third_Party/wakaama/objects.c ****                 lwm2m_data_free(size, dataP);
 2333              		.loc 1 785 0
 2334 00e8 0746     		mov	r7, r0
 2335 00ea 0028     		cmp	r0, #0
 2336 00ec A6D0     		beq	.L205
 789:Middlewares/Third_Party/wakaama/objects.c ****             targetP->secObjInstID = securityInstP->id;
 2337              		.loc 1 789 0
 2338 00ee 3022     		movs	r2, #48
 2339 00f0 0021     		movs	r1, #0
 2340 00f2 FFF7FEFF 		bl	memset
 2341              	.LVL333:
 790:Middlewares/Third_Party/wakaama/objects.c **** 
 2342              		.loc 1 790 0
 2343 00f6 A388     		ldrh	r3, [r4, #4]
 2344 00f8 BB80     		strh	r3, [r7, #4]	@ movhi
 792:Middlewares/Third_Party/wakaama/objects.c ****             {
 2345              		.loc 1 792 0
 2346 00fa 0DF10701 		add	r1, sp, #7
 2347 00fe 0298     		ldr	r0, [sp, #8]
 2348 0100 FFF7FEFF 		bl	lwm2m_data_decode_bool
 2349              	.LVL334:
 2350 0104 0028     		cmp	r0, #0
 2351 0106 9ED0     		beq	.L206
 799:Middlewares/Third_Party/wakaama/objects.c ****              || value < (isBootstrap ? 0 : 1) || value > 0xFFFF)                // 0 is forbidden a
 2352              		.loc 1 799 0
 2353 0108 04A9     		add	r1, sp, #16
 2354 010a 0298     		ldr	r0, [sp, #8]
 2355 010c 1030     		adds	r0, r0, #16
 2356 010e FFF7FEFF 		bl	lwm2m_data_decode_int
 2357              	.LVL335:
 2358 0112 0028     		cmp	r0, #0
 2359 0114 9FD0     		beq	.L187
 800:Middlewares/Third_Party/wakaama/objects.c ****             {
 2360              		.loc 1 800 0
 2361 0116 9DF807C0 		ldrb	ip, [sp, #7]	@ zero_extendqisi2
 2362 011a 8CF00100 		eor	r0, ip, #1
 2363 011e C0B2     		uxtb	r0, r0
 2364 0120 0021     		movs	r1, #0
 2365 0122 DDE90423 		ldrd	r2, [sp, #16]
 2366 0126 8242     		cmp	r2, r0
 2367 0128 73EB0101 		sbcs	r1, r3, r1
 2368 012c 93DB     		blt	.L187
 800:Middlewares/Third_Party/wakaama/objects.c ****             {
 2369              		.loc 1 800 0 is_stmt 0 discriminator 1
ARM GAS  /var/folders/0d/93p3r6493yg7p0rvl_4r983m0000gn/T//ccOiaSyY.s 			page 63


 2370 012e B2F5803F 		cmp	r2, #65536
 2371 0132 73F10001 		sbcs	r1, r3, #0
 2372 0136 8EDA     		bge	.L187
 806:Middlewares/Third_Party/wakaama/objects.c **** 
 2373              		.loc 1 806 0 is_stmt 1
 2374 0138 91B2     		uxth	r1, r2
 2375 013a F980     		strh	r1, [r7, #6]	@ movhi
 808:Middlewares/Third_Party/wakaama/objects.c ****             {
 2376              		.loc 1 808 0
 2377 013c BCF1000F 		cmp	ip, #0
 2378 0140 19D0     		beq	.L189
 810:Middlewares/Third_Party/wakaama/objects.c ****                  || value < 0 || value > 0xFFFFFFFF)             // This is an implementation limit
 2379              		.loc 1 810 0
 2380 0142 04A9     		add	r1, sp, #16
 2381 0144 0298     		ldr	r0, [sp, #8]
 2382 0146 2030     		adds	r0, r0, #32
 2383 0148 FFF7FEFF 		bl	lwm2m_data_decode_int
 2384              	.LVL336:
 2385 014c 0028     		cmp	r0, #0
 2386 014e 8CD0     		beq	.L190
 811:Middlewares/Third_Party/wakaama/objects.c ****                 {
 2387              		.loc 1 811 0
 2388 0150 DDE90423 		ldrd	r2, [sp, #16]
 2389 0154 002A     		cmp	r2, #0
 2390 0156 73F10001 		sbcs	r1, r3, #0
 2391 015a 86DB     		blt	.L190
 811:Middlewares/Third_Party/wakaama/objects.c ****                 {
 2392              		.loc 1 811 0 is_stmt 0 discriminator 1
 2393 015c 002A     		cmp	r2, #0
 2394 015e 73F10101 		sbcs	r1, r3, #1
 2395 0162 82DA     		bge	.L190
 818:Middlewares/Third_Party/wakaama/objects.c **** 
 2396              		.loc 1 818 0 is_stmt 1
 2397 0164 C7E90223 		strd	r2, [r7, #8]
 820:Middlewares/Third_Party/wakaama/objects.c ****                 {
 2398              		.loc 1 820 0
 2399 0168 B9F1000F 		cmp	r9, #0
 2400 016c 85D0     		beq	.L192
 822:Middlewares/Third_Party/wakaama/objects.c ****                 }
 2401              		.loc 1 822 0
 2402 016e 3846     		mov	r0, r7
 2403 0170 FFF7FEFF 		bl	lwm2m_free
 2404              	.LVL337:
 2405 0174 86E7     		b	.L193
 2406              	.L189:
 2407              	.LBB27:
 833:Middlewares/Third_Party/wakaama/objects.c ****                 if (serverInstP == NULL)
 2408              		.loc 1 833 0
 2409 0176 4046     		mov	r0, r8
 2410 0178 FFF7FEFF 		bl	prv_findServerInstance
 2411              	.LVL338:
 834:Middlewares/Third_Party/wakaama/objects.c ****                 {
 2412              		.loc 1 834 0
 2413 017c 78B1     		cbz	r0, .L207
 840:Middlewares/Third_Party/wakaama/objects.c ****                     {
 2414              		.loc 1 840 0
 2415 017e 3A46     		mov	r2, r7
ARM GAS  /var/folders/0d/93p3r6493yg7p0rvl_4r983m0000gn/T//ccOiaSyY.s 			page 64


 2416 0180 8188     		ldrh	r1, [r0, #4]
 2417 0182 4046     		mov	r0, r8
 2418              	.LVL339:
 2419 0184 FFF7FEFF 		bl	prv_getMandatoryInfo
 2420              	.LVL340:
 2421 0188 68B9     		cbnz	r0, .L208
 846:Middlewares/Third_Party/wakaama/objects.c ****                     if (checkOnly)
 2422              		.loc 1 846 0
 2423 018a 0023     		movs	r3, #0
 2424 018c 87F82030 		strb	r3, [r7, #32]
 847:Middlewares/Third_Party/wakaama/objects.c ****                     {
 2425              		.loc 1 847 0
 2426 0190 B9F1000F 		cmp	r9, #0
 2427 0194 0FD0     		beq	.L196
 849:Middlewares/Third_Party/wakaama/objects.c ****                     }
 2428              		.loc 1 849 0
 2429 0196 3846     		mov	r0, r7
 2430 0198 FFF7FEFF 		bl	lwm2m_free
 2431              	.LVL341:
 2432 019c 72E7     		b	.L193
 2433              	.LVL342:
 2434              	.L207:
 836:Middlewares/Third_Party/wakaama/objects.c ****                 }
 2435              		.loc 1 836 0
 2436 019e 3846     		mov	r0, r7
 2437              	.LVL343:
 2438 01a0 FFF7FEFF 		bl	lwm2m_free
 2439              	.LVL344:
 2440 01a4 6EE7     		b	.L193
 2441              	.L208:
 842:Middlewares/Third_Party/wakaama/objects.c ****                         lwm2m_data_free(size, dataP);
 2442              		.loc 1 842 0
 2443 01a6 3846     		mov	r0, r7
 2444 01a8 FFF7FEFF 		bl	lwm2m_free
 2445              	.LVL345:
 843:Middlewares/Third_Party/wakaama/objects.c ****                         return -1;
 2446              		.loc 1 843 0
 2447 01ac 0299     		ldr	r1, [sp, #8]
 2448 01ae 0398     		ldr	r0, [sp, #12]
 2449 01b0 FFF7FEFF 		bl	lwm2m_data_free
 2450              	.LVL346:
 844:Middlewares/Third_Party/wakaama/objects.c ****                     }
 2451              		.loc 1 844 0
 2452 01b4 56E7     		b	.L183
 2453              	.L196:
 853:Middlewares/Third_Party/wakaama/objects.c ****                     }
 2454              		.loc 1 853 0
 2455 01b6 3946     		mov	r1, r7
 2456 01b8 6869     		ldr	r0, [r5, #20]
 2457 01ba FFF7FEFF 		bl	lwm2m_list_add
 2458              	.LVL347:
 2459 01be 6861     		str	r0, [r5, #20]
 2460 01c0 60E7     		b	.L193
 2461              	.LVL348:
 2462              	.L203:
 2463              	.LBE27:
 2464              	.LBE28:
ARM GAS  /var/folders/0d/93p3r6493yg7p0rvl_4r983m0000gn/T//ccOiaSyY.s 			page 65


 860:Middlewares/Third_Party/wakaama/objects.c ****     }
 861:Middlewares/Third_Party/wakaama/objects.c **** 
 862:Middlewares/Third_Party/wakaama/objects.c ****     return 0;
 2465              		.loc 1 862 0
 2466 01c2 0020     		movs	r0, #0
 2467              	.LVL349:
 2468              	.L176:
 863:Middlewares/Third_Party/wakaama/objects.c **** }
 2469              		.loc 1 863 0
 2470 01c4 07B0     		add	sp, sp, #28
 2471              	.LCFI44:
 2472              		.cfi_remember_state
 2473              		.cfi_def_cfa_offset 28
 2474              		@ sp needed
 2475 01c6 BDE8F083 		pop	{r4, r5, r6, r7, r8, r9, pc}
 2476              	.LVL350:
 2477              	.L200:
 2478              	.LCFI45:
 2479              		.cfi_restore_state
 755:Middlewares/Third_Party/wakaama/objects.c **** 
 2480              		.loc 1 755 0
 2481 01ca 4FF0FF30 		mov	r0, #-1
 2482              	.LVL351:
 2483 01ce F9E7     		b	.L176
 2484              		.cfi_endproc
 2485              	.LFE17:
 2487              		.section	.text.object_createInstance,"ax",%progbits
 2488              		.align	1
 2489              		.global	object_createInstance
 2490              		.syntax unified
 2491              		.thumb
 2492              		.thumb_func
 2493              		.fpu fpv4-sp-d16
 2495              	object_createInstance:
 2496              	.LFB18:
 864:Middlewares/Third_Party/wakaama/objects.c **** 
 865:Middlewares/Third_Party/wakaama/objects.c **** uint8_t object_createInstance(lwm2m_context_t * contextP,
 866:Middlewares/Third_Party/wakaama/objects.c ****                                     lwm2m_uri_t * uriP,
 867:Middlewares/Third_Party/wakaama/objects.c ****                                     lwm2m_data_t * dataP)
 868:Middlewares/Third_Party/wakaama/objects.c **** {
 2497              		.loc 1 868 0
 2498              		.cfi_startproc
 2499              		@ args = 0, pretend = 0, frame = 0
 2500              		@ frame_needed = 0, uses_anonymous_args = 0
 2501              	.LVL352:
 2502 0000 70B5     		push	{r4, r5, r6, lr}
 2503              	.LCFI46:
 2504              		.cfi_def_cfa_offset 16
 2505              		.cfi_offset 4, -16
 2506              		.cfi_offset 5, -12
 2507              		.cfi_offset 6, -8
 2508              		.cfi_offset 14, -4
 2509 0002 1646     		mov	r6, r2
 869:Middlewares/Third_Party/wakaama/objects.c ****     lwm2m_object_t * targetP;
 870:Middlewares/Third_Party/wakaama/objects.c **** 
 871:Middlewares/Third_Party/wakaama/objects.c ****     LOG_URI(uriP);
 872:Middlewares/Third_Party/wakaama/objects.c ****     targetP = (lwm2m_object_t *)LWM2M_LIST_FIND(contextP->objectList, uriP->objectId);
ARM GAS  /var/folders/0d/93p3r6493yg7p0rvl_4r983m0000gn/T//ccOiaSyY.s 			page 66


 2510              		.loc 1 872 0
 2511 0004 4988     		ldrh	r1, [r1, #2]
 2512              	.LVL353:
 2513 0006 8069     		ldr	r0, [r0, #24]
 2514              	.LVL354:
 2515 0008 FFF7FEFF 		bl	lwm2m_list_find
 2516              	.LVL355:
 873:Middlewares/Third_Party/wakaama/objects.c ****     if (NULL == targetP) return COAP_404_NOT_FOUND;
 2517              		.loc 1 873 0
 2518 000c 50B1     		cbz	r0, .L211
 2519 000e 0446     		mov	r4, r0
 874:Middlewares/Third_Party/wakaama/objects.c **** 
 875:Middlewares/Third_Party/wakaama/objects.c ****     if (NULL == targetP->createFunc)
 2520              		.loc 1 875 0
 2521 0010 8569     		ldr	r5, [r0, #24]
 2522 0012 4DB1     		cbz	r5, .L212
 876:Middlewares/Third_Party/wakaama/objects.c ****     {
 877:Middlewares/Third_Party/wakaama/objects.c ****         return COAP_405_METHOD_NOT_ALLOWED;
 878:Middlewares/Third_Party/wakaama/objects.c ****     }
 879:Middlewares/Third_Party/wakaama/objects.c **** 
 880:Middlewares/Third_Party/wakaama/objects.c ****     return targetP->createFunc(lwm2m_list_newId(targetP->instanceList), dataP->value.asChildren.cou
 2523              		.loc 1 880 0
 2524 0014 8068     		ldr	r0, [r0, #8]
 2525              	.LVL356:
 2526 0016 FFF7FEFF 		bl	lwm2m_list_newId
 2527              	.LVL357:
 2528 001a 2346     		mov	r3, r4
 2529 001c F268     		ldr	r2, [r6, #12]
 2530 001e B168     		ldr	r1, [r6, #8]
 2531 0020 A847     		blx	r5
 2532              	.LVL358:
 2533              	.L210:
 881:Middlewares/Third_Party/wakaama/objects.c **** }
 2534              		.loc 1 881 0
 2535 0022 70BD     		pop	{r4, r5, r6, pc}
 2536              	.LVL359:
 2537              	.L211:
 873:Middlewares/Third_Party/wakaama/objects.c **** 
 2538              		.loc 1 873 0
 2539 0024 8420     		movs	r0, #132
 2540              	.LVL360:
 2541 0026 FCE7     		b	.L210
 2542              	.LVL361:
 2543              	.L212:
 877:Middlewares/Third_Party/wakaama/objects.c ****     }
 2544              		.loc 1 877 0
 2545 0028 8520     		movs	r0, #133
 2546              	.LVL362:
 2547 002a FAE7     		b	.L210
 2548              		.cfi_endproc
 2549              	.LFE18:
 2551              		.section	.text.object_writeInstance,"ax",%progbits
 2552              		.align	1
 2553              		.global	object_writeInstance
 2554              		.syntax unified
 2555              		.thumb
 2556              		.thumb_func
ARM GAS  /var/folders/0d/93p3r6493yg7p0rvl_4r983m0000gn/T//ccOiaSyY.s 			page 67


 2557              		.fpu fpv4-sp-d16
 2559              	object_writeInstance:
 2560              	.LFB19:
 882:Middlewares/Third_Party/wakaama/objects.c **** 
 883:Middlewares/Third_Party/wakaama/objects.c **** uint8_t object_writeInstance(lwm2m_context_t * contextP,
 884:Middlewares/Third_Party/wakaama/objects.c ****                             lwm2m_uri_t * uriP,
 885:Middlewares/Third_Party/wakaama/objects.c ****                             lwm2m_data_t * dataP)
 886:Middlewares/Third_Party/wakaama/objects.c **** {
 2561              		.loc 1 886 0
 2562              		.cfi_startproc
 2563              		@ args = 0, pretend = 0, frame = 0
 2564              		@ frame_needed = 0, uses_anonymous_args = 0
 2565              	.LVL363:
 2566 0000 38B5     		push	{r3, r4, r5, lr}
 2567              	.LCFI47:
 2568              		.cfi_def_cfa_offset 16
 2569              		.cfi_offset 3, -16
 2570              		.cfi_offset 4, -12
 2571              		.cfi_offset 5, -8
 2572              		.cfi_offset 14, -4
 2573 0002 1446     		mov	r4, r2
 887:Middlewares/Third_Party/wakaama/objects.c ****     lwm2m_object_t * targetP;
 888:Middlewares/Third_Party/wakaama/objects.c **** 
 889:Middlewares/Third_Party/wakaama/objects.c ****     LOG_URI(uriP);
 890:Middlewares/Third_Party/wakaama/objects.c ****     targetP = (lwm2m_object_t *)LWM2M_LIST_FIND(contextP->objectList, uriP->objectId);
 2574              		.loc 1 890 0
 2575 0004 4988     		ldrh	r1, [r1, #2]
 2576              	.LVL364:
 2577 0006 8069     		ldr	r0, [r0, #24]
 2578              	.LVL365:
 2579 0008 FFF7FEFF 		bl	lwm2m_list_find
 2580              	.LVL366:
 891:Middlewares/Third_Party/wakaama/objects.c ****     if (NULL == targetP) return COAP_404_NOT_FOUND;
 2581              		.loc 1 891 0
 2582 000c 38B1     		cbz	r0, .L216
 2583 000e 0346     		mov	r3, r0
 892:Middlewares/Third_Party/wakaama/objects.c **** 
 893:Middlewares/Third_Party/wakaama/objects.c ****     if (NULL == targetP->writeFunc)
 2584              		.loc 1 893 0
 2585 0010 0569     		ldr	r5, [r0, #16]
 2586 0012 35B1     		cbz	r5, .L217
 894:Middlewares/Third_Party/wakaama/objects.c ****     {
 895:Middlewares/Third_Party/wakaama/objects.c ****         return COAP_405_METHOD_NOT_ALLOWED;
 896:Middlewares/Third_Party/wakaama/objects.c ****     }
 897:Middlewares/Third_Party/wakaama/objects.c **** 
 898:Middlewares/Third_Party/wakaama/objects.c ****     return targetP->writeFunc(dataP->id, dataP->value.asChildren.count, dataP->value.asChildren.arr
 2587              		.loc 1 898 0
 2588 0014 E268     		ldr	r2, [r4, #12]
 2589 0016 A168     		ldr	r1, [r4, #8]
 2590 0018 6088     		ldrh	r0, [r4, #2]
 2591              	.LVL367:
 2592 001a A847     		blx	r5
 2593              	.LVL368:
 2594              	.L215:
 899:Middlewares/Third_Party/wakaama/objects.c **** }
 2595              		.loc 1 899 0
 2596 001c 38BD     		pop	{r3, r4, r5, pc}
ARM GAS  /var/folders/0d/93p3r6493yg7p0rvl_4r983m0000gn/T//ccOiaSyY.s 			page 68


 2597              	.LVL369:
 2598              	.L216:
 891:Middlewares/Third_Party/wakaama/objects.c **** 
 2599              		.loc 1 891 0
 2600 001e 8420     		movs	r0, #132
 2601              	.LVL370:
 2602 0020 FCE7     		b	.L215
 2603              	.LVL371:
 2604              	.L217:
 895:Middlewares/Third_Party/wakaama/objects.c ****     }
 2605              		.loc 1 895 0
 2606 0022 8520     		movs	r0, #133
 2607              	.LVL372:
 2608 0024 FAE7     		b	.L215
 2609              		.cfi_endproc
 2610              	.LFE19:
 2612              		.section	.rodata.object_getRegisterPayload.str1.4,"aMS",%progbits,1
 2613              		.align	2
 2614              	.LC0:
 2615 0000 3C00     		.ascii	"<\000"
 2616 0002 0000     		.space	2
 2617              	.LC1:
 2618 0004 2F00     		.ascii	"/\000"
 2619 0006 0000     		.space	2
 2620              	.LC2:
 2621 0008 3E3B7274 		.ascii	">;rt=\"oma.lwm2m\",\000"
 2621      3D226F6D 
 2621      612E6C77 
 2621      6D326D22 
 2621      2C00
 2622 001a 0000     		.space	2
 2623              	.LC3:
 2624 001c 3E2C00   		.ascii	">,\000"
 2625              		.text
 2626              	.Letext0:
 2627              		.file 2 "/usr/local/gcc_arm/gcc-arm-none-eabi-7-2017-q4-major/arm-none-eabi/include/machine/_defau
 2628              		.file 3 "/usr/local/gcc_arm/gcc-arm-none-eabi-7-2017-q4-major/arm-none-eabi/include/sys/_stdint.h"
 2629              		.file 4 "/usr/local/gcc_arm/gcc-arm-none-eabi-7-2017-q4-major/lib/gcc/arm-none-eabi/7.2.1/include/
 2630              		.file 5 "/usr/local/gcc_arm/gcc-arm-none-eabi-7-2017-q4-major/arm-none-eabi/include/sys/lock.h"
 2631              		.file 6 "/usr/local/gcc_arm/gcc-arm-none-eabi-7-2017-q4-major/arm-none-eabi/include/sys/_types.h"
 2632              		.file 7 "/usr/local/gcc_arm/gcc-arm-none-eabi-7-2017-q4-major/arm-none-eabi/include/sys/reent.h"
 2633              		.file 8 "/usr/local/gcc_arm/gcc-arm-none-eabi-7-2017-q4-major/arm-none-eabi/include/sys/_timeval.h
 2634              		.file 9 "/usr/local/gcc_arm/gcc-arm-none-eabi-7-2017-q4-major/arm-none-eabi/include/time.h"
 2635              		.file 10 "Middlewares/Third_Party/wakaama/liblwm2m.h"
 2636              		.file 11 "/usr/local/gcc_arm/gcc-arm-none-eabi-7-2017-q4-major/arm-none-eabi/include/stdlib.h"
 2637              		.file 12 "Middlewares/Third_Party/wakaama/er-coap-13/er-coap-13.h"
 2638              		.file 13 "Middlewares/Third_Party/wakaama/internals.h"
 2639              		.file 14 "<built-in>"
 2640              		.file 15 "/usr/local/gcc_arm/gcc-arm-none-eabi-7-2017-q4-major/arm-none-eabi/include/string.h"
ARM GAS  /var/folders/0d/93p3r6493yg7p0rvl_4r983m0000gn/T//ccOiaSyY.s 			page 69

