ARM GAS  /var/folders/0d/93p3r6493yg7p0rvl_4r983m0000gn/T//ccW1MMiw.s 			page 1


   1              		.cpu cortex-m4
   2              		.eabi_attribute 27, 1
   3              		.eabi_attribute 28, 1
   4              		.eabi_attribute 20, 1
   5              		.eabi_attribute 21, 1
   6              		.eabi_attribute 23, 3
   7              		.eabi_attribute 24, 1
   8              		.eabi_attribute 25, 1
   9              		.eabi_attribute 26, 1
  10              		.eabi_attribute 30, 1
  11              		.eabi_attribute 34, 1
  12              		.eabi_attribute 18, 4
  13              		.file	"object_server.c"
  14              		.text
  15              	.Ltext0:
  16              		.cfi_sections	.debug_frame
  17              		.section	.text.prv_server_execute,"ax",%progbits
  18              		.align	1
  19              		.syntax unified
  20              		.thumb
  21              		.thumb_func
  22              		.fpu fpv4-sp-d16
  24              	prv_server_execute:
  25              	.LFB8:
  26              		.file 1 "Src/communication/wakaama_client/objects/object_server.c"
   1:Src/communication/wakaama_client/objects/object_server.c **** /*******************************************************************************
   2:Src/communication/wakaama_client/objects/object_server.c ****  *
   3:Src/communication/wakaama_client/objects/object_server.c ****  * Copyright (c) 2013, 2014 Intel Corporation and others.
   4:Src/communication/wakaama_client/objects/object_server.c ****  * All rights reserved. This program and the accompanying materials
   5:Src/communication/wakaama_client/objects/object_server.c ****  * are made available under the terms of the Eclipse Public License v1.0
   6:Src/communication/wakaama_client/objects/object_server.c ****  * and Eclipse Distribution License v1.0 which accompany this distribution.
   7:Src/communication/wakaama_client/objects/object_server.c ****  *
   8:Src/communication/wakaama_client/objects/object_server.c ****  * The Eclipse Public License is available at
   9:Src/communication/wakaama_client/objects/object_server.c ****  *    http://www.eclipse.org/legal/epl-v10.html
  10:Src/communication/wakaama_client/objects/object_server.c ****  * The Eclipse Distribution License is available at
  11:Src/communication/wakaama_client/objects/object_server.c ****  *    http://www.eclipse.org/org/documents/edl-v10.php.
  12:Src/communication/wakaama_client/objects/object_server.c ****  *
  13:Src/communication/wakaama_client/objects/object_server.c ****  * Contributors:
  14:Src/communication/wakaama_client/objects/object_server.c ****  *    David Navarro, Intel Corporation - initial API and implementation
  15:Src/communication/wakaama_client/objects/object_server.c ****  *    Julien Vermillard, Sierra Wireless
  16:Src/communication/wakaama_client/objects/object_server.c ****  *    Bosch Software Innovations GmbH - Please refer to git log
  17:Src/communication/wakaama_client/objects/object_server.c ****  *    Pascal Rieux - Please refer to git log
  18:Src/communication/wakaama_client/objects/object_server.c ****  *    
  19:Src/communication/wakaama_client/objects/object_server.c ****  *******************************************************************************/
  20:Src/communication/wakaama_client/objects/object_server.c **** 
  21:Src/communication/wakaama_client/objects/object_server.c **** /*
  22:Src/communication/wakaama_client/objects/object_server.c ****  *  Resources:
  23:Src/communication/wakaama_client/objects/object_server.c ****  *
  24:Src/communication/wakaama_client/objects/object_server.c ****  *          Name         | ID | Operations | Instances | Mandatory |  Type   |  Range  | Units |
  25:Src/communication/wakaama_client/objects/object_server.c ****  *  Short ID             |  0 |     R      |  Single   |    Yes    | Integer | 1-65535 |       |
  26:Src/communication/wakaama_client/objects/object_server.c ****  *  Lifetime             |  1 |    R/W     |  Single   |    Yes    | Integer |         |   s   |
  27:Src/communication/wakaama_client/objects/object_server.c ****  *  Default Min Period   |  2 |    R/W     |  Single   |    No     | Integer |         |   s   |
  28:Src/communication/wakaama_client/objects/object_server.c ****  *  Default Max Period   |  3 |    R/W     |  Single   |    No     | Integer |         |   s   |
  29:Src/communication/wakaama_client/objects/object_server.c ****  *  Disable              |  4 |     E      |  Single   |    No     |         |         |       |
  30:Src/communication/wakaama_client/objects/object_server.c ****  *  Disable Timeout      |  5 |    R/W     |  Single   |    No     | Integer |         |   s   |
  31:Src/communication/wakaama_client/objects/object_server.c ****  *  Notification Storing |  6 |    R/W     |  Single   |    Yes    | Boolean |         |       |
  32:Src/communication/wakaama_client/objects/object_server.c ****  *  Binding              |  7 |    R/W     |  Single   |    Yes    | String  |         |       |
ARM GAS  /var/folders/0d/93p3r6493yg7p0rvl_4r983m0000gn/T//ccW1MMiw.s 			page 2


  33:Src/communication/wakaama_client/objects/object_server.c ****  *  Registration Update  |  8 |     E      |  Single   |    Yes    |         |         |       |
  34:Src/communication/wakaama_client/objects/object_server.c ****  *
  35:Src/communication/wakaama_client/objects/object_server.c ****  */
  36:Src/communication/wakaama_client/objects/object_server.c **** 
  37:Src/communication/wakaama_client/objects/object_server.c **** #include "liblwm2m.h"
  38:Src/communication/wakaama_client/objects/object_server.c **** 
  39:Src/communication/wakaama_client/objects/object_server.c **** #include <stdio.h>
  40:Src/communication/wakaama_client/objects/object_server.c **** #include <stdlib.h>
  41:Src/communication/wakaama_client/objects/object_server.c **** #include <string.h>
  42:Src/communication/wakaama_client/objects/object_server.c **** 
  43:Src/communication/wakaama_client/objects/object_server.c **** typedef struct _server_instance_
  44:Src/communication/wakaama_client/objects/object_server.c **** {
  45:Src/communication/wakaama_client/objects/object_server.c ****     struct _server_instance_ * next;   // matches lwm2m_list_t::next
  46:Src/communication/wakaama_client/objects/object_server.c ****     uint16_t    instanceId;            // matches lwm2m_list_t::id
  47:Src/communication/wakaama_client/objects/object_server.c ****     uint16_t    shortServerId;
  48:Src/communication/wakaama_client/objects/object_server.c ****     uint32_t    lifetime;
  49:Src/communication/wakaama_client/objects/object_server.c ****     uint32_t    defaultMinPeriod;
  50:Src/communication/wakaama_client/objects/object_server.c ****     uint32_t    defaultMaxPeriod;
  51:Src/communication/wakaama_client/objects/object_server.c ****     uint32_t    disableTimeout;
  52:Src/communication/wakaama_client/objects/object_server.c ****     bool        storing;
  53:Src/communication/wakaama_client/objects/object_server.c ****     char        binding[4];
  54:Src/communication/wakaama_client/objects/object_server.c **** } server_instance_t;
  55:Src/communication/wakaama_client/objects/object_server.c **** 
  56:Src/communication/wakaama_client/objects/object_server.c **** static uint8_t prv_get_value(lwm2m_data_t * dataP,
  57:Src/communication/wakaama_client/objects/object_server.c ****                              server_instance_t * targetP)
  58:Src/communication/wakaama_client/objects/object_server.c **** {
  59:Src/communication/wakaama_client/objects/object_server.c ****     switch (dataP->id)
  60:Src/communication/wakaama_client/objects/object_server.c ****     {
  61:Src/communication/wakaama_client/objects/object_server.c ****     case LWM2M_SERVER_SHORT_ID_ID:
  62:Src/communication/wakaama_client/objects/object_server.c ****         lwm2m_data_encode_int(targetP->shortServerId, dataP);
  63:Src/communication/wakaama_client/objects/object_server.c ****         return COAP_205_CONTENT;
  64:Src/communication/wakaama_client/objects/object_server.c **** 
  65:Src/communication/wakaama_client/objects/object_server.c ****     case LWM2M_SERVER_LIFETIME_ID:
  66:Src/communication/wakaama_client/objects/object_server.c ****         lwm2m_data_encode_int(targetP->lifetime, dataP);
  67:Src/communication/wakaama_client/objects/object_server.c ****         return COAP_205_CONTENT;
  68:Src/communication/wakaama_client/objects/object_server.c **** 
  69:Src/communication/wakaama_client/objects/object_server.c ****     case LWM2M_SERVER_MIN_PERIOD_ID:
  70:Src/communication/wakaama_client/objects/object_server.c ****         lwm2m_data_encode_int(targetP->defaultMinPeriod, dataP);
  71:Src/communication/wakaama_client/objects/object_server.c ****         return COAP_205_CONTENT;
  72:Src/communication/wakaama_client/objects/object_server.c **** 
  73:Src/communication/wakaama_client/objects/object_server.c ****     case LWM2M_SERVER_MAX_PERIOD_ID:
  74:Src/communication/wakaama_client/objects/object_server.c ****         lwm2m_data_encode_int(targetP->defaultMaxPeriod, dataP);
  75:Src/communication/wakaama_client/objects/object_server.c ****         return COAP_205_CONTENT;
  76:Src/communication/wakaama_client/objects/object_server.c **** 
  77:Src/communication/wakaama_client/objects/object_server.c ****     case LWM2M_SERVER_DISABLE_ID:
  78:Src/communication/wakaama_client/objects/object_server.c ****         return COAP_405_METHOD_NOT_ALLOWED;
  79:Src/communication/wakaama_client/objects/object_server.c **** 
  80:Src/communication/wakaama_client/objects/object_server.c ****     case LWM2M_SERVER_TIMEOUT_ID:
  81:Src/communication/wakaama_client/objects/object_server.c ****         lwm2m_data_encode_int(targetP->disableTimeout, dataP);
  82:Src/communication/wakaama_client/objects/object_server.c ****         return COAP_205_CONTENT;
  83:Src/communication/wakaama_client/objects/object_server.c **** 
  84:Src/communication/wakaama_client/objects/object_server.c ****     case LWM2M_SERVER_STORING_ID:
  85:Src/communication/wakaama_client/objects/object_server.c ****         lwm2m_data_encode_bool(targetP->storing, dataP);
  86:Src/communication/wakaama_client/objects/object_server.c ****         return COAP_205_CONTENT;
  87:Src/communication/wakaama_client/objects/object_server.c **** 
  88:Src/communication/wakaama_client/objects/object_server.c ****     case LWM2M_SERVER_BINDING_ID:
  89:Src/communication/wakaama_client/objects/object_server.c ****         lwm2m_data_encode_string(targetP->binding, dataP);
ARM GAS  /var/folders/0d/93p3r6493yg7p0rvl_4r983m0000gn/T//ccW1MMiw.s 			page 3


  90:Src/communication/wakaama_client/objects/object_server.c ****         return COAP_205_CONTENT;
  91:Src/communication/wakaama_client/objects/object_server.c **** 
  92:Src/communication/wakaama_client/objects/object_server.c ****     case LWM2M_SERVER_UPDATE_ID:
  93:Src/communication/wakaama_client/objects/object_server.c ****         return COAP_405_METHOD_NOT_ALLOWED;
  94:Src/communication/wakaama_client/objects/object_server.c **** 
  95:Src/communication/wakaama_client/objects/object_server.c ****     default:
  96:Src/communication/wakaama_client/objects/object_server.c ****         return COAP_404_NOT_FOUND;
  97:Src/communication/wakaama_client/objects/object_server.c ****     }
  98:Src/communication/wakaama_client/objects/object_server.c **** }
  99:Src/communication/wakaama_client/objects/object_server.c **** 
 100:Src/communication/wakaama_client/objects/object_server.c **** static uint8_t prv_server_read(uint16_t instanceId,
 101:Src/communication/wakaama_client/objects/object_server.c ****                                int * numDataP,
 102:Src/communication/wakaama_client/objects/object_server.c ****                                lwm2m_data_t ** dataArrayP,
 103:Src/communication/wakaama_client/objects/object_server.c ****                                lwm2m_object_t * objectP)
 104:Src/communication/wakaama_client/objects/object_server.c **** {
 105:Src/communication/wakaama_client/objects/object_server.c ****     server_instance_t * targetP;
 106:Src/communication/wakaama_client/objects/object_server.c ****     uint8_t result;
 107:Src/communication/wakaama_client/objects/object_server.c ****     int i;
 108:Src/communication/wakaama_client/objects/object_server.c **** 
 109:Src/communication/wakaama_client/objects/object_server.c ****     targetP = (server_instance_t *)lwm2m_list_find(objectP->instanceList, instanceId);
 110:Src/communication/wakaama_client/objects/object_server.c ****     if (NULL == targetP) return COAP_404_NOT_FOUND;
 111:Src/communication/wakaama_client/objects/object_server.c **** 
 112:Src/communication/wakaama_client/objects/object_server.c ****     // is the server asking for the full instance ?
 113:Src/communication/wakaama_client/objects/object_server.c ****     if (*numDataP == 0)
 114:Src/communication/wakaama_client/objects/object_server.c ****     {
 115:Src/communication/wakaama_client/objects/object_server.c ****         uint16_t resList[] = {
 116:Src/communication/wakaama_client/objects/object_server.c ****             LWM2M_SERVER_SHORT_ID_ID,
 117:Src/communication/wakaama_client/objects/object_server.c ****             LWM2M_SERVER_LIFETIME_ID,
 118:Src/communication/wakaama_client/objects/object_server.c ****             LWM2M_SERVER_MIN_PERIOD_ID,
 119:Src/communication/wakaama_client/objects/object_server.c ****             LWM2M_SERVER_MAX_PERIOD_ID,
 120:Src/communication/wakaama_client/objects/object_server.c ****             LWM2M_SERVER_TIMEOUT_ID,
 121:Src/communication/wakaama_client/objects/object_server.c ****             LWM2M_SERVER_STORING_ID,
 122:Src/communication/wakaama_client/objects/object_server.c ****             LWM2M_SERVER_BINDING_ID
 123:Src/communication/wakaama_client/objects/object_server.c ****         };
 124:Src/communication/wakaama_client/objects/object_server.c ****         int nbRes = sizeof(resList)/sizeof(uint16_t);
 125:Src/communication/wakaama_client/objects/object_server.c **** 
 126:Src/communication/wakaama_client/objects/object_server.c ****         *dataArrayP = lwm2m_data_new(nbRes);
 127:Src/communication/wakaama_client/objects/object_server.c ****         if (*dataArrayP == NULL) return COAP_500_INTERNAL_SERVER_ERROR;
 128:Src/communication/wakaama_client/objects/object_server.c ****         *numDataP = nbRes;
 129:Src/communication/wakaama_client/objects/object_server.c ****         for (i = 0 ; i < nbRes ; i++)
 130:Src/communication/wakaama_client/objects/object_server.c ****         {
 131:Src/communication/wakaama_client/objects/object_server.c ****             (*dataArrayP)[i].id = resList[i];
 132:Src/communication/wakaama_client/objects/object_server.c ****         }
 133:Src/communication/wakaama_client/objects/object_server.c ****     }
 134:Src/communication/wakaama_client/objects/object_server.c **** 
 135:Src/communication/wakaama_client/objects/object_server.c ****     i = 0;
 136:Src/communication/wakaama_client/objects/object_server.c ****     do
 137:Src/communication/wakaama_client/objects/object_server.c ****     {
 138:Src/communication/wakaama_client/objects/object_server.c ****         result = prv_get_value((*dataArrayP) + i, targetP);
 139:Src/communication/wakaama_client/objects/object_server.c ****         i++;
 140:Src/communication/wakaama_client/objects/object_server.c ****     } while (i < *numDataP && result == COAP_205_CONTENT);
 141:Src/communication/wakaama_client/objects/object_server.c **** 
 142:Src/communication/wakaama_client/objects/object_server.c ****     return result;
 143:Src/communication/wakaama_client/objects/object_server.c **** }
 144:Src/communication/wakaama_client/objects/object_server.c **** 
 145:Src/communication/wakaama_client/objects/object_server.c **** static uint8_t prv_server_discover(uint16_t instanceId,
 146:Src/communication/wakaama_client/objects/object_server.c ****                                    int * numDataP,
ARM GAS  /var/folders/0d/93p3r6493yg7p0rvl_4r983m0000gn/T//ccW1MMiw.s 			page 4


 147:Src/communication/wakaama_client/objects/object_server.c ****                                    lwm2m_data_t ** dataArrayP,
 148:Src/communication/wakaama_client/objects/object_server.c ****                                    lwm2m_object_t * objectP)
 149:Src/communication/wakaama_client/objects/object_server.c **** {
 150:Src/communication/wakaama_client/objects/object_server.c ****     uint8_t result;
 151:Src/communication/wakaama_client/objects/object_server.c ****     int i;
 152:Src/communication/wakaama_client/objects/object_server.c **** 
 153:Src/communication/wakaama_client/objects/object_server.c ****     result = COAP_205_CONTENT;
 154:Src/communication/wakaama_client/objects/object_server.c **** 
 155:Src/communication/wakaama_client/objects/object_server.c ****     // is the server asking for the full object ?
 156:Src/communication/wakaama_client/objects/object_server.c ****     if (*numDataP == 0)
 157:Src/communication/wakaama_client/objects/object_server.c ****     {
 158:Src/communication/wakaama_client/objects/object_server.c ****         uint16_t resList[] = {
 159:Src/communication/wakaama_client/objects/object_server.c ****             LWM2M_SERVER_SHORT_ID_ID,
 160:Src/communication/wakaama_client/objects/object_server.c ****             LWM2M_SERVER_LIFETIME_ID,
 161:Src/communication/wakaama_client/objects/object_server.c ****             LWM2M_SERVER_MIN_PERIOD_ID,
 162:Src/communication/wakaama_client/objects/object_server.c ****             LWM2M_SERVER_MAX_PERIOD_ID,
 163:Src/communication/wakaama_client/objects/object_server.c ****             LWM2M_SERVER_DISABLE_ID,
 164:Src/communication/wakaama_client/objects/object_server.c ****             LWM2M_SERVER_TIMEOUT_ID,
 165:Src/communication/wakaama_client/objects/object_server.c ****             LWM2M_SERVER_STORING_ID,
 166:Src/communication/wakaama_client/objects/object_server.c ****             LWM2M_SERVER_BINDING_ID,
 167:Src/communication/wakaama_client/objects/object_server.c ****             LWM2M_SERVER_UPDATE_ID
 168:Src/communication/wakaama_client/objects/object_server.c ****         };
 169:Src/communication/wakaama_client/objects/object_server.c ****         int nbRes = sizeof(resList) / sizeof(uint16_t);
 170:Src/communication/wakaama_client/objects/object_server.c **** 
 171:Src/communication/wakaama_client/objects/object_server.c ****         *dataArrayP = lwm2m_data_new(nbRes);
 172:Src/communication/wakaama_client/objects/object_server.c ****         if (*dataArrayP == NULL) return COAP_500_INTERNAL_SERVER_ERROR;
 173:Src/communication/wakaama_client/objects/object_server.c ****         *numDataP = nbRes;
 174:Src/communication/wakaama_client/objects/object_server.c ****         for (i = 0; i < nbRes; i++)
 175:Src/communication/wakaama_client/objects/object_server.c ****         {
 176:Src/communication/wakaama_client/objects/object_server.c ****             (*dataArrayP)[i].id = resList[i];
 177:Src/communication/wakaama_client/objects/object_server.c ****         }
 178:Src/communication/wakaama_client/objects/object_server.c ****     }
 179:Src/communication/wakaama_client/objects/object_server.c ****     else
 180:Src/communication/wakaama_client/objects/object_server.c ****     {
 181:Src/communication/wakaama_client/objects/object_server.c ****         for (i = 0; i < *numDataP && result == COAP_205_CONTENT; i++)
 182:Src/communication/wakaama_client/objects/object_server.c ****         {
 183:Src/communication/wakaama_client/objects/object_server.c ****             switch ((*dataArrayP)[i].id)
 184:Src/communication/wakaama_client/objects/object_server.c ****             {
 185:Src/communication/wakaama_client/objects/object_server.c ****             case LWM2M_SERVER_SHORT_ID_ID:
 186:Src/communication/wakaama_client/objects/object_server.c ****             case LWM2M_SERVER_LIFETIME_ID:
 187:Src/communication/wakaama_client/objects/object_server.c ****             case LWM2M_SERVER_MIN_PERIOD_ID:
 188:Src/communication/wakaama_client/objects/object_server.c ****             case LWM2M_SERVER_MAX_PERIOD_ID:
 189:Src/communication/wakaama_client/objects/object_server.c ****             case LWM2M_SERVER_DISABLE_ID:
 190:Src/communication/wakaama_client/objects/object_server.c ****             case LWM2M_SERVER_TIMEOUT_ID:
 191:Src/communication/wakaama_client/objects/object_server.c ****             case LWM2M_SERVER_STORING_ID:
 192:Src/communication/wakaama_client/objects/object_server.c ****             case LWM2M_SERVER_BINDING_ID:
 193:Src/communication/wakaama_client/objects/object_server.c ****             case LWM2M_SERVER_UPDATE_ID:
 194:Src/communication/wakaama_client/objects/object_server.c ****                 break;
 195:Src/communication/wakaama_client/objects/object_server.c ****             default:
 196:Src/communication/wakaama_client/objects/object_server.c ****                 result = COAP_404_NOT_FOUND;
 197:Src/communication/wakaama_client/objects/object_server.c ****             }
 198:Src/communication/wakaama_client/objects/object_server.c ****         }
 199:Src/communication/wakaama_client/objects/object_server.c ****     }
 200:Src/communication/wakaama_client/objects/object_server.c **** 
 201:Src/communication/wakaama_client/objects/object_server.c ****     return result;
 202:Src/communication/wakaama_client/objects/object_server.c **** }
 203:Src/communication/wakaama_client/objects/object_server.c **** 
ARM GAS  /var/folders/0d/93p3r6493yg7p0rvl_4r983m0000gn/T//ccW1MMiw.s 			page 5


 204:Src/communication/wakaama_client/objects/object_server.c **** static uint8_t prv_set_int_value(lwm2m_data_t * dataArray, uint32_t * data) {
 205:Src/communication/wakaama_client/objects/object_server.c ****     uint8_t result;
 206:Src/communication/wakaama_client/objects/object_server.c ****     int64_t value;
 207:Src/communication/wakaama_client/objects/object_server.c **** 
 208:Src/communication/wakaama_client/objects/object_server.c ****     if (1 == lwm2m_data_decode_int(dataArray, &value))
 209:Src/communication/wakaama_client/objects/object_server.c ****     {
 210:Src/communication/wakaama_client/objects/object_server.c ****         if (value >= 0 && value <= 0xFFFFFFFF)
 211:Src/communication/wakaama_client/objects/object_server.c ****         {
 212:Src/communication/wakaama_client/objects/object_server.c ****             *data = value;
 213:Src/communication/wakaama_client/objects/object_server.c ****             result = COAP_204_CHANGED;
 214:Src/communication/wakaama_client/objects/object_server.c ****         }
 215:Src/communication/wakaama_client/objects/object_server.c ****         else
 216:Src/communication/wakaama_client/objects/object_server.c ****         {
 217:Src/communication/wakaama_client/objects/object_server.c ****             result = COAP_406_NOT_ACCEPTABLE;
 218:Src/communication/wakaama_client/objects/object_server.c ****         }
 219:Src/communication/wakaama_client/objects/object_server.c ****     }
 220:Src/communication/wakaama_client/objects/object_server.c ****     else
 221:Src/communication/wakaama_client/objects/object_server.c ****     {
 222:Src/communication/wakaama_client/objects/object_server.c ****         result = COAP_400_BAD_REQUEST;
 223:Src/communication/wakaama_client/objects/object_server.c ****     }
 224:Src/communication/wakaama_client/objects/object_server.c ****     return result;
 225:Src/communication/wakaama_client/objects/object_server.c **** }
 226:Src/communication/wakaama_client/objects/object_server.c **** 
 227:Src/communication/wakaama_client/objects/object_server.c **** static uint8_t prv_server_write(uint16_t instanceId,
 228:Src/communication/wakaama_client/objects/object_server.c ****                                 int numData,
 229:Src/communication/wakaama_client/objects/object_server.c ****                                 lwm2m_data_t * dataArray,
 230:Src/communication/wakaama_client/objects/object_server.c ****                                 lwm2m_object_t * objectP)
 231:Src/communication/wakaama_client/objects/object_server.c **** {
 232:Src/communication/wakaama_client/objects/object_server.c ****     server_instance_t * targetP;
 233:Src/communication/wakaama_client/objects/object_server.c ****     int i;
 234:Src/communication/wakaama_client/objects/object_server.c ****     uint8_t result;
 235:Src/communication/wakaama_client/objects/object_server.c **** 
 236:Src/communication/wakaama_client/objects/object_server.c ****     targetP = (server_instance_t *)lwm2m_list_find(objectP->instanceList, instanceId);
 237:Src/communication/wakaama_client/objects/object_server.c ****     if (NULL == targetP)
 238:Src/communication/wakaama_client/objects/object_server.c ****     {
 239:Src/communication/wakaama_client/objects/object_server.c ****         return COAP_404_NOT_FOUND;
 240:Src/communication/wakaama_client/objects/object_server.c ****     }
 241:Src/communication/wakaama_client/objects/object_server.c **** 
 242:Src/communication/wakaama_client/objects/object_server.c ****     i = 0;
 243:Src/communication/wakaama_client/objects/object_server.c ****     do
 244:Src/communication/wakaama_client/objects/object_server.c ****     {
 245:Src/communication/wakaama_client/objects/object_server.c ****         switch (dataArray[i].id)
 246:Src/communication/wakaama_client/objects/object_server.c ****         {
 247:Src/communication/wakaama_client/objects/object_server.c ****         case LWM2M_SERVER_SHORT_ID_ID:
 248:Src/communication/wakaama_client/objects/object_server.c ****             {
 249:Src/communication/wakaama_client/objects/object_server.c ****                 uint32_t value = targetP->shortServerId;
 250:Src/communication/wakaama_client/objects/object_server.c ****                 result = prv_set_int_value(dataArray + i, &value);
 251:Src/communication/wakaama_client/objects/object_server.c ****                 if (COAP_204_CHANGED == result)
 252:Src/communication/wakaama_client/objects/object_server.c ****                 {
 253:Src/communication/wakaama_client/objects/object_server.c ****                     if (0 < value && 0xFFFF >= value)
 254:Src/communication/wakaama_client/objects/object_server.c ****                     {
 255:Src/communication/wakaama_client/objects/object_server.c ****                         targetP->shortServerId = value;
 256:Src/communication/wakaama_client/objects/object_server.c ****                     }
 257:Src/communication/wakaama_client/objects/object_server.c ****                     else
 258:Src/communication/wakaama_client/objects/object_server.c ****                     {
 259:Src/communication/wakaama_client/objects/object_server.c ****                         result = COAP_406_NOT_ACCEPTABLE;
 260:Src/communication/wakaama_client/objects/object_server.c ****                     }
ARM GAS  /var/folders/0d/93p3r6493yg7p0rvl_4r983m0000gn/T//ccW1MMiw.s 			page 6


 261:Src/communication/wakaama_client/objects/object_server.c ****                 }
 262:Src/communication/wakaama_client/objects/object_server.c ****             }
 263:Src/communication/wakaama_client/objects/object_server.c ****             break;
 264:Src/communication/wakaama_client/objects/object_server.c **** 
 265:Src/communication/wakaama_client/objects/object_server.c ****         case LWM2M_SERVER_LIFETIME_ID:
 266:Src/communication/wakaama_client/objects/object_server.c ****             result = prv_set_int_value(dataArray + i, (uint32_t *)&(targetP->lifetime));
 267:Src/communication/wakaama_client/objects/object_server.c ****             break;
 268:Src/communication/wakaama_client/objects/object_server.c **** 
 269:Src/communication/wakaama_client/objects/object_server.c ****         case LWM2M_SERVER_MIN_PERIOD_ID:
 270:Src/communication/wakaama_client/objects/object_server.c ****             result = prv_set_int_value(dataArray + i, &(targetP->defaultMinPeriod));
 271:Src/communication/wakaama_client/objects/object_server.c ****             break;
 272:Src/communication/wakaama_client/objects/object_server.c **** 
 273:Src/communication/wakaama_client/objects/object_server.c ****         case LWM2M_SERVER_MAX_PERIOD_ID:
 274:Src/communication/wakaama_client/objects/object_server.c ****             result = prv_set_int_value(dataArray + i, &(targetP->defaultMaxPeriod));
 275:Src/communication/wakaama_client/objects/object_server.c ****             break;
 276:Src/communication/wakaama_client/objects/object_server.c **** 
 277:Src/communication/wakaama_client/objects/object_server.c ****         case LWM2M_SERVER_DISABLE_ID:
 278:Src/communication/wakaama_client/objects/object_server.c ****             result = COAP_405_METHOD_NOT_ALLOWED;
 279:Src/communication/wakaama_client/objects/object_server.c ****             break;
 280:Src/communication/wakaama_client/objects/object_server.c **** 
 281:Src/communication/wakaama_client/objects/object_server.c ****         case LWM2M_SERVER_TIMEOUT_ID:
 282:Src/communication/wakaama_client/objects/object_server.c ****             result = prv_set_int_value(dataArray + i, &(targetP->disableTimeout));
 283:Src/communication/wakaama_client/objects/object_server.c ****             break;
 284:Src/communication/wakaama_client/objects/object_server.c **** 
 285:Src/communication/wakaama_client/objects/object_server.c ****         case LWM2M_SERVER_STORING_ID:
 286:Src/communication/wakaama_client/objects/object_server.c ****         {
 287:Src/communication/wakaama_client/objects/object_server.c ****             bool value;
 288:Src/communication/wakaama_client/objects/object_server.c **** 
 289:Src/communication/wakaama_client/objects/object_server.c ****             if (1 == lwm2m_data_decode_bool(dataArray + i, &value))
 290:Src/communication/wakaama_client/objects/object_server.c ****             {
 291:Src/communication/wakaama_client/objects/object_server.c ****                 targetP->storing = value;
 292:Src/communication/wakaama_client/objects/object_server.c ****                 result = COAP_204_CHANGED;
 293:Src/communication/wakaama_client/objects/object_server.c ****             }
 294:Src/communication/wakaama_client/objects/object_server.c ****             else
 295:Src/communication/wakaama_client/objects/object_server.c ****             {
 296:Src/communication/wakaama_client/objects/object_server.c ****                 result = COAP_400_BAD_REQUEST;
 297:Src/communication/wakaama_client/objects/object_server.c ****             }
 298:Src/communication/wakaama_client/objects/object_server.c ****         }
 299:Src/communication/wakaama_client/objects/object_server.c ****         break;
 300:Src/communication/wakaama_client/objects/object_server.c **** 
 301:Src/communication/wakaama_client/objects/object_server.c ****         case LWM2M_SERVER_BINDING_ID:
 302:Src/communication/wakaama_client/objects/object_server.c ****             if ((dataArray[i].type == LWM2M_TYPE_STRING || dataArray[i].type == LWM2M_TYPE_OPAQUE)
 303:Src/communication/wakaama_client/objects/object_server.c ****              && dataArray[i].value.asBuffer.length > 0 && dataArray[i].value.asBuffer.length <= 3
 304:Src/communication/wakaama_client/objects/object_server.c ****              && (strncmp((char*)dataArray[i].value.asBuffer.buffer, "U", dataArray[i].value.asBuffe
 305:Src/communication/wakaama_client/objects/object_server.c ****               || strncmp((char*)dataArray[i].value.asBuffer.buffer, "UQ", dataArray[i].value.asBuff
 306:Src/communication/wakaama_client/objects/object_server.c ****               || strncmp((char*)dataArray[i].value.asBuffer.buffer, "S", dataArray[i].value.asBuffe
 307:Src/communication/wakaama_client/objects/object_server.c ****               || strncmp((char*)dataArray[i].value.asBuffer.buffer, "SQ", dataArray[i].value.asBuff
 308:Src/communication/wakaama_client/objects/object_server.c ****               || strncmp((char*)dataArray[i].value.asBuffer.buffer, "US", dataArray[i].value.asBuff
 309:Src/communication/wakaama_client/objects/object_server.c ****               || strncmp((char*)dataArray[i].value.asBuffer.buffer, "UQS", dataArray[i].value.asBuf
 310:Src/communication/wakaama_client/objects/object_server.c ****             {
 311:Src/communication/wakaama_client/objects/object_server.c ****                 strncpy(targetP->binding, (char*)dataArray[i].value.asBuffer.buffer, dataArray[i].v
 312:Src/communication/wakaama_client/objects/object_server.c ****                 result = COAP_204_CHANGED;
 313:Src/communication/wakaama_client/objects/object_server.c ****             }
 314:Src/communication/wakaama_client/objects/object_server.c ****             else
 315:Src/communication/wakaama_client/objects/object_server.c ****             {
 316:Src/communication/wakaama_client/objects/object_server.c ****                 result = COAP_400_BAD_REQUEST;
 317:Src/communication/wakaama_client/objects/object_server.c ****             }
ARM GAS  /var/folders/0d/93p3r6493yg7p0rvl_4r983m0000gn/T//ccW1MMiw.s 			page 7


 318:Src/communication/wakaama_client/objects/object_server.c ****             break;
 319:Src/communication/wakaama_client/objects/object_server.c **** 
 320:Src/communication/wakaama_client/objects/object_server.c ****         case LWM2M_SERVER_UPDATE_ID:
 321:Src/communication/wakaama_client/objects/object_server.c ****             result = COAP_405_METHOD_NOT_ALLOWED;
 322:Src/communication/wakaama_client/objects/object_server.c ****             break;
 323:Src/communication/wakaama_client/objects/object_server.c **** 
 324:Src/communication/wakaama_client/objects/object_server.c ****         default:
 325:Src/communication/wakaama_client/objects/object_server.c ****             return COAP_404_NOT_FOUND;
 326:Src/communication/wakaama_client/objects/object_server.c ****         }
 327:Src/communication/wakaama_client/objects/object_server.c ****         i++;
 328:Src/communication/wakaama_client/objects/object_server.c ****     } while (i < numData && result == COAP_204_CHANGED);
 329:Src/communication/wakaama_client/objects/object_server.c **** 
 330:Src/communication/wakaama_client/objects/object_server.c ****     return result;
 331:Src/communication/wakaama_client/objects/object_server.c **** }
 332:Src/communication/wakaama_client/objects/object_server.c **** 
 333:Src/communication/wakaama_client/objects/object_server.c **** static uint8_t prv_server_execute(uint16_t instanceId,
 334:Src/communication/wakaama_client/objects/object_server.c ****                                   uint16_t resourceId,
 335:Src/communication/wakaama_client/objects/object_server.c ****                                   uint8_t * buffer,
 336:Src/communication/wakaama_client/objects/object_server.c ****                                   int length,
 337:Src/communication/wakaama_client/objects/object_server.c ****                                   lwm2m_object_t * objectP)
 338:Src/communication/wakaama_client/objects/object_server.c **** 
 339:Src/communication/wakaama_client/objects/object_server.c **** {
  27              		.loc 1 339 0
  28              		.cfi_startproc
  29              		@ args = 4, pretend = 0, frame = 0
  30              		@ frame_needed = 0, uses_anonymous_args = 0
  31              	.LVL0:
  32 0000 10B5     		push	{r4, lr}
  33              	.LCFI0:
  34              		.cfi_def_cfa_offset 8
  35              		.cfi_offset 4, -8
  36              		.cfi_offset 14, -4
  37 0002 0C46     		mov	r4, r1
 340:Src/communication/wakaama_client/objects/object_server.c ****     server_instance_t * targetP;
 341:Src/communication/wakaama_client/objects/object_server.c **** 
 342:Src/communication/wakaama_client/objects/object_server.c ****     targetP = (server_instance_t *)lwm2m_list_find(objectP->instanceList, instanceId);
  38              		.loc 1 342 0
  39 0004 0146     		mov	r1, r0
  40              	.LVL1:
  41 0006 029B     		ldr	r3, [sp, #8]
  42              	.LVL2:
  43 0008 9868     		ldr	r0, [r3, #8]
  44              	.LVL3:
  45 000a FFF7FEFF 		bl	lwm2m_list_find
  46              	.LVL4:
 343:Src/communication/wakaama_client/objects/object_server.c ****     if (NULL == targetP) return COAP_404_NOT_FOUND;
  47              		.loc 1 343 0
  48 000e 48B1     		cbz	r0, .L5
 344:Src/communication/wakaama_client/objects/object_server.c **** 
 345:Src/communication/wakaama_client/objects/object_server.c ****     switch (resourceId)
  49              		.loc 1 345 0
  50 0010 042C     		cmp	r4, #4
  51 0012 03D0     		beq	.L3
  52 0014 082C     		cmp	r4, #8
  53 0016 07D1     		bne	.L8
 346:Src/communication/wakaama_client/objects/object_server.c ****     {
 347:Src/communication/wakaama_client/objects/object_server.c ****     case LWM2M_SERVER_DISABLE_ID:
ARM GAS  /var/folders/0d/93p3r6493yg7p0rvl_4r983m0000gn/T//ccW1MMiw.s 			page 8


 348:Src/communication/wakaama_client/objects/object_server.c ****         // executed in core, if COAP_204_CHANGED is returned
 349:Src/communication/wakaama_client/objects/object_server.c ****         if (0 < targetP->disableTimeout) return COAP_204_CHANGED;
 350:Src/communication/wakaama_client/objects/object_server.c ****         else return COAP_405_METHOD_NOT_ALLOWED;
 351:Src/communication/wakaama_client/objects/object_server.c ****     case LWM2M_SERVER_UPDATE_ID:
 352:Src/communication/wakaama_client/objects/object_server.c ****         // executed in core, if COAP_204_CHANGED is returned
 353:Src/communication/wakaama_client/objects/object_server.c ****         return COAP_204_CHANGED;
  54              		.loc 1 353 0
  55 0018 4420     		movs	r0, #68
  56              	.LVL5:
  57 001a 04E0     		b	.L2
  58              	.LVL6:
  59              	.L3:
 349:Src/communication/wakaama_client/objects/object_server.c ****         else return COAP_405_METHOD_NOT_ALLOWED;
  60              		.loc 1 349 0
  61 001c 4369     		ldr	r3, [r0, #20]
  62 001e 2BB1     		cbz	r3, .L7
  63 0020 4420     		movs	r0, #68
  64              	.LVL7:
  65 0022 00E0     		b	.L2
  66              	.LVL8:
  67              	.L5:
 343:Src/communication/wakaama_client/objects/object_server.c **** 
  68              		.loc 1 343 0
  69 0024 8420     		movs	r0, #132
  70              	.LVL9:
  71              	.L2:
 354:Src/communication/wakaama_client/objects/object_server.c ****     default:
 355:Src/communication/wakaama_client/objects/object_server.c ****         return COAP_405_METHOD_NOT_ALLOWED;
 356:Src/communication/wakaama_client/objects/object_server.c ****     }
 357:Src/communication/wakaama_client/objects/object_server.c **** }
  72              		.loc 1 357 0
  73 0026 10BD     		pop	{r4, pc}
  74              	.LVL10:
  75              	.L8:
 355:Src/communication/wakaama_client/objects/object_server.c ****     }
  76              		.loc 1 355 0
  77 0028 8520     		movs	r0, #133
  78              	.LVL11:
  79 002a FCE7     		b	.L2
  80              	.LVL12:
  81              	.L7:
 350:Src/communication/wakaama_client/objects/object_server.c ****     case LWM2M_SERVER_UPDATE_ID:
  82              		.loc 1 350 0
  83 002c 8520     		movs	r0, #133
  84              	.LVL13:
  85 002e FAE7     		b	.L2
  86              		.cfi_endproc
  87              	.LFE8:
  89              		.section	.text.prv_server_delete,"ax",%progbits
  90              		.align	1
  91              		.syntax unified
  92              		.thumb
  93              		.thumb_func
  94              		.fpu fpv4-sp-d16
  96              	prv_server_delete:
  97              	.LFB9:
 358:Src/communication/wakaama_client/objects/object_server.c **** 
ARM GAS  /var/folders/0d/93p3r6493yg7p0rvl_4r983m0000gn/T//ccW1MMiw.s 			page 9


 359:Src/communication/wakaama_client/objects/object_server.c **** static uint8_t prv_server_delete(uint16_t id,
 360:Src/communication/wakaama_client/objects/object_server.c ****                                  lwm2m_object_t * objectP)
 361:Src/communication/wakaama_client/objects/object_server.c **** {
  98              		.loc 1 361 0
  99              		.cfi_startproc
 100              		@ args = 0, pretend = 0, frame = 8
 101              		@ frame_needed = 0, uses_anonymous_args = 0
 102              	.LVL14:
 103 0000 10B5     		push	{r4, lr}
 104              	.LCFI1:
 105              		.cfi_def_cfa_offset 8
 106              		.cfi_offset 4, -8
 107              		.cfi_offset 14, -4
 108 0002 82B0     		sub	sp, sp, #8
 109              	.LCFI2:
 110              		.cfi_def_cfa_offset 16
 111 0004 0C46     		mov	r4, r1
 362:Src/communication/wakaama_client/objects/object_server.c ****     server_instance_t * serverInstance;
 363:Src/communication/wakaama_client/objects/object_server.c **** 
 364:Src/communication/wakaama_client/objects/object_server.c ****     objectP->instanceList = lwm2m_list_remove(objectP->instanceList, id, (lwm2m_list_t **)&serverIn
 112              		.loc 1 364 0
 113 0006 01AA     		add	r2, sp, #4
 114 0008 0146     		mov	r1, r0
 115              	.LVL15:
 116 000a A068     		ldr	r0, [r4, #8]
 117              	.LVL16:
 118 000c FFF7FEFF 		bl	lwm2m_list_remove
 119              	.LVL17:
 120 0010 A060     		str	r0, [r4, #8]
 365:Src/communication/wakaama_client/objects/object_server.c ****     if (NULL == serverInstance) return COAP_404_NOT_FOUND;
 121              		.loc 1 365 0
 122 0012 0198     		ldr	r0, [sp, #4]
 123 0014 20B1     		cbz	r0, .L12
 366:Src/communication/wakaama_client/objects/object_server.c **** 
 367:Src/communication/wakaama_client/objects/object_server.c ****     lwm2m_free(serverInstance);
 124              		.loc 1 367 0
 125 0016 FFF7FEFF 		bl	lwm2m_free
 126              	.LVL18:
 368:Src/communication/wakaama_client/objects/object_server.c **** 
 369:Src/communication/wakaama_client/objects/object_server.c ****     return COAP_202_DELETED;
 127              		.loc 1 369 0
 128 001a 4220     		movs	r0, #66
 129              	.L11:
 370:Src/communication/wakaama_client/objects/object_server.c **** }
 130              		.loc 1 370 0
 131 001c 02B0     		add	sp, sp, #8
 132              	.LCFI3:
 133              		.cfi_remember_state
 134              		.cfi_def_cfa_offset 8
 135              		@ sp needed
 136 001e 10BD     		pop	{r4, pc}
 137              	.LVL19:
 138              	.L12:
 139              	.LCFI4:
 140              		.cfi_restore_state
 365:Src/communication/wakaama_client/objects/object_server.c **** 
 141              		.loc 1 365 0
ARM GAS  /var/folders/0d/93p3r6493yg7p0rvl_4r983m0000gn/T//ccW1MMiw.s 			page 10


 142 0020 8420     		movs	r0, #132
 143 0022 FBE7     		b	.L11
 144              		.cfi_endproc
 145              	.LFE9:
 147              		.section	.text.prv_set_int_value,"ax",%progbits
 148              		.align	1
 149              		.syntax unified
 150              		.thumb
 151              		.thumb_func
 152              		.fpu fpv4-sp-d16
 154              	prv_set_int_value:
 155              	.LFB6:
 204:Src/communication/wakaama_client/objects/object_server.c ****     uint8_t result;
 156              		.loc 1 204 0
 157              		.cfi_startproc
 158              		@ args = 0, pretend = 0, frame = 8
 159              		@ frame_needed = 0, uses_anonymous_args = 0
 160              	.LVL20:
 161 0000 10B5     		push	{r4, lr}
 162              	.LCFI5:
 163              		.cfi_def_cfa_offset 8
 164              		.cfi_offset 4, -8
 165              		.cfi_offset 14, -4
 166 0002 82B0     		sub	sp, sp, #8
 167              	.LCFI6:
 168              		.cfi_def_cfa_offset 16
 169 0004 0C46     		mov	r4, r1
 208:Src/communication/wakaama_client/objects/object_server.c ****     {
 170              		.loc 1 208 0
 171 0006 6946     		mov	r1, sp
 172              	.LVL21:
 173 0008 FFF7FEFF 		bl	lwm2m_data_decode_int
 174              	.LVL22:
 175 000c 0128     		cmp	r0, #1
 176 000e 02D0     		beq	.L19
 222:Src/communication/wakaama_client/objects/object_server.c ****     }
 177              		.loc 1 222 0
 178 0010 8020     		movs	r0, #128
 179              	.L15:
 180              	.LVL23:
 225:Src/communication/wakaama_client/objects/object_server.c **** 
 181              		.loc 1 225 0
 182 0012 02B0     		add	sp, sp, #8
 183              	.LCFI7:
 184              		.cfi_remember_state
 185              		.cfi_def_cfa_offset 8
 186              		@ sp needed
 187 0014 10BD     		pop	{r4, pc}
 188              	.LVL24:
 189              	.L19:
 190              	.LCFI8:
 191              		.cfi_restore_state
 210:Src/communication/wakaama_client/objects/object_server.c ****         {
 192              		.loc 1 210 0
 193 0016 0099     		ldr	r1, [sp]
 194 0018 019B     		ldr	r3, [sp, #4]
 195 001a 012B     		cmp	r3, #1
ARM GAS  /var/folders/0d/93p3r6493yg7p0rvl_4r983m0000gn/T//ccW1MMiw.s 			page 11


 196 001c 08BF     		it	eq
 197 001e 0029     		cmpeq	r1, #0
 198 0020 02D2     		bcs	.L17
 212:Src/communication/wakaama_client/objects/object_server.c ****             result = COAP_204_CHANGED;
 199              		.loc 1 212 0
 200 0022 2160     		str	r1, [r4]
 201              	.LVL25:
 213:Src/communication/wakaama_client/objects/object_server.c ****         }
 202              		.loc 1 213 0
 203 0024 4420     		movs	r0, #68
 204 0026 F4E7     		b	.L15
 205              	.LVL26:
 206              	.L17:
 217:Src/communication/wakaama_client/objects/object_server.c ****         }
 207              		.loc 1 217 0
 208 0028 8620     		movs	r0, #134
 209 002a F2E7     		b	.L15
 210              		.cfi_endproc
 211              	.LFE6:
 213              		.section	.text.prv_server_write,"ax",%progbits
 214              		.align	1
 215              		.syntax unified
 216              		.thumb
 217              		.thumb_func
 218              		.fpu fpv4-sp-d16
 220              	prv_server_write:
 221              	.LFB7:
 231:Src/communication/wakaama_client/objects/object_server.c ****     server_instance_t * targetP;
 222              		.loc 1 231 0
 223              		.cfi_startproc
 224              		@ args = 0, pretend = 0, frame = 8
 225              		@ frame_needed = 0, uses_anonymous_args = 0
 226              	.LVL27:
 227 0000 2DE9F043 		push	{r4, r5, r6, r7, r8, r9, lr}
 228              	.LCFI9:
 229              		.cfi_def_cfa_offset 28
 230              		.cfi_offset 4, -28
 231              		.cfi_offset 5, -24
 232              		.cfi_offset 6, -20
 233              		.cfi_offset 7, -16
 234              		.cfi_offset 8, -12
 235              		.cfi_offset 9, -8
 236              		.cfi_offset 14, -4
 237 0004 83B0     		sub	sp, sp, #12
 238              	.LCFI10:
 239              		.cfi_def_cfa_offset 40
 240 0006 0E46     		mov	r6, r1
 241 0008 1546     		mov	r5, r2
 236:Src/communication/wakaama_client/objects/object_server.c ****     if (NULL == targetP)
 242              		.loc 1 236 0
 243 000a 0146     		mov	r1, r0
 244              	.LVL28:
 245 000c 9868     		ldr	r0, [r3, #8]
 246              	.LVL29:
 247 000e FFF7FEFF 		bl	lwm2m_list_find
 248              	.LVL30:
 237:Src/communication/wakaama_client/objects/object_server.c ****     {
ARM GAS  /var/folders/0d/93p3r6493yg7p0rvl_4r983m0000gn/T//ccW1MMiw.s 			page 12


 249              		.loc 1 237 0
 250 0012 0028     		cmp	r0, #0
 251 0014 00F09880 		beq	.L35
 252 0018 0746     		mov	r7, r0
 242:Src/communication/wakaama_client/objects/object_server.c ****     do
 253              		.loc 1 242 0
 254 001a 0024     		movs	r4, #0
 255 001c 74E0     		b	.L34
 256              	.LVL31:
 257              	.L22:
 258              	.LBB2:
 249:Src/communication/wakaama_client/objects/object_server.c ****                 result = prv_set_int_value(dataArray + i, &value);
 259              		.loc 1 249 0
 260 001e FB88     		ldrh	r3, [r7, #6]
 261 0020 02A9     		add	r1, sp, #8
 262 0022 41F8043D 		str	r3, [r1, #-4]!
 250:Src/communication/wakaama_client/objects/object_server.c ****                 if (COAP_204_CHANGED == result)
 263              		.loc 1 250 0
 264 0026 FFF7FEFF 		bl	prv_set_int_value
 265              	.LVL32:
 251:Src/communication/wakaama_client/objects/object_server.c ****                 {
 266              		.loc 1 251 0
 267 002a 4428     		cmp	r0, #68
 268 002c 67D1     		bne	.L27
 253:Src/communication/wakaama_client/objects/object_server.c ****                     {
 269              		.loc 1 253 0
 270 002e 019B     		ldr	r3, [sp, #4]
 271 0030 591E     		subs	r1, r3, #1
 272 0032 4FF6FE72 		movw	r2, #65534
 273 0036 9142     		cmp	r1, r2
 274 0038 01D8     		bhi	.L38
 255:Src/communication/wakaama_client/objects/object_server.c ****                     }
 275              		.loc 1 255 0
 276 003a FB80     		strh	r3, [r7, #6]	@ movhi
 277 003c 5FE0     		b	.L27
 278              	.L38:
 259:Src/communication/wakaama_client/objects/object_server.c ****                     }
 279              		.loc 1 259 0
 280 003e 8620     		movs	r0, #134
 281              	.LVL33:
 282              	.LBE2:
 263:Src/communication/wakaama_client/objects/object_server.c **** 
 283              		.loc 1 263 0
 284 0040 5DE0     		b	.L27
 285              	.LVL34:
 286              	.L24:
 266:Src/communication/wakaama_client/objects/object_server.c ****             break;
 287              		.loc 1 266 0
 288 0042 07F10801 		add	r1, r7, #8
 289 0046 FFF7FEFF 		bl	prv_set_int_value
 290              	.LVL35:
 267:Src/communication/wakaama_client/objects/object_server.c **** 
 291              		.loc 1 267 0
 292 004a 58E0     		b	.L27
 293              	.LVL36:
 294              	.L25:
 270:Src/communication/wakaama_client/objects/object_server.c ****             break;
ARM GAS  /var/folders/0d/93p3r6493yg7p0rvl_4r983m0000gn/T//ccW1MMiw.s 			page 13


 295              		.loc 1 270 0
 296 004c 07F10C01 		add	r1, r7, #12
 297 0050 FFF7FEFF 		bl	prv_set_int_value
 298              	.LVL37:
 271:Src/communication/wakaama_client/objects/object_server.c **** 
 299              		.loc 1 271 0
 300 0054 53E0     		b	.L27
 301              	.LVL38:
 302              	.L26:
 274:Src/communication/wakaama_client/objects/object_server.c ****             break;
 303              		.loc 1 274 0
 304 0056 07F11001 		add	r1, r7, #16
 305 005a FFF7FEFF 		bl	prv_set_int_value
 306              	.LVL39:
 275:Src/communication/wakaama_client/objects/object_server.c **** 
 307              		.loc 1 275 0
 308 005e 4EE0     		b	.L27
 309              	.LVL40:
 310              	.L28:
 282:Src/communication/wakaama_client/objects/object_server.c ****             break;
 311              		.loc 1 282 0
 312 0060 07F11401 		add	r1, r7, #20
 313 0064 FFF7FEFF 		bl	prv_set_int_value
 314              	.LVL41:
 283:Src/communication/wakaama_client/objects/object_server.c **** 
 315              		.loc 1 283 0
 316 0068 49E0     		b	.L27
 317              	.LVL42:
 318              	.L29:
 319              	.LBB3:
 289:Src/communication/wakaama_client/objects/object_server.c ****             {
 320              		.loc 1 289 0
 321 006a 01A9     		add	r1, sp, #4
 322 006c FFF7FEFF 		bl	lwm2m_data_decode_bool
 323              	.LVL43:
 324 0070 0128     		cmp	r0, #1
 325 0072 01D0     		beq	.L45
 296:Src/communication/wakaama_client/objects/object_server.c ****             }
 326              		.loc 1 296 0
 327 0074 8020     		movs	r0, #128
 328              	.LVL44:
 329              	.LBE3:
 299:Src/communication/wakaama_client/objects/object_server.c **** 
 330              		.loc 1 299 0
 331 0076 42E0     		b	.L27
 332              	.LVL45:
 333              	.L45:
 334              	.LBB4:
 291:Src/communication/wakaama_client/objects/object_server.c ****                 result = COAP_204_CHANGED;
 335              		.loc 1 291 0
 336 0078 9DF80430 		ldrb	r3, [sp, #4]	@ zero_extendqisi2
 337 007c 3B76     		strb	r3, [r7, #24]
 338              	.LVL46:
 292:Src/communication/wakaama_client/objects/object_server.c ****             }
 339              		.loc 1 292 0
 340 007e 4420     		movs	r0, #68
 341 0080 3DE0     		b	.L27
ARM GAS  /var/folders/0d/93p3r6493yg7p0rvl_4r983m0000gn/T//ccW1MMiw.s 			page 14


 342              	.LVL47:
 343              	.L30:
 344              	.LBE4:
 302:Src/communication/wakaama_client/objects/object_server.c ****              && dataArray[i].value.asBuffer.length > 0 && dataArray[i].value.asBuffer.length <= 3
 345              		.loc 1 302 0
 346 0082 AB5C     		ldrb	r3, [r5, r2]	@ zero_extendqisi2
 347 0084 043B     		subs	r3, r3, #4
 348 0086 DBB2     		uxtb	r3, r3
 349 0088 012B     		cmp	r3, #1
 350 008a 01D9     		bls	.L46
 316:Src/communication/wakaama_client/objects/object_server.c ****             }
 351              		.loc 1 316 0
 352 008c 8020     		movs	r0, #128
 353 008e 36E0     		b	.L27
 354              	.L46:
 303:Src/communication/wakaama_client/objects/object_server.c ****              && (strncmp((char*)dataArray[i].value.asBuffer.buffer, "U", dataArray[i].value.asBuffe
 355              		.loc 1 303 0
 356 0090 D0F80880 		ldr	r8, [r0, #8]
 357 0094 B8F1000F 		cmp	r8, #0
 358 0098 50D0     		beq	.L41
 303:Src/communication/wakaama_client/objects/object_server.c ****              && (strncmp((char*)dataArray[i].value.asBuffer.buffer, "U", dataArray[i].value.asBuffe
 359              		.loc 1 303 0 is_stmt 0 discriminator 1
 360 009a B8F1030F 		cmp	r8, #3
 361 009e 4FD8     		bhi	.L42
 304:Src/communication/wakaama_client/objects/object_server.c ****               || strncmp((char*)dataArray[i].value.asBuffer.buffer, "UQ", dataArray[i].value.asBuff
 362              		.loc 1 304 0 is_stmt 1
 363 00a0 D0F80C90 		ldr	r9, [r0, #12]
 364 00a4 4246     		mov	r2, r8
 365 00a6 2B49     		ldr	r1, .L47
 366 00a8 4846     		mov	r0, r9
 367 00aa FFF7FEFF 		bl	strncmp
 368              	.LVL48:
 369 00ae E8B1     		cbz	r0, .L33
 305:Src/communication/wakaama_client/objects/object_server.c ****               || strncmp((char*)dataArray[i].value.asBuffer.buffer, "S", dataArray[i].value.asBuffe
 370              		.loc 1 305 0
 371 00b0 4246     		mov	r2, r8
 372 00b2 2949     		ldr	r1, .L47+4
 373 00b4 4846     		mov	r0, r9
 374 00b6 FFF7FEFF 		bl	strncmp
 375              	.LVL49:
 376 00ba B8B1     		cbz	r0, .L33
 306:Src/communication/wakaama_client/objects/object_server.c ****               || strncmp((char*)dataArray[i].value.asBuffer.buffer, "SQ", dataArray[i].value.asBuff
 377              		.loc 1 306 0
 378 00bc 4246     		mov	r2, r8
 379 00be 2749     		ldr	r1, .L47+8
 380 00c0 4846     		mov	r0, r9
 381 00c2 FFF7FEFF 		bl	strncmp
 382              	.LVL50:
 383 00c6 88B1     		cbz	r0, .L33
 307:Src/communication/wakaama_client/objects/object_server.c ****               || strncmp((char*)dataArray[i].value.asBuffer.buffer, "US", dataArray[i].value.asBuff
 384              		.loc 1 307 0
 385 00c8 4246     		mov	r2, r8
 386 00ca 2549     		ldr	r1, .L47+12
 387 00cc 4846     		mov	r0, r9
 388 00ce FFF7FEFF 		bl	strncmp
 389              	.LVL51:
 390 00d2 58B1     		cbz	r0, .L33
ARM GAS  /var/folders/0d/93p3r6493yg7p0rvl_4r983m0000gn/T//ccW1MMiw.s 			page 15


 308:Src/communication/wakaama_client/objects/object_server.c ****               || strncmp((char*)dataArray[i].value.asBuffer.buffer, "UQS", dataArray[i].value.asBuf
 391              		.loc 1 308 0
 392 00d4 4246     		mov	r2, r8
 393 00d6 2349     		ldr	r1, .L47+16
 394 00d8 4846     		mov	r0, r9
 395 00da FFF7FEFF 		bl	strncmp
 396              	.LVL52:
 397 00de 28B1     		cbz	r0, .L33
 309:Src/communication/wakaama_client/objects/object_server.c ****             {
 398              		.loc 1 309 0
 399 00e0 4246     		mov	r2, r8
 400 00e2 2149     		ldr	r1, .L47+20
 401 00e4 4846     		mov	r0, r9
 402 00e6 FFF7FEFF 		bl	strncmp
 403              	.LVL53:
 404 00ea 58BB     		cbnz	r0, .L43
 405              	.L33:
 311:Src/communication/wakaama_client/objects/object_server.c ****                 result = COAP_204_CHANGED;
 406              		.loc 1 311 0
 407 00ec 4246     		mov	r2, r8
 408 00ee 4946     		mov	r1, r9
 409 00f0 07F11900 		add	r0, r7, #25
 410 00f4 FFF7FEFF 		bl	strncpy
 411              	.LVL54:
 312:Src/communication/wakaama_client/objects/object_server.c ****             }
 412              		.loc 1 312 0
 413 00f8 4420     		movs	r0, #68
 414 00fa 00E0     		b	.L27
 415              	.LVL55:
 416              	.L37:
 278:Src/communication/wakaama_client/objects/object_server.c ****             break;
 417              		.loc 1 278 0
 418 00fc 8520     		movs	r0, #133
 419              	.L27:
 420              	.LVL56:
 327:Src/communication/wakaama_client/objects/object_server.c ****     } while (i < numData && result == COAP_204_CHANGED);
 421              		.loc 1 327 0
 422 00fe 0134     		adds	r4, r4, #1
 423              	.LVL57:
 328:Src/communication/wakaama_client/objects/object_server.c **** 
 424              		.loc 1 328 0
 425 0100 B442     		cmp	r4, r6
 426 0102 22DA     		bge	.L21
 328:Src/communication/wakaama_client/objects/object_server.c **** 
 427              		.loc 1 328 0 is_stmt 0 discriminator 1
 428 0104 4428     		cmp	r0, #68
 429 0106 20D1     		bne	.L21
 430              	.LVL58:
 431              	.L34:
 245:Src/communication/wakaama_client/objects/object_server.c ****         {
 432              		.loc 1 245 0 is_stmt 1
 433 0108 2201     		lsls	r2, r4, #4
 434 010a A818     		adds	r0, r5, r2
 435 010c 4388     		ldrh	r3, [r0, #2]
 436 010e 082B     		cmp	r3, #8
 437 0110 1ED8     		bhi	.L36
 438 0112 01A1     		adr	r1, .L23
ARM GAS  /var/folders/0d/93p3r6493yg7p0rvl_4r983m0000gn/T//ccW1MMiw.s 			page 16


 439 0114 51F823F0 		ldr	pc, [r1, r3, lsl #2]
 440              		.p2align 2
 441              	.L23:
 442 0118 1F000000 		.word	.L22+1
 443 011c 43000000 		.word	.L24+1
 444 0120 4D000000 		.word	.L25+1
 445 0124 57000000 		.word	.L26+1
 446 0128 FD000000 		.word	.L37+1
 447 012c 61000000 		.word	.L28+1
 448 0130 6B000000 		.word	.L29+1
 449 0134 83000000 		.word	.L30+1
 450 0138 FD000000 		.word	.L37+1
 451              		.p2align 1
 452              	.L41:
 316:Src/communication/wakaama_client/objects/object_server.c ****             }
 453              		.loc 1 316 0
 454 013c 8020     		movs	r0, #128
 455 013e DEE7     		b	.L27
 456              	.L42:
 457 0140 8020     		movs	r0, #128
 458 0142 DCE7     		b	.L27
 459              	.L43:
 460 0144 8020     		movs	r0, #128
 461 0146 DAE7     		b	.L27
 462              	.LVL59:
 463              	.L35:
 239:Src/communication/wakaama_client/objects/object_server.c ****     }
 464              		.loc 1 239 0
 465 0148 8420     		movs	r0, #132
 466              	.LVL60:
 467              	.L21:
 331:Src/communication/wakaama_client/objects/object_server.c **** 
 468              		.loc 1 331 0
 469 014a 03B0     		add	sp, sp, #12
 470              	.LCFI11:
 471              		.cfi_def_cfa_offset 28
 472              		@ sp needed
 473 014c BDE8F083 		pop	{r4, r5, r6, r7, r8, r9, pc}
 474              	.LVL61:
 475              	.L36:
 325:Src/communication/wakaama_client/objects/object_server.c ****         }
 476              		.loc 1 325 0
 477 0150 8420     		movs	r0, #132
 478 0152 FAE7     		b	.L21
 479              	.L48:
 480              		.align	2
 481              	.L47:
 482 0154 00000000 		.word	.LC2
 483 0158 04000000 		.word	.LC3
 484 015c 08000000 		.word	.LC4
 485 0160 0C000000 		.word	.LC5
 486 0164 10000000 		.word	.LC6
 487 0168 14000000 		.word	.LC7
 488              		.cfi_endproc
 489              	.LFE7:
 491              		.section	.text.prv_server_create,"ax",%progbits
 492              		.align	1
ARM GAS  /var/folders/0d/93p3r6493yg7p0rvl_4r983m0000gn/T//ccW1MMiw.s 			page 17


 493              		.syntax unified
 494              		.thumb
 495              		.thumb_func
 496              		.fpu fpv4-sp-d16
 498              	prv_server_create:
 499              	.LFB10:
 371:Src/communication/wakaama_client/objects/object_server.c **** 
 372:Src/communication/wakaama_client/objects/object_server.c **** static uint8_t prv_server_create(uint16_t instanceId,
 373:Src/communication/wakaama_client/objects/object_server.c ****                                  int numData,
 374:Src/communication/wakaama_client/objects/object_server.c ****                                  lwm2m_data_t * dataArray,
 375:Src/communication/wakaama_client/objects/object_server.c ****                                  lwm2m_object_t * objectP)
 376:Src/communication/wakaama_client/objects/object_server.c **** {
 500              		.loc 1 376 0
 501              		.cfi_startproc
 502              		@ args = 0, pretend = 0, frame = 0
 503              		@ frame_needed = 0, uses_anonymous_args = 0
 504              	.LVL62:
 505 0000 2DE9F041 		push	{r4, r5, r6, r7, r8, lr}
 506              	.LCFI12:
 507              		.cfi_def_cfa_offset 24
 508              		.cfi_offset 4, -24
 509              		.cfi_offset 5, -20
 510              		.cfi_offset 6, -16
 511              		.cfi_offset 7, -12
 512              		.cfi_offset 8, -8
 513              		.cfi_offset 14, -4
 514 0004 0646     		mov	r6, r0
 515 0006 0F46     		mov	r7, r1
 516 0008 9046     		mov	r8, r2
 517 000a 1C46     		mov	r4, r3
 377:Src/communication/wakaama_client/objects/object_server.c ****     server_instance_t * serverInstance;
 378:Src/communication/wakaama_client/objects/object_server.c ****     uint8_t result;
 379:Src/communication/wakaama_client/objects/object_server.c **** 
 380:Src/communication/wakaama_client/objects/object_server.c ****     serverInstance = (server_instance_t *)lwm2m_malloc(sizeof(server_instance_t));
 518              		.loc 1 380 0
 519 000c 2020     		movs	r0, #32
 520              	.LVL63:
 521 000e FFF7FEFF 		bl	lwm2m_malloc
 522              	.LVL64:
 381:Src/communication/wakaama_client/objects/object_server.c ****     if (NULL == serverInstance) return COAP_500_INTERNAL_SERVER_ERROR;
 523              		.loc 1 381 0
 524 0012 D0B1     		cbz	r0, .L51
 525 0014 0546     		mov	r5, r0
 382:Src/communication/wakaama_client/objects/object_server.c ****     memset(serverInstance, 0, sizeof(server_instance_t));
 526              		.loc 1 382 0
 527 0016 2022     		movs	r2, #32
 528 0018 0021     		movs	r1, #0
 529 001a FFF7FEFF 		bl	memset
 530              	.LVL65:
 383:Src/communication/wakaama_client/objects/object_server.c **** 
 384:Src/communication/wakaama_client/objects/object_server.c ****     serverInstance->instanceId = instanceId;
 531              		.loc 1 384 0
 532 001e AE80     		strh	r6, [r5, #4]	@ movhi
 385:Src/communication/wakaama_client/objects/object_server.c ****     objectP->instanceList = LWM2M_LIST_ADD(objectP->instanceList, serverInstance);
 533              		.loc 1 385 0
 534 0020 2946     		mov	r1, r5
 535 0022 A068     		ldr	r0, [r4, #8]
ARM GAS  /var/folders/0d/93p3r6493yg7p0rvl_4r983m0000gn/T//ccW1MMiw.s 			page 18


 536 0024 FFF7FEFF 		bl	lwm2m_list_add
 537              	.LVL66:
 538 0028 A060     		str	r0, [r4, #8]
 386:Src/communication/wakaama_client/objects/object_server.c **** 
 387:Src/communication/wakaama_client/objects/object_server.c ****     result = prv_server_write(instanceId, numData, dataArray, objectP);
 539              		.loc 1 387 0
 540 002a 2346     		mov	r3, r4
 541 002c 4246     		mov	r2, r8
 542 002e 3946     		mov	r1, r7
 543 0030 3046     		mov	r0, r6
 544 0032 FFF7FEFF 		bl	prv_server_write
 545              	.LVL67:
 546 0036 0546     		mov	r5, r0
 547              	.LVL68:
 388:Src/communication/wakaama_client/objects/object_server.c **** 
 389:Src/communication/wakaama_client/objects/object_server.c ****     if (result != COAP_204_CHANGED)
 548              		.loc 1 389 0
 549 0038 4428     		cmp	r0, #68
 550 003a 08D0     		beq	.L52
 390:Src/communication/wakaama_client/objects/object_server.c ****     {
 391:Src/communication/wakaama_client/objects/object_server.c ****         (void)prv_server_delete(instanceId, objectP);
 551              		.loc 1 391 0
 552 003c 2146     		mov	r1, r4
 553 003e 3046     		mov	r0, r6
 554              	.LVL69:
 555 0040 FFF7FEFF 		bl	prv_server_delete
 556              	.LVL70:
 557              	.L50:
 392:Src/communication/wakaama_client/objects/object_server.c ****     }
 393:Src/communication/wakaama_client/objects/object_server.c ****     else
 394:Src/communication/wakaama_client/objects/object_server.c ****     {
 395:Src/communication/wakaama_client/objects/object_server.c ****         result = COAP_201_CREATED;
 396:Src/communication/wakaama_client/objects/object_server.c ****     }
 397:Src/communication/wakaama_client/objects/object_server.c **** 
 398:Src/communication/wakaama_client/objects/object_server.c ****     return result;
 399:Src/communication/wakaama_client/objects/object_server.c **** }
 558              		.loc 1 399 0
 559 0044 2846     		mov	r0, r5
 560 0046 BDE8F081 		pop	{r4, r5, r6, r7, r8, pc}
 561              	.LVL71:
 562              	.L51:
 381:Src/communication/wakaama_client/objects/object_server.c ****     memset(serverInstance, 0, sizeof(server_instance_t));
 563              		.loc 1 381 0
 564 004a A025     		movs	r5, #160
 565 004c FAE7     		b	.L50
 566              	.LVL72:
 567              	.L52:
 395:Src/communication/wakaama_client/objects/object_server.c ****     }
 568              		.loc 1 395 0
 569 004e 4125     		movs	r5, #65
 570 0050 F8E7     		b	.L50
 571              		.cfi_endproc
 572              	.LFE10:
 574              		.section	.text.prv_server_discover,"ax",%progbits
 575              		.align	1
 576              		.syntax unified
 577              		.thumb
ARM GAS  /var/folders/0d/93p3r6493yg7p0rvl_4r983m0000gn/T//ccW1MMiw.s 			page 19


 578              		.thumb_func
 579              		.fpu fpv4-sp-d16
 581              	prv_server_discover:
 582              	.LFB5:
 149:Src/communication/wakaama_client/objects/object_server.c ****     uint8_t result;
 583              		.loc 1 149 0
 584              		.cfi_startproc
 585              		@ args = 0, pretend = 0, frame = 24
 586              		@ frame_needed = 0, uses_anonymous_args = 0
 587              	.LVL73:
 588 0000 F0B5     		push	{r4, r5, r6, r7, lr}
 589              	.LCFI13:
 590              		.cfi_def_cfa_offset 20
 591              		.cfi_offset 4, -20
 592              		.cfi_offset 5, -16
 593              		.cfi_offset 6, -12
 594              		.cfi_offset 7, -8
 595              		.cfi_offset 14, -4
 596 0002 87B0     		sub	sp, sp, #28
 597              	.LCFI14:
 598              		.cfi_def_cfa_offset 48
 599              	.LVL74:
 156:Src/communication/wakaama_client/objects/object_server.c ****     {
 600              		.loc 1 156 0
 601 0004 0C68     		ldr	r4, [r1]
 602 0006 14B1     		cbz	r4, .L66
 181:Src/communication/wakaama_client/objects/object_server.c ****         {
 603              		.loc 1 181 0
 604 0008 0023     		movs	r3, #0
 605              	.LVL75:
 153:Src/communication/wakaama_client/objects/object_server.c **** 
 606              		.loc 1 153 0
 607 000a 4520     		movs	r0, #69
 608              	.LVL76:
 609 000c 24E0     		b	.L55
 610              	.LVL77:
 611              	.L66:
 612 000e 1546     		mov	r5, r2
 613 0010 0E46     		mov	r6, r1
 614              	.LBB5:
 158:Src/communication/wakaama_client/objects/object_server.c ****             LWM2M_SERVER_SHORT_ID_ID,
 615              		.loc 1 158 0
 616 0012 01AF     		add	r7, sp, #4
 617 0014 DFF858C0 		ldr	ip, .L68
 618 0018 BCE80F00 		ldmia	ip!, {r0, r1, r2, r3}
 619              	.LVL78:
 620 001c 0FC7     		stmia	r7!, {r0, r1, r2, r3}
 621 001e DCF80030 		ldr	r3, [ip]
 622 0022 3B80     		strh	r3, [r7]	@ movhi
 623              	.LVL79:
 171:Src/communication/wakaama_client/objects/object_server.c ****         if (*dataArrayP == NULL) return COAP_500_INTERNAL_SERVER_ERROR;
 624              		.loc 1 171 0
 625 0024 0920     		movs	r0, #9
 626 0026 FFF7FEFF 		bl	lwm2m_data_new
 627              	.LVL80:
 628 002a 2860     		str	r0, [r5]
 172:Src/communication/wakaama_client/objects/object_server.c ****         *numDataP = nbRes;
ARM GAS  /var/folders/0d/93p3r6493yg7p0rvl_4r983m0000gn/T//ccW1MMiw.s 			page 20


 629              		.loc 1 172 0
 630 002c 10B1     		cbz	r0, .L67
 173:Src/communication/wakaama_client/objects/object_server.c ****         for (i = 0; i < nbRes; i++)
 631              		.loc 1 173 0
 632 002e 0923     		movs	r3, #9
 633 0030 3360     		str	r3, [r6]
 634              	.LVL81:
 174:Src/communication/wakaama_client/objects/object_server.c ****         {
 635              		.loc 1 174 0
 636 0032 0BE0     		b	.L58
 637              	.LVL82:
 638              	.L67:
 172:Src/communication/wakaama_client/objects/object_server.c ****         *numDataP = nbRes;
 639              		.loc 1 172 0 discriminator 1
 640 0034 A020     		movs	r0, #160
 641 0036 0CE0     		b	.L57
 642              	.LVL83:
 643              	.L59:
 176:Src/communication/wakaama_client/objects/object_server.c ****         }
 644              		.loc 1 176 0 discriminator 3
 645 0038 2B68     		ldr	r3, [r5]
 646 003a 03EB0413 		add	r3, r3, r4, lsl #4
 647 003e 06AA     		add	r2, sp, #24
 648 0040 02EB4402 		add	r2, r2, r4, lsl #1
 649 0044 32F8142C 		ldrh	r2, [r2, #-20]
 650 0048 5A80     		strh	r2, [r3, #2]	@ movhi
 174:Src/communication/wakaama_client/objects/object_server.c ****         {
 651              		.loc 1 174 0 discriminator 3
 652 004a 0134     		adds	r4, r4, #1
 653              	.LVL84:
 654              	.L58:
 174:Src/communication/wakaama_client/objects/object_server.c ****         {
 655              		.loc 1 174 0 is_stmt 0 discriminator 1
 656 004c 082C     		cmp	r4, #8
 657 004e F3DD     		ble	.L59
 658              	.LBE5:
 153:Src/communication/wakaama_client/objects/object_server.c **** 
 659              		.loc 1 153 0 is_stmt 1
 660 0050 4520     		movs	r0, #69
 661              	.LVL85:
 662              	.L57:
 202:Src/communication/wakaama_client/objects/object_server.c **** 
 663              		.loc 1 202 0
 664 0052 07B0     		add	sp, sp, #28
 665              	.LCFI15:
 666              		.cfi_remember_state
 667              		.cfi_def_cfa_offset 20
 668              		@ sp needed
 669 0054 F0BD     		pop	{r4, r5, r6, r7, pc}
 670              	.LVL86:
 671              	.L60:
 672              	.LCFI16:
 673              		.cfi_restore_state
 181:Src/communication/wakaama_client/objects/object_server.c ****         {
 674              		.loc 1 181 0 discriminator 2
 675 0056 0133     		adds	r3, r3, #1
 676              	.LVL87:
ARM GAS  /var/folders/0d/93p3r6493yg7p0rvl_4r983m0000gn/T//ccW1MMiw.s 			page 21


 677              	.L55:
 181:Src/communication/wakaama_client/objects/object_server.c ****         {
 678              		.loc 1 181 0 is_stmt 0 discriminator 1
 679 0058 9C42     		cmp	r4, r3
 680 005a FADD     		ble	.L57
 181:Src/communication/wakaama_client/objects/object_server.c ****         {
 681              		.loc 1 181 0 discriminator 3
 682 005c 4528     		cmp	r0, #69
 683 005e F8D1     		bne	.L57
 183:Src/communication/wakaama_client/objects/object_server.c ****             {
 684              		.loc 1 183 0 is_stmt 1
 685 0060 1168     		ldr	r1, [r2]
 686 0062 01EB0311 		add	r1, r1, r3, lsl #4
 687 0066 4988     		ldrh	r1, [r1, #2]
 688 0068 0829     		cmp	r1, #8
 689 006a F4D9     		bls	.L60
 196:Src/communication/wakaama_client/objects/object_server.c ****             }
 690              		.loc 1 196 0
 691 006c 8420     		movs	r0, #132
 692              	.LVL88:
 693 006e F2E7     		b	.L60
 694              	.L69:
 695              		.align	2
 696              	.L68:
 697 0070 00000000 		.word	.LANCHOR0
 698              		.cfi_endproc
 699              	.LFE5:
 701              		.section	.text.prv_get_value,"ax",%progbits
 702              		.align	1
 703              		.syntax unified
 704              		.thumb
 705              		.thumb_func
 706              		.fpu fpv4-sp-d16
 708              	prv_get_value:
 709              	.LFB3:
  58:Src/communication/wakaama_client/objects/object_server.c ****     switch (dataP->id)
 710              		.loc 1 58 0
 711              		.cfi_startproc
 712              		@ args = 0, pretend = 0, frame = 0
 713              		@ frame_needed = 0, uses_anonymous_args = 0
 714              	.LVL89:
 715 0000 10B5     		push	{r4, lr}
 716              	.LCFI17:
 717              		.cfi_def_cfa_offset 8
 718              		.cfi_offset 4, -8
 719              		.cfi_offset 14, -4
 720 0002 0C46     		mov	r4, r1
  59:Src/communication/wakaama_client/objects/object_server.c ****     {
 721              		.loc 1 59 0
 722 0004 4388     		ldrh	r3, [r0, #2]
 723 0006 082B     		cmp	r3, #8
 724 0008 38D8     		bhi	.L81
 725 000a DFE803F0 		tbb	[pc, r3]
 726              	.L73:
 727 000e 07       		.byte	(.L72-.L73)/2
 728 000f 0E       		.byte	(.L74-.L73)/2
 729 0010 15       		.byte	(.L75-.L73)/2
ARM GAS  /var/folders/0d/93p3r6493yg7p0rvl_4r983m0000gn/T//ccW1MMiw.s 			page 22


 730 0011 1C       		.byte	(.L76-.L73)/2
 731 0012 05       		.byte	(.L77-.L73)/2
 732 0013 23       		.byte	(.L78-.L73)/2
 733 0014 2A       		.byte	(.L79-.L73)/2
 734 0015 30       		.byte	(.L80-.L73)/2
 735 0016 05       		.byte	(.L77-.L73)/2
 736 0017 00       		.p2align 1
 737              	.L77:
  78:Src/communication/wakaama_client/objects/object_server.c **** 
 738              		.loc 1 78 0
 739 0018 8520     		movs	r0, #133
 740              	.LVL90:
 741              	.L71:
  98:Src/communication/wakaama_client/objects/object_server.c **** 
 742              		.loc 1 98 0
 743 001a 10BD     		pop	{r4, pc}
 744              	.LVL91:
 745              	.L72:
  62:Src/communication/wakaama_client/objects/object_server.c ****         return COAP_205_CONTENT;
 746              		.loc 1 62 0
 747 001c 0246     		mov	r2, r0
 748 001e E088     		ldrh	r0, [r4, #6]
 749              	.LVL92:
 750 0020 0021     		movs	r1, #0
 751              	.LVL93:
 752 0022 FFF7FEFF 		bl	lwm2m_data_encode_int
 753              	.LVL94:
  63:Src/communication/wakaama_client/objects/object_server.c **** 
 754              		.loc 1 63 0
 755 0026 4520     		movs	r0, #69
 756 0028 F7E7     		b	.L71
 757              	.LVL95:
 758              	.L74:
  66:Src/communication/wakaama_client/objects/object_server.c ****         return COAP_205_CONTENT;
 759              		.loc 1 66 0
 760 002a 0246     		mov	r2, r0
 761 002c 8868     		ldr	r0, [r1, #8]
 762              	.LVL96:
 763 002e 0021     		movs	r1, #0
 764              	.LVL97:
 765 0030 FFF7FEFF 		bl	lwm2m_data_encode_int
 766              	.LVL98:
  67:Src/communication/wakaama_client/objects/object_server.c **** 
 767              		.loc 1 67 0
 768 0034 4520     		movs	r0, #69
 769 0036 F0E7     		b	.L71
 770              	.LVL99:
 771              	.L75:
  70:Src/communication/wakaama_client/objects/object_server.c ****         return COAP_205_CONTENT;
 772              		.loc 1 70 0
 773 0038 0246     		mov	r2, r0
 774 003a C868     		ldr	r0, [r1, #12]
 775              	.LVL100:
 776 003c 0021     		movs	r1, #0
 777              	.LVL101:
 778 003e FFF7FEFF 		bl	lwm2m_data_encode_int
 779              	.LVL102:
ARM GAS  /var/folders/0d/93p3r6493yg7p0rvl_4r983m0000gn/T//ccW1MMiw.s 			page 23


  71:Src/communication/wakaama_client/objects/object_server.c **** 
 780              		.loc 1 71 0
 781 0042 4520     		movs	r0, #69
 782 0044 E9E7     		b	.L71
 783              	.LVL103:
 784              	.L76:
  74:Src/communication/wakaama_client/objects/object_server.c ****         return COAP_205_CONTENT;
 785              		.loc 1 74 0
 786 0046 0246     		mov	r2, r0
 787 0048 0869     		ldr	r0, [r1, #16]
 788              	.LVL104:
 789 004a 0021     		movs	r1, #0
 790              	.LVL105:
 791 004c FFF7FEFF 		bl	lwm2m_data_encode_int
 792              	.LVL106:
  75:Src/communication/wakaama_client/objects/object_server.c **** 
 793              		.loc 1 75 0
 794 0050 4520     		movs	r0, #69
 795 0052 E2E7     		b	.L71
 796              	.LVL107:
 797              	.L78:
  81:Src/communication/wakaama_client/objects/object_server.c ****         return COAP_205_CONTENT;
 798              		.loc 1 81 0
 799 0054 0246     		mov	r2, r0
 800 0056 4869     		ldr	r0, [r1, #20]
 801              	.LVL108:
 802 0058 0021     		movs	r1, #0
 803              	.LVL109:
 804 005a FFF7FEFF 		bl	lwm2m_data_encode_int
 805              	.LVL110:
  82:Src/communication/wakaama_client/objects/object_server.c **** 
 806              		.loc 1 82 0
 807 005e 4520     		movs	r0, #69
 808 0060 DBE7     		b	.L71
 809              	.LVL111:
 810              	.L79:
  85:Src/communication/wakaama_client/objects/object_server.c ****         return COAP_205_CONTENT;
 811              		.loc 1 85 0
 812 0062 0146     		mov	r1, r0
 813              	.LVL112:
 814 0064 207E     		ldrb	r0, [r4, #24]	@ zero_extendqisi2
 815              	.LVL113:
 816 0066 FFF7FEFF 		bl	lwm2m_data_encode_bool
 817              	.LVL114:
  86:Src/communication/wakaama_client/objects/object_server.c **** 
 818              		.loc 1 86 0
 819 006a 4520     		movs	r0, #69
 820 006c D5E7     		b	.L71
 821              	.LVL115:
 822              	.L80:
  89:Src/communication/wakaama_client/objects/object_server.c ****         return COAP_205_CONTENT;
 823              		.loc 1 89 0
 824 006e 0146     		mov	r1, r0
 825              	.LVL116:
 826 0070 04F11900 		add	r0, r4, #25
 827              	.LVL117:
 828 0074 FFF7FEFF 		bl	lwm2m_data_encode_string
ARM GAS  /var/folders/0d/93p3r6493yg7p0rvl_4r983m0000gn/T//ccW1MMiw.s 			page 24


 829              	.LVL118:
  90:Src/communication/wakaama_client/objects/object_server.c **** 
 830              		.loc 1 90 0
 831 0078 4520     		movs	r0, #69
 832 007a CEE7     		b	.L71
 833              	.LVL119:
 834              	.L81:
  96:Src/communication/wakaama_client/objects/object_server.c ****     }
 835              		.loc 1 96 0
 836 007c 8420     		movs	r0, #132
 837              	.LVL120:
 838 007e CCE7     		b	.L71
 839              		.cfi_endproc
 840              	.LFE3:
 842              		.section	.text.prv_server_read,"ax",%progbits
 843              		.align	1
 844              		.syntax unified
 845              		.thumb
 846              		.thumb_func
 847              		.fpu fpv4-sp-d16
 849              	prv_server_read:
 850              	.LFB4:
 104:Src/communication/wakaama_client/objects/object_server.c ****     server_instance_t * targetP;
 851              		.loc 1 104 0
 852              		.cfi_startproc
 853              		@ args = 0, pretend = 0, frame = 16
 854              		@ frame_needed = 0, uses_anonymous_args = 0
 855              	.LVL121:
 856 0000 F0B5     		push	{r4, r5, r6, r7, lr}
 857              	.LCFI18:
 858              		.cfi_def_cfa_offset 20
 859              		.cfi_offset 4, -20
 860              		.cfi_offset 5, -16
 861              		.cfi_offset 6, -12
 862              		.cfi_offset 7, -8
 863              		.cfi_offset 14, -4
 864 0002 85B0     		sub	sp, sp, #20
 865              	.LCFI19:
 866              		.cfi_def_cfa_offset 40
 867 0004 0E46     		mov	r6, r1
 868 0006 1546     		mov	r5, r2
 109:Src/communication/wakaama_client/objects/object_server.c ****     if (NULL == targetP) return COAP_404_NOT_FOUND;
 869              		.loc 1 109 0
 870 0008 0146     		mov	r1, r0
 871              	.LVL122:
 872 000a 9868     		ldr	r0, [r3, #8]
 873              	.LVL123:
 874 000c FFF7FEFF 		bl	lwm2m_list_find
 875              	.LVL124:
 110:Src/communication/wakaama_client/objects/object_server.c **** 
 876              		.loc 1 110 0
 877 0010 78B3     		cbz	r0, .L90
 878 0012 0746     		mov	r7, r0
 113:Src/communication/wakaama_client/objects/object_server.c ****     {
 879              		.loc 1 113 0
 880 0014 3468     		ldr	r4, [r6]
 881 0016 74B1     		cbz	r4, .L92
ARM GAS  /var/folders/0d/93p3r6493yg7p0rvl_4r983m0000gn/T//ccW1MMiw.s 			page 25


 882              	.LVL125:
 883              	.L85:
 104:Src/communication/wakaama_client/objects/object_server.c ****     server_instance_t * targetP;
 884              		.loc 1 104 0 discriminator 2
 885 0018 0024     		movs	r4, #0
 886              	.L89:
 887              	.LVL126:
 138:Src/communication/wakaama_client/objects/object_server.c ****         i++;
 888              		.loc 1 138 0 discriminator 2
 889 001a 2868     		ldr	r0, [r5]
 890 001c 3946     		mov	r1, r7
 891 001e 00EB0410 		add	r0, r0, r4, lsl #4
 892 0022 FFF7FEFF 		bl	prv_get_value
 893              	.LVL127:
 139:Src/communication/wakaama_client/objects/object_server.c ****     } while (i < *numDataP && result == COAP_205_CONTENT);
 894              		.loc 1 139 0 discriminator 2
 895 0026 0134     		adds	r4, r4, #1
 896              	.LVL128:
 140:Src/communication/wakaama_client/objects/object_server.c **** 
 897              		.loc 1 140 0 discriminator 2
 898 0028 3368     		ldr	r3, [r6]
 899 002a A342     		cmp	r3, r4
 900 002c 01DD     		ble	.L84
 140:Src/communication/wakaama_client/objects/object_server.c **** 
 901              		.loc 1 140 0 is_stmt 0 discriminator 1
 902 002e 4528     		cmp	r0, #69
 903 0030 F3D0     		beq	.L89
 904              	.LVL129:
 905              	.L84:
 143:Src/communication/wakaama_client/objects/object_server.c **** 
 906              		.loc 1 143 0 is_stmt 1
 907 0032 05B0     		add	sp, sp, #20
 908              	.LCFI20:
 909              		.cfi_remember_state
 910              		.cfi_def_cfa_offset 20
 911              		@ sp needed
 912 0034 F0BD     		pop	{r4, r5, r6, r7, pc}
 913              	.LVL130:
 914              	.L92:
 915              	.LCFI21:
 916              		.cfi_restore_state
 917              	.LBB6:
 115:Src/communication/wakaama_client/objects/object_server.c ****             LWM2M_SERVER_SHORT_ID_ID,
 918              		.loc 1 115 0
 919 0036 EC46     		mov	ip, sp
 920 0038 0F4B     		ldr	r3, .L94
 921 003a 0FCB     		ldm	r3, {r0, r1, r2, r3}
 922              	.LVL131:
 923 003c ACE80700 		stmia	ip!, {r0, r1, r2}
 924 0040 ACF80030 		strh	r3, [ip]	@ movhi
 925              	.LVL132:
 126:Src/communication/wakaama_client/objects/object_server.c ****         if (*dataArrayP == NULL) return COAP_500_INTERNAL_SERVER_ERROR;
 926              		.loc 1 126 0
 927 0044 0720     		movs	r0, #7
 928 0046 FFF7FEFF 		bl	lwm2m_data_new
 929              	.LVL133:
 930 004a 2860     		str	r0, [r5]
ARM GAS  /var/folders/0d/93p3r6493yg7p0rvl_4r983m0000gn/T//ccW1MMiw.s 			page 26


 127:Src/communication/wakaama_client/objects/object_server.c ****         *numDataP = nbRes;
 931              		.loc 1 127 0
 932 004c 10B1     		cbz	r0, .L93
 128:Src/communication/wakaama_client/objects/object_server.c ****         for (i = 0 ; i < nbRes ; i++)
 933              		.loc 1 128 0
 934 004e 0723     		movs	r3, #7
 935 0050 3360     		str	r3, [r6]
 936              	.LVL134:
 129:Src/communication/wakaama_client/objects/object_server.c ****         {
 937              		.loc 1 129 0
 938 0052 0BE0     		b	.L87
 939              	.LVL135:
 940              	.L93:
 127:Src/communication/wakaama_client/objects/object_server.c ****         *numDataP = nbRes;
 941              		.loc 1 127 0 discriminator 1
 942 0054 A020     		movs	r0, #160
 943 0056 ECE7     		b	.L84
 944              	.LVL136:
 945              	.L88:
 131:Src/communication/wakaama_client/objects/object_server.c ****         }
 946              		.loc 1 131 0 discriminator 3
 947 0058 2B68     		ldr	r3, [r5]
 948 005a 03EB0413 		add	r3, r3, r4, lsl #4
 949 005e 04AA     		add	r2, sp, #16
 950 0060 02EB4402 		add	r2, r2, r4, lsl #1
 951 0064 32F8102C 		ldrh	r2, [r2, #-16]
 952 0068 5A80     		strh	r2, [r3, #2]	@ movhi
 129:Src/communication/wakaama_client/objects/object_server.c ****         {
 953              		.loc 1 129 0 discriminator 3
 954 006a 0134     		adds	r4, r4, #1
 955              	.LVL137:
 956              	.L87:
 129:Src/communication/wakaama_client/objects/object_server.c ****         {
 957              		.loc 1 129 0 is_stmt 0 discriminator 1
 958 006c 062C     		cmp	r4, #6
 959 006e F3DD     		ble	.L88
 960 0070 D2E7     		b	.L85
 961              	.LVL138:
 962              	.L90:
 963              	.LBE6:
 110:Src/communication/wakaama_client/objects/object_server.c **** 
 964              		.loc 1 110 0 is_stmt 1
 965 0072 8420     		movs	r0, #132
 966              	.LVL139:
 967 0074 DDE7     		b	.L84
 968              	.L95:
 969 0076 00BF     		.align	2
 970              	.L94:
 971 0078 14000000 		.word	.LANCHOR0+20
 972              		.cfi_endproc
 973              	.LFE4:
 975              		.section	.text.copy_server_object,"ax",%progbits
 976              		.align	1
 977              		.global	copy_server_object
 978              		.syntax unified
 979              		.thumb
 980              		.thumb_func
ARM GAS  /var/folders/0d/93p3r6493yg7p0rvl_4r983m0000gn/T//ccW1MMiw.s 			page 27


 981              		.fpu fpv4-sp-d16
 983              	copy_server_object:
 984              	.LFB11:
 400:Src/communication/wakaama_client/objects/object_server.c **** 
 401:Src/communication/wakaama_client/objects/object_server.c **** void copy_server_object(lwm2m_object_t * objectDest, lwm2m_object_t * objectSrc)
 402:Src/communication/wakaama_client/objects/object_server.c **** {
 985              		.loc 1 402 0
 986              		.cfi_startproc
 987              		@ args = 0, pretend = 0, frame = 0
 988              		@ frame_needed = 0, uses_anonymous_args = 0
 989              	.LVL140:
 990 0000 F8B5     		push	{r3, r4, r5, r6, r7, lr}
 991              	.LCFI22:
 992              		.cfi_def_cfa_offset 24
 993              		.cfi_offset 3, -24
 994              		.cfi_offset 4, -20
 995              		.cfi_offset 5, -16
 996              		.cfi_offset 6, -12
 997              		.cfi_offset 7, -8
 998              		.cfi_offset 14, -4
 999 0002 0746     		mov	r7, r0
 403:Src/communication/wakaama_client/objects/object_server.c ****     memcpy(objectDest, objectSrc, sizeof(lwm2m_object_t));
 1000              		.loc 1 403 0
 1001 0004 0B46     		mov	r3, r1
 1002 0006 0246     		mov	r2, r0
 1003 0008 01F12000 		add	r0, r1, #32
 1004              	.LVL141:
 1005              	.L97:
 1006 000c D3F800C0 		ldr	ip, [r3]	@ unaligned
 1007 0010 5E68     		ldr	r6, [r3, #4]	@ unaligned
 1008 0012 9D68     		ldr	r5, [r3, #8]	@ unaligned
 1009 0014 DC68     		ldr	r4, [r3, #12]	@ unaligned
 1010 0016 C2F800C0 		str	ip, [r2]	@ unaligned
 1011 001a 5660     		str	r6, [r2, #4]	@ unaligned
 1012 001c 9560     		str	r5, [r2, #8]	@ unaligned
 1013 001e D460     		str	r4, [r2, #12]	@ unaligned
 1014 0020 1033     		adds	r3, r3, #16
 1015 0022 1032     		adds	r2, r2, #16
 1016 0024 8342     		cmp	r3, r0
 1017 0026 F1D1     		bne	.L97
 1018 0028 1B68     		ldr	r3, [r3]	@ unaligned
 1019 002a 1360     		str	r3, [r2]	@ unaligned
 404:Src/communication/wakaama_client/objects/object_server.c ****     objectDest->instanceList = NULL;
 1020              		.loc 1 404 0
 1021 002c 0026     		movs	r6, #0
 1022 002e BE60     		str	r6, [r7, #8]
 405:Src/communication/wakaama_client/objects/object_server.c ****     objectDest->userData = NULL;
 1023              		.loc 1 405 0
 1024 0030 7E62     		str	r6, [r7, #36]
 406:Src/communication/wakaama_client/objects/object_server.c ****     server_instance_t * instanceSrc = (server_instance_t *)objectSrc->instanceList;
 1025              		.loc 1 406 0
 1026 0032 8C68     		ldr	r4, [r1, #8]
 1027              	.LVL142:
 407:Src/communication/wakaama_client/objects/object_server.c ****     server_instance_t * previousInstanceDest = NULL;
 408:Src/communication/wakaama_client/objects/object_server.c ****     while (instanceSrc != NULL)
 1028              		.loc 1 408 0
 1029 0034 01E0     		b	.L98
ARM GAS  /var/folders/0d/93p3r6493yg7p0rvl_4r983m0000gn/T//ccW1MMiw.s 			page 28


 1030              	.LVL143:
 1031              	.L104:
 1032              	.LBB7:
 409:Src/communication/wakaama_client/objects/object_server.c ****     {
 410:Src/communication/wakaama_client/objects/object_server.c ****         server_instance_t * instanceDest = (server_instance_t *)lwm2m_malloc(sizeof(server_instance
 411:Src/communication/wakaama_client/objects/object_server.c ****         if (NULL == instanceDest)
 412:Src/communication/wakaama_client/objects/object_server.c ****         {
 413:Src/communication/wakaama_client/objects/object_server.c ****             return;
 414:Src/communication/wakaama_client/objects/object_server.c ****         }
 415:Src/communication/wakaama_client/objects/object_server.c ****         memcpy(instanceDest, instanceSrc, sizeof(server_instance_t));
 416:Src/communication/wakaama_client/objects/object_server.c ****         // not sure it's necessary:
 417:Src/communication/wakaama_client/objects/object_server.c ****         strcpy(instanceDest->binding, instanceSrc->binding);
 418:Src/communication/wakaama_client/objects/object_server.c ****         instanceSrc = (server_instance_t *)instanceSrc->next;
 419:Src/communication/wakaama_client/objects/object_server.c ****         if (previousInstanceDest == NULL)
 420:Src/communication/wakaama_client/objects/object_server.c ****         {
 421:Src/communication/wakaama_client/objects/object_server.c ****             objectDest->instanceList = (lwm2m_list_t *)instanceDest;
 1033              		.loc 1 421 0
 1034 0036 BD60     		str	r5, [r7, #8]
 1035              	.L101:
 1036              	.LBE7:
 402:Src/communication/wakaama_client/objects/object_server.c ****     memcpy(objectDest, objectSrc, sizeof(lwm2m_object_t));
 1037              		.loc 1 402 0
 1038 0038 2E46     		mov	r6, r5
 1039              	.LVL144:
 1040              	.L98:
 408:Src/communication/wakaama_client/objects/object_server.c ****     {
 1041              		.loc 1 408 0
 1042 003a FCB1     		cbz	r4, .L96
 1043              	.LBB8:
 410:Src/communication/wakaama_client/objects/object_server.c ****         if (NULL == instanceDest)
 1044              		.loc 1 410 0
 1045 003c 2020     		movs	r0, #32
 1046 003e FFF7FEFF 		bl	lwm2m_malloc
 1047              	.LVL145:
 411:Src/communication/wakaama_client/objects/object_server.c ****         {
 1048              		.loc 1 411 0
 1049 0042 0546     		mov	r5, r0
 1050 0044 D0B1     		cbz	r0, .L96
 415:Src/communication/wakaama_client/objects/object_server.c ****         // not sure it's necessary:
 1051              		.loc 1 415 0
 1052 0046 2068     		ldr	r0, [r4]	@ unaligned
 1053              	.LVL146:
 1054 0048 6168     		ldr	r1, [r4, #4]	@ unaligned
 1055 004a A268     		ldr	r2, [r4, #8]	@ unaligned
 1056 004c E368     		ldr	r3, [r4, #12]	@ unaligned
 1057 004e 2860     		str	r0, [r5]	@ unaligned
 1058 0050 6960     		str	r1, [r5, #4]	@ unaligned
 1059 0052 AA60     		str	r2, [r5, #8]	@ unaligned
 1060 0054 EB60     		str	r3, [r5, #12]	@ unaligned
 1061 0056 2069     		ldr	r0, [r4, #16]	@ unaligned
 1062 0058 6169     		ldr	r1, [r4, #20]	@ unaligned
 1063 005a A269     		ldr	r2, [r4, #24]	@ unaligned
 1064 005c E369     		ldr	r3, [r4, #28]	@ unaligned
 1065 005e 2861     		str	r0, [r5, #16]	@ unaligned
 1066 0060 6961     		str	r1, [r5, #20]	@ unaligned
 1067 0062 AA61     		str	r2, [r5, #24]	@ unaligned
 1068 0064 EB61     		str	r3, [r5, #28]	@ unaligned
ARM GAS  /var/folders/0d/93p3r6493yg7p0rvl_4r983m0000gn/T//ccW1MMiw.s 			page 29


 417:Src/communication/wakaama_client/objects/object_server.c ****         instanceSrc = (server_instance_t *)instanceSrc->next;
 1069              		.loc 1 417 0
 1070 0066 04F11901 		add	r1, r4, #25
 1071 006a 05F11900 		add	r0, r5, #25
 1072 006e FFF7FEFF 		bl	strcpy
 1073              	.LVL147:
 418:Src/communication/wakaama_client/objects/object_server.c ****         if (previousInstanceDest == NULL)
 1074              		.loc 1 418 0
 1075 0072 2468     		ldr	r4, [r4]
 1076              	.LVL148:
 419:Src/communication/wakaama_client/objects/object_server.c ****         {
 1077              		.loc 1 419 0
 1078 0074 002E     		cmp	r6, #0
 1079 0076 DED0     		beq	.L104
 422:Src/communication/wakaama_client/objects/object_server.c ****         }
 423:Src/communication/wakaama_client/objects/object_server.c ****         else
 424:Src/communication/wakaama_client/objects/object_server.c ****         {
 425:Src/communication/wakaama_client/objects/object_server.c ****             previousInstanceDest->next = instanceDest;
 1080              		.loc 1 425 0
 1081 0078 3560     		str	r5, [r6]
 1082 007a DDE7     		b	.L101
 1083              	.LVL149:
 1084              	.L96:
 1085              	.LBE8:
 426:Src/communication/wakaama_client/objects/object_server.c ****         }
 427:Src/communication/wakaama_client/objects/object_server.c ****         previousInstanceDest = instanceDest;
 428:Src/communication/wakaama_client/objects/object_server.c ****     }
 429:Src/communication/wakaama_client/objects/object_server.c **** }
 1086              		.loc 1 429 0
 1087 007c F8BD     		pop	{r3, r4, r5, r6, r7, pc}
 1088              		.cfi_endproc
 1089              	.LFE11:
 1091              		.section	.text.display_server_object,"ax",%progbits
 1092              		.align	1
 1093              		.global	display_server_object
 1094              		.syntax unified
 1095              		.thumb
 1096              		.thumb_func
 1097              		.fpu fpv4-sp-d16
 1099              	display_server_object:
 1100              	.LFB12:
 430:Src/communication/wakaama_client/objects/object_server.c **** 
 431:Src/communication/wakaama_client/objects/object_server.c **** void display_server_object(lwm2m_object_t * object)
 432:Src/communication/wakaama_client/objects/object_server.c **** {
 1101              		.loc 1 432 0
 1102              		.cfi_startproc
 1103              		@ args = 0, pretend = 0, frame = 0
 1104              		@ frame_needed = 0, uses_anonymous_args = 0
 1105              		@ link register save eliminated.
 1106              	.LVL150:
 433:Src/communication/wakaama_client/objects/object_server.c **** #ifdef WITH_LOGS
 434:Src/communication/wakaama_client/objects/object_server.c ****     fprintf(stdout, "  /%u: Server object, instances:\r\n", object->objID);
 435:Src/communication/wakaama_client/objects/object_server.c ****     server_instance_t * serverInstance = (server_instance_t *)object->instanceList;
 436:Src/communication/wakaama_client/objects/object_server.c ****     while (serverInstance != NULL)
 437:Src/communication/wakaama_client/objects/object_server.c ****     {
 438:Src/communication/wakaama_client/objects/object_server.c ****         fprintf(stdout, "    /%u/%u: instanceId: %u, shortServerId: %u, lifetime: %u, storing: %s, 
 439:Src/communication/wakaama_client/objects/object_server.c ****                 object->objID, serverInstance->instanceId,
ARM GAS  /var/folders/0d/93p3r6493yg7p0rvl_4r983m0000gn/T//ccW1MMiw.s 			page 30


 440:Src/communication/wakaama_client/objects/object_server.c ****                 serverInstance->instanceId, serverInstance->shortServerId, serverInstance->lifetime
 441:Src/communication/wakaama_client/objects/object_server.c ****                 serverInstance->storing ? "true" : "false", serverInstance->binding);
 442:Src/communication/wakaama_client/objects/object_server.c ****         serverInstance = (server_instance_t *)serverInstance->next;
 443:Src/communication/wakaama_client/objects/object_server.c ****     }
 444:Src/communication/wakaama_client/objects/object_server.c **** #endif
 445:Src/communication/wakaama_client/objects/object_server.c **** }
 1107              		.loc 1 445 0
 1108 0000 7047     		bx	lr
 1109              		.cfi_endproc
 1110              	.LFE12:
 1112              		.section	.text.get_server_object,"ax",%progbits
 1113              		.align	1
 1114              		.global	get_server_object
 1115              		.syntax unified
 1116              		.thumb
 1117              		.thumb_func
 1118              		.fpu fpv4-sp-d16
 1120              	get_server_object:
 1121              	.LFB13:
 446:Src/communication/wakaama_client/objects/object_server.c **** 
 447:Src/communication/wakaama_client/objects/object_server.c **** lwm2m_object_t * get_server_object(int serverId,
 448:Src/communication/wakaama_client/objects/object_server.c ****                                    const char* binding,
 449:Src/communication/wakaama_client/objects/object_server.c ****                                    int lifetime,
 450:Src/communication/wakaama_client/objects/object_server.c ****                                    bool storing)
 451:Src/communication/wakaama_client/objects/object_server.c **** {
 1122              		.loc 1 451 0
 1123              		.cfi_startproc
 1124              		@ args = 0, pretend = 0, frame = 0
 1125              		@ frame_needed = 0, uses_anonymous_args = 0
 1126              	.LVL151:
 1127 0000 2DE9F843 		push	{r3, r4, r5, r6, r7, r8, r9, lr}
 1128              	.LCFI23:
 1129              		.cfi_def_cfa_offset 32
 1130              		.cfi_offset 3, -32
 1131              		.cfi_offset 4, -28
 1132              		.cfi_offset 5, -24
 1133              		.cfi_offset 6, -20
 1134              		.cfi_offset 7, -16
 1135              		.cfi_offset 8, -12
 1136              		.cfi_offset 9, -8
 1137              		.cfi_offset 14, -4
 1138 0004 8146     		mov	r9, r0
 1139 0006 0E46     		mov	r6, r1
 1140 0008 9046     		mov	r8, r2
 1141 000a 1F46     		mov	r7, r3
 452:Src/communication/wakaama_client/objects/object_server.c ****     lwm2m_object_t * serverObj;
 453:Src/communication/wakaama_client/objects/object_server.c **** 
 454:Src/communication/wakaama_client/objects/object_server.c ****     serverObj = (lwm2m_object_t *)lwm2m_malloc(sizeof(lwm2m_object_t));
 1142              		.loc 1 454 0
 1143 000c 2820     		movs	r0, #40
 1144              	.LVL152:
 1145 000e FFF7FEFF 		bl	lwm2m_malloc
 1146              	.LVL153:
 455:Src/communication/wakaama_client/objects/object_server.c **** 
 456:Src/communication/wakaama_client/objects/object_server.c ****     if (NULL != serverObj)
 1147              		.loc 1 456 0
 1148 0012 0446     		mov	r4, r0
ARM GAS  /var/folders/0d/93p3r6493yg7p0rvl_4r983m0000gn/T//ccW1MMiw.s 			page 31


 1149 0014 0028     		cmp	r0, #0
 1150 0016 30D0     		beq	.L106
 1151              	.LBB9:
 457:Src/communication/wakaama_client/objects/object_server.c ****     {
 458:Src/communication/wakaama_client/objects/object_server.c ****         server_instance_t * serverInstance;
 459:Src/communication/wakaama_client/objects/object_server.c **** 
 460:Src/communication/wakaama_client/objects/object_server.c ****         memset(serverObj, 0, sizeof(lwm2m_object_t));
 1152              		.loc 1 460 0
 1153 0018 2822     		movs	r2, #40
 1154 001a 0021     		movs	r1, #0
 1155 001c FFF7FEFF 		bl	memset
 1156              	.LVL154:
 461:Src/communication/wakaama_client/objects/object_server.c **** 
 462:Src/communication/wakaama_client/objects/object_server.c ****         serverObj->objID = 1;
 1157              		.loc 1 462 0
 1158 0020 0123     		movs	r3, #1
 1159 0022 A380     		strh	r3, [r4, #4]	@ movhi
 463:Src/communication/wakaama_client/objects/object_server.c **** 
 464:Src/communication/wakaama_client/objects/object_server.c ****         // Manually create an hardcoded server
 465:Src/communication/wakaama_client/objects/object_server.c ****         serverInstance = (server_instance_t *)lwm2m_malloc(sizeof(server_instance_t));
 1160              		.loc 1 465 0
 1161 0024 2020     		movs	r0, #32
 1162 0026 FFF7FEFF 		bl	lwm2m_malloc
 1163              	.LVL155:
 466:Src/communication/wakaama_client/objects/object_server.c ****         if (NULL == serverInstance)
 1164              		.loc 1 466 0
 1165 002a 0546     		mov	r5, r0
 1166 002c 40B3     		cbz	r0, .L110
 467:Src/communication/wakaama_client/objects/object_server.c ****         {
 468:Src/communication/wakaama_client/objects/object_server.c ****             lwm2m_free(serverObj);
 469:Src/communication/wakaama_client/objects/object_server.c ****             return NULL;
 470:Src/communication/wakaama_client/objects/object_server.c ****         }
 471:Src/communication/wakaama_client/objects/object_server.c **** 
 472:Src/communication/wakaama_client/objects/object_server.c ****         memset(serverInstance, 0, sizeof(server_instance_t));
 1167              		.loc 1 472 0
 1168 002e 2022     		movs	r2, #32
 1169 0030 0021     		movs	r1, #0
 1170 0032 FFF7FEFF 		bl	memset
 1171              	.LVL156:
 473:Src/communication/wakaama_client/objects/object_server.c ****         serverInstance->instanceId = 0;
 1172              		.loc 1 473 0
 1173 0036 0023     		movs	r3, #0
 1174 0038 AB80     		strh	r3, [r5, #4]	@ movhi
 474:Src/communication/wakaama_client/objects/object_server.c ****         serverInstance->shortServerId = serverId;
 1175              		.loc 1 474 0
 1176 003a A5F80690 		strh	r9, [r5, #6]	@ movhi
 475:Src/communication/wakaama_client/objects/object_server.c ****         serverInstance->lifetime = lifetime;
 1177              		.loc 1 475 0
 1178 003e C5F80880 		str	r8, [r5, #8]
 476:Src/communication/wakaama_client/objects/object_server.c ****         serverInstance->storing = storing;
 1179              		.loc 1 476 0
 1180 0042 2F76     		strb	r7, [r5, #24]
 477:Src/communication/wakaama_client/objects/object_server.c ****         memcpy (serverInstance->binding, binding, strlen(binding)+1);
 1181              		.loc 1 477 0
 1182 0044 05F11907 		add	r7, r5, #25
 1183 0048 3046     		mov	r0, r6
 1184 004a FFF7FEFF 		bl	strlen
ARM GAS  /var/folders/0d/93p3r6493yg7p0rvl_4r983m0000gn/T//ccW1MMiw.s 			page 32


 1185              	.LVL157:
 1186 004e 421C     		adds	r2, r0, #1
 1187 0050 3146     		mov	r1, r6
 1188 0052 3846     		mov	r0, r7
 1189 0054 FFF7FEFF 		bl	memcpy
 1190              	.LVL158:
 478:Src/communication/wakaama_client/objects/object_server.c ****         serverObj->instanceList = LWM2M_LIST_ADD(serverObj->instanceList, serverInstance);
 1191              		.loc 1 478 0
 1192 0058 2946     		mov	r1, r5
 1193 005a A068     		ldr	r0, [r4, #8]
 1194 005c FFF7FEFF 		bl	lwm2m_list_add
 1195              	.LVL159:
 1196 0060 A060     		str	r0, [r4, #8]
 479:Src/communication/wakaama_client/objects/object_server.c **** 
 480:Src/communication/wakaama_client/objects/object_server.c ****         serverObj->readFunc = prv_server_read;
 1197              		.loc 1 480 0
 1198 0062 0A4B     		ldr	r3, .L111
 1199 0064 E360     		str	r3, [r4, #12]
 481:Src/communication/wakaama_client/objects/object_server.c ****         serverObj->discoverFunc = prv_server_discover;
 1200              		.loc 1 481 0
 1201 0066 0A4B     		ldr	r3, .L111+4
 1202 0068 2362     		str	r3, [r4, #32]
 482:Src/communication/wakaama_client/objects/object_server.c ****         serverObj->writeFunc = prv_server_write;
 1203              		.loc 1 482 0
 1204 006a 0A4B     		ldr	r3, .L111+8
 1205 006c 2361     		str	r3, [r4, #16]
 483:Src/communication/wakaama_client/objects/object_server.c ****         serverObj->createFunc = prv_server_create;
 1206              		.loc 1 483 0
 1207 006e 0A4B     		ldr	r3, .L111+12
 1208 0070 A361     		str	r3, [r4, #24]
 484:Src/communication/wakaama_client/objects/object_server.c ****         serverObj->deleteFunc = prv_server_delete;
 1209              		.loc 1 484 0
 1210 0072 0A4B     		ldr	r3, .L111+16
 1211 0074 E361     		str	r3, [r4, #28]
 485:Src/communication/wakaama_client/objects/object_server.c ****         serverObj->executeFunc = prv_server_execute;
 1212              		.loc 1 485 0
 1213 0076 0A4B     		ldr	r3, .L111+20
 1214 0078 6361     		str	r3, [r4, #20]
 1215              	.LVL160:
 1216              	.L106:
 1217              	.LBE9:
 486:Src/communication/wakaama_client/objects/object_server.c ****     }
 487:Src/communication/wakaama_client/objects/object_server.c **** 
 488:Src/communication/wakaama_client/objects/object_server.c ****     return serverObj;
 489:Src/communication/wakaama_client/objects/object_server.c **** }
 1218              		.loc 1 489 0
 1219 007a 2046     		mov	r0, r4
 1220 007c BDE8F883 		pop	{r3, r4, r5, r6, r7, r8, r9, pc}
 1221              	.LVL161:
 1222              	.L110:
 1223              	.LBB10:
 468:Src/communication/wakaama_client/objects/object_server.c ****             return NULL;
 1224              		.loc 1 468 0
 1225 0080 2046     		mov	r0, r4
 1226              	.LVL162:
 1227 0082 FFF7FEFF 		bl	lwm2m_free
 1228              	.LVL163:
ARM GAS  /var/folders/0d/93p3r6493yg7p0rvl_4r983m0000gn/T//ccW1MMiw.s 			page 33


 469:Src/communication/wakaama_client/objects/object_server.c ****         }
 1229              		.loc 1 469 0
 1230 0086 0024     		movs	r4, #0
 1231              	.LVL164:
 1232 0088 F7E7     		b	.L106
 1233              	.L112:
 1234 008a 00BF     		.align	2
 1235              	.L111:
 1236 008c 00000000 		.word	prv_server_read
 1237 0090 00000000 		.word	prv_server_discover
 1238 0094 00000000 		.word	prv_server_write
 1239 0098 00000000 		.word	prv_server_create
 1240 009c 00000000 		.word	prv_server_delete
 1241 00a0 00000000 		.word	prv_server_execute
 1242              	.LBE10:
 1243              		.cfi_endproc
 1244              	.LFE13:
 1246              		.section	.text.clean_server_object,"ax",%progbits
 1247              		.align	1
 1248              		.global	clean_server_object
 1249              		.syntax unified
 1250              		.thumb
 1251              		.thumb_func
 1252              		.fpu fpv4-sp-d16
 1254              	clean_server_object:
 1255              	.LFB14:
 490:Src/communication/wakaama_client/objects/object_server.c **** 
 491:Src/communication/wakaama_client/objects/object_server.c **** void clean_server_object(lwm2m_object_t * object)
 492:Src/communication/wakaama_client/objects/object_server.c **** {
 1256              		.loc 1 492 0
 1257              		.cfi_startproc
 1258              		@ args = 0, pretend = 0, frame = 0
 1259              		@ frame_needed = 0, uses_anonymous_args = 0
 1260              	.LVL165:
 1261 0000 10B5     		push	{r4, lr}
 1262              	.LCFI24:
 1263              		.cfi_def_cfa_offset 8
 1264              		.cfi_offset 4, -8
 1265              		.cfi_offset 14, -4
 1266 0002 0446     		mov	r4, r0
 493:Src/communication/wakaama_client/objects/object_server.c ****     while (object->instanceList != NULL)
 1267              		.loc 1 493 0
 1268 0004 03E0     		b	.L114
 1269              	.LVL166:
 1270              	.L115:
 1271              	.LBB11:
 494:Src/communication/wakaama_client/objects/object_server.c ****     {
 495:Src/communication/wakaama_client/objects/object_server.c ****         server_instance_t * serverInstance = (server_instance_t *)object->instanceList;
 496:Src/communication/wakaama_client/objects/object_server.c ****         object->instanceList = object->instanceList->next;
 1272              		.loc 1 496 0
 1273 0006 0368     		ldr	r3, [r0]
 1274 0008 A360     		str	r3, [r4, #8]
 497:Src/communication/wakaama_client/objects/object_server.c ****         lwm2m_free(serverInstance);
 1275              		.loc 1 497 0
 1276 000a FFF7FEFF 		bl	lwm2m_free
 1277              	.LVL167:
 1278              	.L114:
ARM GAS  /var/folders/0d/93p3r6493yg7p0rvl_4r983m0000gn/T//ccW1MMiw.s 			page 34


 1279              	.LBE11:
 493:Src/communication/wakaama_client/objects/object_server.c ****     while (object->instanceList != NULL)
 1280              		.loc 1 493 0
 1281 000e A068     		ldr	r0, [r4, #8]
 1282 0010 0028     		cmp	r0, #0
 1283 0012 F8D1     		bne	.L115
 498:Src/communication/wakaama_client/objects/object_server.c ****     }
 499:Src/communication/wakaama_client/objects/object_server.c ****     lwm2m_free(object);
 1284              		.loc 1 499 0
 1285 0014 2046     		mov	r0, r4
 1286 0016 FFF7FEFF 		bl	lwm2m_free
 1287              	.LVL168:
 500:Src/communication/wakaama_client/objects/object_server.c **** }
 1288              		.loc 1 500 0
 1289 001a 10BD     		pop	{r4, pc}
 1290              		.cfi_endproc
 1291              	.LFE14:
 1293              		.section	.rodata
 1294              		.align	2
 1295              		.set	.LANCHOR0,. + 0
 1296              	.LC0:
 1297 0000 0000     		.short	0
 1298 0002 0100     		.short	1
 1299 0004 0200     		.short	2
 1300 0006 0300     		.short	3
 1301 0008 0400     		.short	4
 1302 000a 0500     		.short	5
 1303 000c 0600     		.short	6
 1304 000e 0700     		.short	7
 1305 0010 0800     		.short	8
 1306 0012 0000     		.space	2
 1307              	.LC1:
 1308 0014 0000     		.short	0
 1309 0016 0100     		.short	1
 1310 0018 0200     		.short	2
 1311 001a 0300     		.short	3
 1312 001c 0500     		.short	5
 1313 001e 0600     		.short	6
 1314 0020 0700     		.short	7
 1315              		.section	.rodata.prv_server_write.str1.4,"aMS",%progbits,1
 1316              		.align	2
 1317              	.LC2:
 1318 0000 5500     		.ascii	"U\000"
 1319 0002 0000     		.space	2
 1320              	.LC3:
 1321 0004 555100   		.ascii	"UQ\000"
 1322 0007 00       		.space	1
 1323              	.LC4:
 1324 0008 5300     		.ascii	"S\000"
 1325 000a 0000     		.space	2
 1326              	.LC5:
 1327 000c 535100   		.ascii	"SQ\000"
 1328 000f 00       		.space	1
 1329              	.LC6:
 1330 0010 555300   		.ascii	"US\000"
 1331 0013 00       		.space	1
 1332              	.LC7:
ARM GAS  /var/folders/0d/93p3r6493yg7p0rvl_4r983m0000gn/T//ccW1MMiw.s 			page 35


 1333 0014 55515300 		.ascii	"UQS\000"
 1334              		.text
 1335              	.Letext0:
 1336              		.file 2 "/usr/local/gcc_arm/gcc-arm-none-eabi-7-2017-q4-major/arm-none-eabi/include/machine/_defau
 1337              		.file 3 "/usr/local/gcc_arm/gcc-arm-none-eabi-7-2017-q4-major/arm-none-eabi/include/sys/_stdint.h"
 1338              		.file 4 "/usr/local/gcc_arm/gcc-arm-none-eabi-7-2017-q4-major/lib/gcc/arm-none-eabi/7.2.1/include/
 1339              		.file 5 "/usr/local/gcc_arm/gcc-arm-none-eabi-7-2017-q4-major/arm-none-eabi/include/sys/lock.h"
 1340              		.file 6 "/usr/local/gcc_arm/gcc-arm-none-eabi-7-2017-q4-major/arm-none-eabi/include/sys/_types.h"
 1341              		.file 7 "/usr/local/gcc_arm/gcc-arm-none-eabi-7-2017-q4-major/arm-none-eabi/include/sys/reent.h"
 1342              		.file 8 "/usr/local/gcc_arm/gcc-arm-none-eabi-7-2017-q4-major/arm-none-eabi/include/time.h"
 1343              		.file 9 "Middlewares/Third_Party/wakaama/liblwm2m.h"
 1344              		.file 10 "/usr/local/gcc_arm/gcc-arm-none-eabi-7-2017-q4-major/arm-none-eabi/include/stdlib.h"
 1345              		.file 11 "/usr/local/gcc_arm/gcc-arm-none-eabi-7-2017-q4-major/arm-none-eabi/include/string.h"
 1346              		.file 12 "<built-in>"
ARM GAS  /var/folders/0d/93p3r6493yg7p0rvl_4r983m0000gn/T//ccW1MMiw.s 			page 36

