ARM GAS  /var/folders/0d/93p3r6493yg7p0rvl_4r983m0000gn/T//cc4yon9B.s 			page 1


   1              		.cpu cortex-m4
   2              		.eabi_attribute 27, 1
   3              		.eabi_attribute 28, 1
   4              		.eabi_attribute 20, 1
   5              		.eabi_attribute 21, 1
   6              		.eabi_attribute 23, 3
   7              		.eabi_attribute 24, 1
   8              		.eabi_attribute 25, 1
   9              		.eabi_attribute 26, 1
  10              		.eabi_attribute 30, 1
  11              		.eabi_attribute 34, 1
  12              		.eabi_attribute 18, 4
  13              		.file	"stm32f4xx_hal_hcd.c"
  14              		.text
  15              	.Ltext0:
  16              		.cfi_sections	.debug_frame
  17              		.section	.text.HCD_RXQLVL_IRQHandler,"ax",%progbits
  18              		.align	1
  19              		.syntax unified
  20              		.thumb
  21              		.thumb_func
  22              		.fpu fpv4-sp-d16
  24              	HCD_RXQLVL_IRQHandler:
  25              	.LFB149:
  26              		.file 1 "Drivers/STM32F4xx_HAL_Driver/Src/stm32f4xx_hal_hcd.c"
   1:Drivers/STM32F4xx_HAL_Driver/Src/stm32f4xx_hal_hcd.c **** /**
   2:Drivers/STM32F4xx_HAL_Driver/Src/stm32f4xx_hal_hcd.c ****   ******************************************************************************
   3:Drivers/STM32F4xx_HAL_Driver/Src/stm32f4xx_hal_hcd.c ****   * @file    stm32f4xx_hal_hcd.c
   4:Drivers/STM32F4xx_HAL_Driver/Src/stm32f4xx_hal_hcd.c ****   * @author  MCD Application Team
   5:Drivers/STM32F4xx_HAL_Driver/Src/stm32f4xx_hal_hcd.c ****   * @brief   HCD HAL module driver.
   6:Drivers/STM32F4xx_HAL_Driver/Src/stm32f4xx_hal_hcd.c ****   *          This file provides firmware functions to manage the following 
   7:Drivers/STM32F4xx_HAL_Driver/Src/stm32f4xx_hal_hcd.c ****   *          functionalities of the USB Peripheral Controller:
   8:Drivers/STM32F4xx_HAL_Driver/Src/stm32f4xx_hal_hcd.c ****   *           + Initialization and de-initialization functions
   9:Drivers/STM32F4xx_HAL_Driver/Src/stm32f4xx_hal_hcd.c ****   *           + IO operation functions
  10:Drivers/STM32F4xx_HAL_Driver/Src/stm32f4xx_hal_hcd.c ****   *           + Peripheral Control functions 
  11:Drivers/STM32F4xx_HAL_Driver/Src/stm32f4xx_hal_hcd.c ****   *           + Peripheral State functions
  12:Drivers/STM32F4xx_HAL_Driver/Src/stm32f4xx_hal_hcd.c ****   *         
  13:Drivers/STM32F4xx_HAL_Driver/Src/stm32f4xx_hal_hcd.c ****   @verbatim
  14:Drivers/STM32F4xx_HAL_Driver/Src/stm32f4xx_hal_hcd.c ****   ==============================================================================
  15:Drivers/STM32F4xx_HAL_Driver/Src/stm32f4xx_hal_hcd.c ****                     ##### How to use this driver #####
  16:Drivers/STM32F4xx_HAL_Driver/Src/stm32f4xx_hal_hcd.c ****   ==============================================================================
  17:Drivers/STM32F4xx_HAL_Driver/Src/stm32f4xx_hal_hcd.c ****   [..]
  18:Drivers/STM32F4xx_HAL_Driver/Src/stm32f4xx_hal_hcd.c ****     (#)Declare a HCD_HandleTypeDef handle structure, for example:
  19:Drivers/STM32F4xx_HAL_Driver/Src/stm32f4xx_hal_hcd.c ****        HCD_HandleTypeDef  hhcd;
  20:Drivers/STM32F4xx_HAL_Driver/Src/stm32f4xx_hal_hcd.c ****         
  21:Drivers/STM32F4xx_HAL_Driver/Src/stm32f4xx_hal_hcd.c ****     (#)Fill parameters of Init structure in HCD handle
  22:Drivers/STM32F4xx_HAL_Driver/Src/stm32f4xx_hal_hcd.c ****   
  23:Drivers/STM32F4xx_HAL_Driver/Src/stm32f4xx_hal_hcd.c ****     (#)Call HAL_HCD_Init() API to initialize the HCD peripheral (Core, Host core, ...) 
  24:Drivers/STM32F4xx_HAL_Driver/Src/stm32f4xx_hal_hcd.c **** 
  25:Drivers/STM32F4xx_HAL_Driver/Src/stm32f4xx_hal_hcd.c ****     (#)Initialize the HCD low level resources through the HAL_HCD_MspInit() API:
  26:Drivers/STM32F4xx_HAL_Driver/Src/stm32f4xx_hal_hcd.c ****         (##) Enable the HCD/USB Low Level interface clock using the following macros
  27:Drivers/STM32F4xx_HAL_Driver/Src/stm32f4xx_hal_hcd.c ****              (+++) __HAL_RCC_USB_OTG_FS_CLK_ENABLE();
  28:Drivers/STM32F4xx_HAL_Driver/Src/stm32f4xx_hal_hcd.c ****              (+++) __HAL_RCC_USB_OTG_HS_CLK_ENABLE(); (For High Speed Mode)
  29:Drivers/STM32F4xx_HAL_Driver/Src/stm32f4xx_hal_hcd.c ****              (+++) __HAL_RCC_USB_OTG_HS_ULPI_CLK_ENABLE(); (For High Speed Mode)
  30:Drivers/STM32F4xx_HAL_Driver/Src/stm32f4xx_hal_hcd.c ****            
  31:Drivers/STM32F4xx_HAL_Driver/Src/stm32f4xx_hal_hcd.c ****         (##) Initialize the related GPIO clocks
  32:Drivers/STM32F4xx_HAL_Driver/Src/stm32f4xx_hal_hcd.c ****         (##) Configure HCD pin-out
ARM GAS  /var/folders/0d/93p3r6493yg7p0rvl_4r983m0000gn/T//cc4yon9B.s 			page 2


  33:Drivers/STM32F4xx_HAL_Driver/Src/stm32f4xx_hal_hcd.c ****         (##) Configure HCD NVIC interrupt
  34:Drivers/STM32F4xx_HAL_Driver/Src/stm32f4xx_hal_hcd.c ****     
  35:Drivers/STM32F4xx_HAL_Driver/Src/stm32f4xx_hal_hcd.c ****     (#)Associate the Upper USB Host stack to the HAL HCD Driver:
  36:Drivers/STM32F4xx_HAL_Driver/Src/stm32f4xx_hal_hcd.c ****         (##) hhcd.pData = phost;
  37:Drivers/STM32F4xx_HAL_Driver/Src/stm32f4xx_hal_hcd.c **** 
  38:Drivers/STM32F4xx_HAL_Driver/Src/stm32f4xx_hal_hcd.c ****     (#)Enable HCD transmission and reception:
  39:Drivers/STM32F4xx_HAL_Driver/Src/stm32f4xx_hal_hcd.c ****         (##) HAL_HCD_Start();
  40:Drivers/STM32F4xx_HAL_Driver/Src/stm32f4xx_hal_hcd.c **** 
  41:Drivers/STM32F4xx_HAL_Driver/Src/stm32f4xx_hal_hcd.c ****   @endverbatim
  42:Drivers/STM32F4xx_HAL_Driver/Src/stm32f4xx_hal_hcd.c ****   ******************************************************************************
  43:Drivers/STM32F4xx_HAL_Driver/Src/stm32f4xx_hal_hcd.c ****   * @attention
  44:Drivers/STM32F4xx_HAL_Driver/Src/stm32f4xx_hal_hcd.c ****   *
  45:Drivers/STM32F4xx_HAL_Driver/Src/stm32f4xx_hal_hcd.c ****   * <h2><center>&copy; COPYRIGHT(c) 2017 STMicroelectronics</center></h2>
  46:Drivers/STM32F4xx_HAL_Driver/Src/stm32f4xx_hal_hcd.c ****   *
  47:Drivers/STM32F4xx_HAL_Driver/Src/stm32f4xx_hal_hcd.c ****   * Redistribution and use in source and binary forms, with or without modification,
  48:Drivers/STM32F4xx_HAL_Driver/Src/stm32f4xx_hal_hcd.c ****   * are permitted provided that the following conditions are met:
  49:Drivers/STM32F4xx_HAL_Driver/Src/stm32f4xx_hal_hcd.c ****   *   1. Redistributions of source code must retain the above copyright notice,
  50:Drivers/STM32F4xx_HAL_Driver/Src/stm32f4xx_hal_hcd.c ****   *      this list of conditions and the following disclaimer.
  51:Drivers/STM32F4xx_HAL_Driver/Src/stm32f4xx_hal_hcd.c ****   *   2. Redistributions in binary form must reproduce the above copyright notice,
  52:Drivers/STM32F4xx_HAL_Driver/Src/stm32f4xx_hal_hcd.c ****   *      this list of conditions and the following disclaimer in the documentation
  53:Drivers/STM32F4xx_HAL_Driver/Src/stm32f4xx_hal_hcd.c ****   *      and/or other materials provided with the distribution.
  54:Drivers/STM32F4xx_HAL_Driver/Src/stm32f4xx_hal_hcd.c ****   *   3. Neither the name of STMicroelectronics nor the names of its contributors
  55:Drivers/STM32F4xx_HAL_Driver/Src/stm32f4xx_hal_hcd.c ****   *      may be used to endorse or promote products derived from this software
  56:Drivers/STM32F4xx_HAL_Driver/Src/stm32f4xx_hal_hcd.c ****   *      without specific prior written permission.
  57:Drivers/STM32F4xx_HAL_Driver/Src/stm32f4xx_hal_hcd.c ****   *
  58:Drivers/STM32F4xx_HAL_Driver/Src/stm32f4xx_hal_hcd.c ****   * THIS SOFTWARE IS PROVIDED BY THE COPYRIGHT HOLDERS AND CONTRIBUTORS "AS IS"
  59:Drivers/STM32F4xx_HAL_Driver/Src/stm32f4xx_hal_hcd.c ****   * AND ANY EXPRESS OR IMPLIED WARRANTIES, INCLUDING, BUT NOT LIMITED TO, THE
  60:Drivers/STM32F4xx_HAL_Driver/Src/stm32f4xx_hal_hcd.c ****   * IMPLIED WARRANTIES OF MERCHANTABILITY AND FITNESS FOR A PARTICULAR PURPOSE ARE
  61:Drivers/STM32F4xx_HAL_Driver/Src/stm32f4xx_hal_hcd.c ****   * DISCLAIMED. IN NO EVENT SHALL THE COPYRIGHT HOLDER OR CONTRIBUTORS BE LIABLE
  62:Drivers/STM32F4xx_HAL_Driver/Src/stm32f4xx_hal_hcd.c ****   * FOR ANY DIRECT, INDIRECT, INCIDENTAL, SPECIAL, EXEMPLARY, OR CONSEQUENTIAL
  63:Drivers/STM32F4xx_HAL_Driver/Src/stm32f4xx_hal_hcd.c ****   * DAMAGES (INCLUDING, BUT NOT LIMITED TO, PROCUREMENT OF SUBSTITUTE GOODS OR
  64:Drivers/STM32F4xx_HAL_Driver/Src/stm32f4xx_hal_hcd.c ****   * SERVICES; LOSS OF USE, DATA, OR PROFITS; OR BUSINESS INTERRUPTION) HOWEVER
  65:Drivers/STM32F4xx_HAL_Driver/Src/stm32f4xx_hal_hcd.c ****   * CAUSED AND ON ANY THEORY OF LIABILITY, WHETHER IN CONTRACT, STRICT LIABILITY,
  66:Drivers/STM32F4xx_HAL_Driver/Src/stm32f4xx_hal_hcd.c ****   * OR TORT (INCLUDING NEGLIGENCE OR OTHERWISE) ARISING IN ANY WAY OUT OF THE USE
  67:Drivers/STM32F4xx_HAL_Driver/Src/stm32f4xx_hal_hcd.c ****   * OF THIS SOFTWARE, EVEN IF ADVISED OF THE POSSIBILITY OF SUCH DAMAGE.
  68:Drivers/STM32F4xx_HAL_Driver/Src/stm32f4xx_hal_hcd.c ****   *
  69:Drivers/STM32F4xx_HAL_Driver/Src/stm32f4xx_hal_hcd.c ****   ******************************************************************************
  70:Drivers/STM32F4xx_HAL_Driver/Src/stm32f4xx_hal_hcd.c ****   */ 
  71:Drivers/STM32F4xx_HAL_Driver/Src/stm32f4xx_hal_hcd.c **** 
  72:Drivers/STM32F4xx_HAL_Driver/Src/stm32f4xx_hal_hcd.c **** /* Includes ------------------------------------------------------------------*/
  73:Drivers/STM32F4xx_HAL_Driver/Src/stm32f4xx_hal_hcd.c **** #include "stm32f4xx_hal.h"
  74:Drivers/STM32F4xx_HAL_Driver/Src/stm32f4xx_hal_hcd.c **** 
  75:Drivers/STM32F4xx_HAL_Driver/Src/stm32f4xx_hal_hcd.c **** /** @addtogroup STM32F4xx_HAL_Driver
  76:Drivers/STM32F4xx_HAL_Driver/Src/stm32f4xx_hal_hcd.c ****   * @{
  77:Drivers/STM32F4xx_HAL_Driver/Src/stm32f4xx_hal_hcd.c ****   */
  78:Drivers/STM32F4xx_HAL_Driver/Src/stm32f4xx_hal_hcd.c **** 
  79:Drivers/STM32F4xx_HAL_Driver/Src/stm32f4xx_hal_hcd.c **** /** @defgroup HCD HCD 
  80:Drivers/STM32F4xx_HAL_Driver/Src/stm32f4xx_hal_hcd.c ****   * @brief HCD HAL module driver
  81:Drivers/STM32F4xx_HAL_Driver/Src/stm32f4xx_hal_hcd.c ****   * @{
  82:Drivers/STM32F4xx_HAL_Driver/Src/stm32f4xx_hal_hcd.c ****   */
  83:Drivers/STM32F4xx_HAL_Driver/Src/stm32f4xx_hal_hcd.c **** 
  84:Drivers/STM32F4xx_HAL_Driver/Src/stm32f4xx_hal_hcd.c **** #ifdef HAL_HCD_MODULE_ENABLED
  85:Drivers/STM32F4xx_HAL_Driver/Src/stm32f4xx_hal_hcd.c **** #if defined(STM32F405xx) || defined(STM32F415xx) || defined(STM32F407xx) || defined(STM32F417xx) ||
  86:Drivers/STM32F4xx_HAL_Driver/Src/stm32f4xx_hal_hcd.c ****     defined(STM32F427xx) || defined(STM32F437xx) || defined(STM32F429xx) || defined(STM32F439xx) ||
  87:Drivers/STM32F4xx_HAL_Driver/Src/stm32f4xx_hal_hcd.c ****     defined(STM32F401xC) || defined(STM32F401xE) || defined(STM32F411xE) || defined(STM32F446xx) ||
  88:Drivers/STM32F4xx_HAL_Driver/Src/stm32f4xx_hal_hcd.c ****     defined(STM32F469xx) || defined(STM32F479xx) || defined(STM32F412Zx) || defined(STM32F412Vx) ||
  89:Drivers/STM32F4xx_HAL_Driver/Src/stm32f4xx_hal_hcd.c ****     defined(STM32F412Rx) || defined(STM32F412Cx) || defined(STM32F413xx) || defined(STM32F423xx)
ARM GAS  /var/folders/0d/93p3r6493yg7p0rvl_4r983m0000gn/T//cc4yon9B.s 			page 3


  90:Drivers/STM32F4xx_HAL_Driver/Src/stm32f4xx_hal_hcd.c **** /* Private typedef -----------------------------------------------------------*/
  91:Drivers/STM32F4xx_HAL_Driver/Src/stm32f4xx_hal_hcd.c **** /* Private define ------------------------------------------------------------*/
  92:Drivers/STM32F4xx_HAL_Driver/Src/stm32f4xx_hal_hcd.c **** /* Private macro -------------------------------------------------------------*/
  93:Drivers/STM32F4xx_HAL_Driver/Src/stm32f4xx_hal_hcd.c **** /* Private variables ---------------------------------------------------------*/
  94:Drivers/STM32F4xx_HAL_Driver/Src/stm32f4xx_hal_hcd.c **** /* Private function prototypes -----------------------------------------------*/
  95:Drivers/STM32F4xx_HAL_Driver/Src/stm32f4xx_hal_hcd.c **** /** @defgroup HCD_Private_Functions HCD Private Functions
  96:Drivers/STM32F4xx_HAL_Driver/Src/stm32f4xx_hal_hcd.c ****   * @{
  97:Drivers/STM32F4xx_HAL_Driver/Src/stm32f4xx_hal_hcd.c ****   */
  98:Drivers/STM32F4xx_HAL_Driver/Src/stm32f4xx_hal_hcd.c **** static void HCD_HC_IN_IRQHandler(HCD_HandleTypeDef *hhcd, uint8_t chnum);
  99:Drivers/STM32F4xx_HAL_Driver/Src/stm32f4xx_hal_hcd.c **** static void HCD_HC_OUT_IRQHandler(HCD_HandleTypeDef *hhcd, uint8_t chnum); 
 100:Drivers/STM32F4xx_HAL_Driver/Src/stm32f4xx_hal_hcd.c **** static void HCD_RXQLVL_IRQHandler(HCD_HandleTypeDef *hhcd);
 101:Drivers/STM32F4xx_HAL_Driver/Src/stm32f4xx_hal_hcd.c **** static void HCD_Port_IRQHandler(HCD_HandleTypeDef *hhcd);
 102:Drivers/STM32F4xx_HAL_Driver/Src/stm32f4xx_hal_hcd.c **** /**
 103:Drivers/STM32F4xx_HAL_Driver/Src/stm32f4xx_hal_hcd.c ****   * @}
 104:Drivers/STM32F4xx_HAL_Driver/Src/stm32f4xx_hal_hcd.c ****   */
 105:Drivers/STM32F4xx_HAL_Driver/Src/stm32f4xx_hal_hcd.c **** 
 106:Drivers/STM32F4xx_HAL_Driver/Src/stm32f4xx_hal_hcd.c **** /* Exported functions --------------------------------------------------------*/
 107:Drivers/STM32F4xx_HAL_Driver/Src/stm32f4xx_hal_hcd.c **** /** @defgroup HCD_Exported_Functions HCD Exported Functions
 108:Drivers/STM32F4xx_HAL_Driver/Src/stm32f4xx_hal_hcd.c ****   * @{
 109:Drivers/STM32F4xx_HAL_Driver/Src/stm32f4xx_hal_hcd.c ****   */
 110:Drivers/STM32F4xx_HAL_Driver/Src/stm32f4xx_hal_hcd.c **** 
 111:Drivers/STM32F4xx_HAL_Driver/Src/stm32f4xx_hal_hcd.c **** /** @defgroup HCD_Exported_Functions_Group1 Initialization and de-initialization functions 
 112:Drivers/STM32F4xx_HAL_Driver/Src/stm32f4xx_hal_hcd.c ****  *  @brief    Initialization and Configuration functions 
 113:Drivers/STM32F4xx_HAL_Driver/Src/stm32f4xx_hal_hcd.c ****  *
 114:Drivers/STM32F4xx_HAL_Driver/Src/stm32f4xx_hal_hcd.c **** @verbatim     
 115:Drivers/STM32F4xx_HAL_Driver/Src/stm32f4xx_hal_hcd.c ****  ===============================================================================
 116:Drivers/STM32F4xx_HAL_Driver/Src/stm32f4xx_hal_hcd.c ****           ##### Initialization and de-initialization functions #####
 117:Drivers/STM32F4xx_HAL_Driver/Src/stm32f4xx_hal_hcd.c ****  ===============================================================================
 118:Drivers/STM32F4xx_HAL_Driver/Src/stm32f4xx_hal_hcd.c ****     [..]  This section provides functions allowing to:
 119:Drivers/STM32F4xx_HAL_Driver/Src/stm32f4xx_hal_hcd.c ****  
 120:Drivers/STM32F4xx_HAL_Driver/Src/stm32f4xx_hal_hcd.c **** @endverbatim
 121:Drivers/STM32F4xx_HAL_Driver/Src/stm32f4xx_hal_hcd.c ****   * @{
 122:Drivers/STM32F4xx_HAL_Driver/Src/stm32f4xx_hal_hcd.c ****   */
 123:Drivers/STM32F4xx_HAL_Driver/Src/stm32f4xx_hal_hcd.c **** 
 124:Drivers/STM32F4xx_HAL_Driver/Src/stm32f4xx_hal_hcd.c **** /**
 125:Drivers/STM32F4xx_HAL_Driver/Src/stm32f4xx_hal_hcd.c ****   * @brief  Initialize the host driver.
 126:Drivers/STM32F4xx_HAL_Driver/Src/stm32f4xx_hal_hcd.c ****   * @param  hhcd HCD handle
 127:Drivers/STM32F4xx_HAL_Driver/Src/stm32f4xx_hal_hcd.c ****   * @retval HAL status
 128:Drivers/STM32F4xx_HAL_Driver/Src/stm32f4xx_hal_hcd.c ****   */
 129:Drivers/STM32F4xx_HAL_Driver/Src/stm32f4xx_hal_hcd.c **** HAL_StatusTypeDef HAL_HCD_Init(HCD_HandleTypeDef *hhcd)
 130:Drivers/STM32F4xx_HAL_Driver/Src/stm32f4xx_hal_hcd.c **** { 
 131:Drivers/STM32F4xx_HAL_Driver/Src/stm32f4xx_hal_hcd.c ****   /* Check the HCD handle allocation */
 132:Drivers/STM32F4xx_HAL_Driver/Src/stm32f4xx_hal_hcd.c ****   if(hhcd == NULL)
 133:Drivers/STM32F4xx_HAL_Driver/Src/stm32f4xx_hal_hcd.c ****   {
 134:Drivers/STM32F4xx_HAL_Driver/Src/stm32f4xx_hal_hcd.c ****     return HAL_ERROR;
 135:Drivers/STM32F4xx_HAL_Driver/Src/stm32f4xx_hal_hcd.c ****   }
 136:Drivers/STM32F4xx_HAL_Driver/Src/stm32f4xx_hal_hcd.c ****   
 137:Drivers/STM32F4xx_HAL_Driver/Src/stm32f4xx_hal_hcd.c ****   /* Check the parameters */
 138:Drivers/STM32F4xx_HAL_Driver/Src/stm32f4xx_hal_hcd.c ****   assert_param(IS_HCD_ALL_INSTANCE(hhcd->Instance));
 139:Drivers/STM32F4xx_HAL_Driver/Src/stm32f4xx_hal_hcd.c ****   
 140:Drivers/STM32F4xx_HAL_Driver/Src/stm32f4xx_hal_hcd.c ****   hhcd->State = HAL_HCD_STATE_BUSY;
 141:Drivers/STM32F4xx_HAL_Driver/Src/stm32f4xx_hal_hcd.c ****   
 142:Drivers/STM32F4xx_HAL_Driver/Src/stm32f4xx_hal_hcd.c ****   /* Init the low level hardware : GPIO, CLOCK, NVIC... */
 143:Drivers/STM32F4xx_HAL_Driver/Src/stm32f4xx_hal_hcd.c ****   HAL_HCD_MspInit(hhcd);
 144:Drivers/STM32F4xx_HAL_Driver/Src/stm32f4xx_hal_hcd.c ****   
 145:Drivers/STM32F4xx_HAL_Driver/Src/stm32f4xx_hal_hcd.c ****   /* Disable the Interrupts */
 146:Drivers/STM32F4xx_HAL_Driver/Src/stm32f4xx_hal_hcd.c ****   __HAL_HCD_DISABLE(hhcd);
ARM GAS  /var/folders/0d/93p3r6493yg7p0rvl_4r983m0000gn/T//cc4yon9B.s 			page 4


 147:Drivers/STM32F4xx_HAL_Driver/Src/stm32f4xx_hal_hcd.c ****   
 148:Drivers/STM32F4xx_HAL_Driver/Src/stm32f4xx_hal_hcd.c ****   /* Init the Core (common init.) */
 149:Drivers/STM32F4xx_HAL_Driver/Src/stm32f4xx_hal_hcd.c ****   USB_CoreInit(hhcd->Instance, hhcd->Init);
 150:Drivers/STM32F4xx_HAL_Driver/Src/stm32f4xx_hal_hcd.c ****   
 151:Drivers/STM32F4xx_HAL_Driver/Src/stm32f4xx_hal_hcd.c ****   /* Force Host Mode*/
 152:Drivers/STM32F4xx_HAL_Driver/Src/stm32f4xx_hal_hcd.c ****   USB_SetCurrentMode(hhcd->Instance , USB_OTG_HOST_MODE);
 153:Drivers/STM32F4xx_HAL_Driver/Src/stm32f4xx_hal_hcd.c ****   
 154:Drivers/STM32F4xx_HAL_Driver/Src/stm32f4xx_hal_hcd.c ****   /* Init Host */
 155:Drivers/STM32F4xx_HAL_Driver/Src/stm32f4xx_hal_hcd.c ****   USB_HostInit(hhcd->Instance, hhcd->Init);
 156:Drivers/STM32F4xx_HAL_Driver/Src/stm32f4xx_hal_hcd.c ****   
 157:Drivers/STM32F4xx_HAL_Driver/Src/stm32f4xx_hal_hcd.c ****   hhcd->State= HAL_HCD_STATE_READY;
 158:Drivers/STM32F4xx_HAL_Driver/Src/stm32f4xx_hal_hcd.c ****   
 159:Drivers/STM32F4xx_HAL_Driver/Src/stm32f4xx_hal_hcd.c ****   return HAL_OK;
 160:Drivers/STM32F4xx_HAL_Driver/Src/stm32f4xx_hal_hcd.c **** }
 161:Drivers/STM32F4xx_HAL_Driver/Src/stm32f4xx_hal_hcd.c **** 
 162:Drivers/STM32F4xx_HAL_Driver/Src/stm32f4xx_hal_hcd.c **** /**
 163:Drivers/STM32F4xx_HAL_Driver/Src/stm32f4xx_hal_hcd.c ****   * @brief  Initialize a host channel.
 164:Drivers/STM32F4xx_HAL_Driver/Src/stm32f4xx_hal_hcd.c ****   * @param  hhcd HCD handle
 165:Drivers/STM32F4xx_HAL_Driver/Src/stm32f4xx_hal_hcd.c ****   * @param  ch_num Channel number.
 166:Drivers/STM32F4xx_HAL_Driver/Src/stm32f4xx_hal_hcd.c ****   *         This parameter can be a value from 1 to 15
 167:Drivers/STM32F4xx_HAL_Driver/Src/stm32f4xx_hal_hcd.c ****   * @param  epnum Endpoint number.
 168:Drivers/STM32F4xx_HAL_Driver/Src/stm32f4xx_hal_hcd.c ****   *          This parameter can be a value from 1 to 15
 169:Drivers/STM32F4xx_HAL_Driver/Src/stm32f4xx_hal_hcd.c ****   * @param  dev_address  Current device address
 170:Drivers/STM32F4xx_HAL_Driver/Src/stm32f4xx_hal_hcd.c ****   *          This parameter can be a value from 0 to 255
 171:Drivers/STM32F4xx_HAL_Driver/Src/stm32f4xx_hal_hcd.c ****   * @param  speed Current device speed.
 172:Drivers/STM32F4xx_HAL_Driver/Src/stm32f4xx_hal_hcd.c ****   *          This parameter can be one of these values:
 173:Drivers/STM32F4xx_HAL_Driver/Src/stm32f4xx_hal_hcd.c ****   *            HCD_SPEED_HIGH: High speed mode,
 174:Drivers/STM32F4xx_HAL_Driver/Src/stm32f4xx_hal_hcd.c ****   *            HCD_SPEED_FULL: Full speed mode,
 175:Drivers/STM32F4xx_HAL_Driver/Src/stm32f4xx_hal_hcd.c ****   *            HCD_SPEED_LOW: Low speed mode
 176:Drivers/STM32F4xx_HAL_Driver/Src/stm32f4xx_hal_hcd.c ****   * @param  ep_type Endpoint Type.
 177:Drivers/STM32F4xx_HAL_Driver/Src/stm32f4xx_hal_hcd.c ****   *          This parameter can be one of these values:
 178:Drivers/STM32F4xx_HAL_Driver/Src/stm32f4xx_hal_hcd.c ****   *            EP_TYPE_CTRL: Control type,
 179:Drivers/STM32F4xx_HAL_Driver/Src/stm32f4xx_hal_hcd.c ****   *            EP_TYPE_ISOC: Isochronous type,
 180:Drivers/STM32F4xx_HAL_Driver/Src/stm32f4xx_hal_hcd.c ****   *            EP_TYPE_BULK: Bulk type,
 181:Drivers/STM32F4xx_HAL_Driver/Src/stm32f4xx_hal_hcd.c ****   *            EP_TYPE_INTR: Interrupt type
 182:Drivers/STM32F4xx_HAL_Driver/Src/stm32f4xx_hal_hcd.c ****   * @param  mps Max Packet Size.
 183:Drivers/STM32F4xx_HAL_Driver/Src/stm32f4xx_hal_hcd.c ****   *          This parameter can be a value from 0 to32K
 184:Drivers/STM32F4xx_HAL_Driver/Src/stm32f4xx_hal_hcd.c ****   * @retval HAL status
 185:Drivers/STM32F4xx_HAL_Driver/Src/stm32f4xx_hal_hcd.c ****   */
 186:Drivers/STM32F4xx_HAL_Driver/Src/stm32f4xx_hal_hcd.c **** HAL_StatusTypeDef HAL_HCD_HC_Init(HCD_HandleTypeDef *hhcd,  
 187:Drivers/STM32F4xx_HAL_Driver/Src/stm32f4xx_hal_hcd.c ****                                   uint8_t ch_num,
 188:Drivers/STM32F4xx_HAL_Driver/Src/stm32f4xx_hal_hcd.c ****                                   uint8_t epnum,
 189:Drivers/STM32F4xx_HAL_Driver/Src/stm32f4xx_hal_hcd.c ****                                   uint8_t dev_address,
 190:Drivers/STM32F4xx_HAL_Driver/Src/stm32f4xx_hal_hcd.c ****                                   uint8_t speed,
 191:Drivers/STM32F4xx_HAL_Driver/Src/stm32f4xx_hal_hcd.c ****                                   uint8_t ep_type,
 192:Drivers/STM32F4xx_HAL_Driver/Src/stm32f4xx_hal_hcd.c ****                                   uint16_t mps)
 193:Drivers/STM32F4xx_HAL_Driver/Src/stm32f4xx_hal_hcd.c **** {
 194:Drivers/STM32F4xx_HAL_Driver/Src/stm32f4xx_hal_hcd.c ****   HAL_StatusTypeDef status = HAL_OK;
 195:Drivers/STM32F4xx_HAL_Driver/Src/stm32f4xx_hal_hcd.c ****   
 196:Drivers/STM32F4xx_HAL_Driver/Src/stm32f4xx_hal_hcd.c ****   __HAL_LOCK(hhcd); 
 197:Drivers/STM32F4xx_HAL_Driver/Src/stm32f4xx_hal_hcd.c ****   
 198:Drivers/STM32F4xx_HAL_Driver/Src/stm32f4xx_hal_hcd.c ****   hhcd->hc[ch_num].dev_addr = dev_address;
 199:Drivers/STM32F4xx_HAL_Driver/Src/stm32f4xx_hal_hcd.c ****   hhcd->hc[ch_num].max_packet = mps;
 200:Drivers/STM32F4xx_HAL_Driver/Src/stm32f4xx_hal_hcd.c ****   hhcd->hc[ch_num].ch_num = ch_num;
 201:Drivers/STM32F4xx_HAL_Driver/Src/stm32f4xx_hal_hcd.c ****   hhcd->hc[ch_num].ep_type = ep_type;
 202:Drivers/STM32F4xx_HAL_Driver/Src/stm32f4xx_hal_hcd.c ****   hhcd->hc[ch_num].ep_num = epnum & 0x7F;
 203:Drivers/STM32F4xx_HAL_Driver/Src/stm32f4xx_hal_hcd.c ****   hhcd->hc[ch_num].ep_is_in = ((epnum & 0x80) == 0x80);
ARM GAS  /var/folders/0d/93p3r6493yg7p0rvl_4r983m0000gn/T//cc4yon9B.s 			page 5


 204:Drivers/STM32F4xx_HAL_Driver/Src/stm32f4xx_hal_hcd.c ****   hhcd->hc[ch_num].speed = speed;
 205:Drivers/STM32F4xx_HAL_Driver/Src/stm32f4xx_hal_hcd.c ****   
 206:Drivers/STM32F4xx_HAL_Driver/Src/stm32f4xx_hal_hcd.c ****   status =  USB_HC_Init(hhcd->Instance, 
 207:Drivers/STM32F4xx_HAL_Driver/Src/stm32f4xx_hal_hcd.c ****                         ch_num,
 208:Drivers/STM32F4xx_HAL_Driver/Src/stm32f4xx_hal_hcd.c ****                         epnum,
 209:Drivers/STM32F4xx_HAL_Driver/Src/stm32f4xx_hal_hcd.c ****                         dev_address,
 210:Drivers/STM32F4xx_HAL_Driver/Src/stm32f4xx_hal_hcd.c ****                         speed,
 211:Drivers/STM32F4xx_HAL_Driver/Src/stm32f4xx_hal_hcd.c ****                         ep_type,
 212:Drivers/STM32F4xx_HAL_Driver/Src/stm32f4xx_hal_hcd.c ****                         mps);
 213:Drivers/STM32F4xx_HAL_Driver/Src/stm32f4xx_hal_hcd.c ****   __HAL_UNLOCK(hhcd); 
 214:Drivers/STM32F4xx_HAL_Driver/Src/stm32f4xx_hal_hcd.c ****   
 215:Drivers/STM32F4xx_HAL_Driver/Src/stm32f4xx_hal_hcd.c ****   return status;
 216:Drivers/STM32F4xx_HAL_Driver/Src/stm32f4xx_hal_hcd.c **** }
 217:Drivers/STM32F4xx_HAL_Driver/Src/stm32f4xx_hal_hcd.c **** 
 218:Drivers/STM32F4xx_HAL_Driver/Src/stm32f4xx_hal_hcd.c **** /**
 219:Drivers/STM32F4xx_HAL_Driver/Src/stm32f4xx_hal_hcd.c ****   * @brief  Halt a host channel.
 220:Drivers/STM32F4xx_HAL_Driver/Src/stm32f4xx_hal_hcd.c ****   * @param  hhcd HCD handle
 221:Drivers/STM32F4xx_HAL_Driver/Src/stm32f4xx_hal_hcd.c ****   * @param  ch_num Channel number.
 222:Drivers/STM32F4xx_HAL_Driver/Src/stm32f4xx_hal_hcd.c ****   *         This parameter can be a value from 1 to 15
 223:Drivers/STM32F4xx_HAL_Driver/Src/stm32f4xx_hal_hcd.c ****   * @retval HAL status
 224:Drivers/STM32F4xx_HAL_Driver/Src/stm32f4xx_hal_hcd.c ****   */
 225:Drivers/STM32F4xx_HAL_Driver/Src/stm32f4xx_hal_hcd.c **** HAL_StatusTypeDef HAL_HCD_HC_Halt(HCD_HandleTypeDef *hhcd, uint8_t ch_num)
 226:Drivers/STM32F4xx_HAL_Driver/Src/stm32f4xx_hal_hcd.c **** {
 227:Drivers/STM32F4xx_HAL_Driver/Src/stm32f4xx_hal_hcd.c ****   HAL_StatusTypeDef status = HAL_OK;
 228:Drivers/STM32F4xx_HAL_Driver/Src/stm32f4xx_hal_hcd.c ****   
 229:Drivers/STM32F4xx_HAL_Driver/Src/stm32f4xx_hal_hcd.c ****   __HAL_LOCK(hhcd);   
 230:Drivers/STM32F4xx_HAL_Driver/Src/stm32f4xx_hal_hcd.c ****   USB_HC_Halt(hhcd->Instance, ch_num);   
 231:Drivers/STM32F4xx_HAL_Driver/Src/stm32f4xx_hal_hcd.c ****   __HAL_UNLOCK(hhcd);
 232:Drivers/STM32F4xx_HAL_Driver/Src/stm32f4xx_hal_hcd.c ****   
 233:Drivers/STM32F4xx_HAL_Driver/Src/stm32f4xx_hal_hcd.c ****   return status;
 234:Drivers/STM32F4xx_HAL_Driver/Src/stm32f4xx_hal_hcd.c **** }
 235:Drivers/STM32F4xx_HAL_Driver/Src/stm32f4xx_hal_hcd.c **** 
 236:Drivers/STM32F4xx_HAL_Driver/Src/stm32f4xx_hal_hcd.c **** /**
 237:Drivers/STM32F4xx_HAL_Driver/Src/stm32f4xx_hal_hcd.c ****   * @brief  DeInitialize the host driver.
 238:Drivers/STM32F4xx_HAL_Driver/Src/stm32f4xx_hal_hcd.c ****   * @param  hhcd HCD handle
 239:Drivers/STM32F4xx_HAL_Driver/Src/stm32f4xx_hal_hcd.c ****   * @retval HAL status
 240:Drivers/STM32F4xx_HAL_Driver/Src/stm32f4xx_hal_hcd.c ****   */
 241:Drivers/STM32F4xx_HAL_Driver/Src/stm32f4xx_hal_hcd.c **** HAL_StatusTypeDef HAL_HCD_DeInit(HCD_HandleTypeDef *hhcd)
 242:Drivers/STM32F4xx_HAL_Driver/Src/stm32f4xx_hal_hcd.c **** {
 243:Drivers/STM32F4xx_HAL_Driver/Src/stm32f4xx_hal_hcd.c ****   /* Check the HCD handle allocation */
 244:Drivers/STM32F4xx_HAL_Driver/Src/stm32f4xx_hal_hcd.c ****   if(hhcd == NULL)
 245:Drivers/STM32F4xx_HAL_Driver/Src/stm32f4xx_hal_hcd.c ****   {
 246:Drivers/STM32F4xx_HAL_Driver/Src/stm32f4xx_hal_hcd.c ****     return HAL_ERROR;
 247:Drivers/STM32F4xx_HAL_Driver/Src/stm32f4xx_hal_hcd.c ****   }
 248:Drivers/STM32F4xx_HAL_Driver/Src/stm32f4xx_hal_hcd.c ****   
 249:Drivers/STM32F4xx_HAL_Driver/Src/stm32f4xx_hal_hcd.c ****   hhcd->State = HAL_HCD_STATE_BUSY;
 250:Drivers/STM32F4xx_HAL_Driver/Src/stm32f4xx_hal_hcd.c ****   
 251:Drivers/STM32F4xx_HAL_Driver/Src/stm32f4xx_hal_hcd.c ****   /* DeInit the low level hardware */
 252:Drivers/STM32F4xx_HAL_Driver/Src/stm32f4xx_hal_hcd.c ****   HAL_HCD_MspDeInit(hhcd);
 253:Drivers/STM32F4xx_HAL_Driver/Src/stm32f4xx_hal_hcd.c ****   
 254:Drivers/STM32F4xx_HAL_Driver/Src/stm32f4xx_hal_hcd.c ****   __HAL_HCD_DISABLE(hhcd);
 255:Drivers/STM32F4xx_HAL_Driver/Src/stm32f4xx_hal_hcd.c ****   
 256:Drivers/STM32F4xx_HAL_Driver/Src/stm32f4xx_hal_hcd.c ****   hhcd->State = HAL_HCD_STATE_RESET; 
 257:Drivers/STM32F4xx_HAL_Driver/Src/stm32f4xx_hal_hcd.c ****   
 258:Drivers/STM32F4xx_HAL_Driver/Src/stm32f4xx_hal_hcd.c ****   return HAL_OK;
 259:Drivers/STM32F4xx_HAL_Driver/Src/stm32f4xx_hal_hcd.c **** }
 260:Drivers/STM32F4xx_HAL_Driver/Src/stm32f4xx_hal_hcd.c **** 
ARM GAS  /var/folders/0d/93p3r6493yg7p0rvl_4r983m0000gn/T//cc4yon9B.s 			page 6


 261:Drivers/STM32F4xx_HAL_Driver/Src/stm32f4xx_hal_hcd.c **** /**
 262:Drivers/STM32F4xx_HAL_Driver/Src/stm32f4xx_hal_hcd.c ****   * @brief  Initialize the HCD MSP.
 263:Drivers/STM32F4xx_HAL_Driver/Src/stm32f4xx_hal_hcd.c ****   * @param  hhcd HCD handle
 264:Drivers/STM32F4xx_HAL_Driver/Src/stm32f4xx_hal_hcd.c ****   * @retval None
 265:Drivers/STM32F4xx_HAL_Driver/Src/stm32f4xx_hal_hcd.c ****   */
 266:Drivers/STM32F4xx_HAL_Driver/Src/stm32f4xx_hal_hcd.c **** __weak void  HAL_HCD_MspInit(HCD_HandleTypeDef *hhcd)
 267:Drivers/STM32F4xx_HAL_Driver/Src/stm32f4xx_hal_hcd.c **** {
 268:Drivers/STM32F4xx_HAL_Driver/Src/stm32f4xx_hal_hcd.c ****   /* Prevent unused argument(s) compilation warning */
 269:Drivers/STM32F4xx_HAL_Driver/Src/stm32f4xx_hal_hcd.c ****   UNUSED(hhcd);
 270:Drivers/STM32F4xx_HAL_Driver/Src/stm32f4xx_hal_hcd.c ****   /* NOTE : This function Should not be modified, when the callback is needed,
 271:Drivers/STM32F4xx_HAL_Driver/Src/stm32f4xx_hal_hcd.c ****             the HAL_PCD_MspInit could be implemented in the user file
 272:Drivers/STM32F4xx_HAL_Driver/Src/stm32f4xx_hal_hcd.c ****    */
 273:Drivers/STM32F4xx_HAL_Driver/Src/stm32f4xx_hal_hcd.c **** }
 274:Drivers/STM32F4xx_HAL_Driver/Src/stm32f4xx_hal_hcd.c **** 
 275:Drivers/STM32F4xx_HAL_Driver/Src/stm32f4xx_hal_hcd.c **** /**
 276:Drivers/STM32F4xx_HAL_Driver/Src/stm32f4xx_hal_hcd.c ****   * @brief  DeInitialize the HCD MSP.
 277:Drivers/STM32F4xx_HAL_Driver/Src/stm32f4xx_hal_hcd.c ****   * @param  hhcd HCD handle
 278:Drivers/STM32F4xx_HAL_Driver/Src/stm32f4xx_hal_hcd.c ****   * @retval None
 279:Drivers/STM32F4xx_HAL_Driver/Src/stm32f4xx_hal_hcd.c ****   */
 280:Drivers/STM32F4xx_HAL_Driver/Src/stm32f4xx_hal_hcd.c **** __weak void  HAL_HCD_MspDeInit(HCD_HandleTypeDef *hhcd)
 281:Drivers/STM32F4xx_HAL_Driver/Src/stm32f4xx_hal_hcd.c **** {
 282:Drivers/STM32F4xx_HAL_Driver/Src/stm32f4xx_hal_hcd.c ****   /* Prevent unused argument(s) compilation warning */
 283:Drivers/STM32F4xx_HAL_Driver/Src/stm32f4xx_hal_hcd.c ****   UNUSED(hhcd);
 284:Drivers/STM32F4xx_HAL_Driver/Src/stm32f4xx_hal_hcd.c ****   /* NOTE : This function Should not be modified, when the callback is needed,
 285:Drivers/STM32F4xx_HAL_Driver/Src/stm32f4xx_hal_hcd.c ****             the HAL_PCD_MspDeInit could be implemented in the user file
 286:Drivers/STM32F4xx_HAL_Driver/Src/stm32f4xx_hal_hcd.c ****    */
 287:Drivers/STM32F4xx_HAL_Driver/Src/stm32f4xx_hal_hcd.c **** }
 288:Drivers/STM32F4xx_HAL_Driver/Src/stm32f4xx_hal_hcd.c **** 
 289:Drivers/STM32F4xx_HAL_Driver/Src/stm32f4xx_hal_hcd.c **** /**
 290:Drivers/STM32F4xx_HAL_Driver/Src/stm32f4xx_hal_hcd.c ****   * @}
 291:Drivers/STM32F4xx_HAL_Driver/Src/stm32f4xx_hal_hcd.c ****   */
 292:Drivers/STM32F4xx_HAL_Driver/Src/stm32f4xx_hal_hcd.c **** 
 293:Drivers/STM32F4xx_HAL_Driver/Src/stm32f4xx_hal_hcd.c **** /** @defgroup HCD_Exported_Functions_Group2 Input and Output operation functions
 294:Drivers/STM32F4xx_HAL_Driver/Src/stm32f4xx_hal_hcd.c ****   *  @brief   HCD IO operation functions
 295:Drivers/STM32F4xx_HAL_Driver/Src/stm32f4xx_hal_hcd.c ****   *
 296:Drivers/STM32F4xx_HAL_Driver/Src/stm32f4xx_hal_hcd.c **** @verbatim
 297:Drivers/STM32F4xx_HAL_Driver/Src/stm32f4xx_hal_hcd.c ****  ===============================================================================
 298:Drivers/STM32F4xx_HAL_Driver/Src/stm32f4xx_hal_hcd.c ****                       ##### IO operation functions #####
 299:Drivers/STM32F4xx_HAL_Driver/Src/stm32f4xx_hal_hcd.c ****  ===============================================================================
 300:Drivers/STM32F4xx_HAL_Driver/Src/stm32f4xx_hal_hcd.c ****  [..] This subsection provides a set of functions allowing to manage the USB Host Data 
 301:Drivers/STM32F4xx_HAL_Driver/Src/stm32f4xx_hal_hcd.c ****     Transfer
 302:Drivers/STM32F4xx_HAL_Driver/Src/stm32f4xx_hal_hcd.c ****        
 303:Drivers/STM32F4xx_HAL_Driver/Src/stm32f4xx_hal_hcd.c **** @endverbatim
 304:Drivers/STM32F4xx_HAL_Driver/Src/stm32f4xx_hal_hcd.c ****   * @{
 305:Drivers/STM32F4xx_HAL_Driver/Src/stm32f4xx_hal_hcd.c ****   */
 306:Drivers/STM32F4xx_HAL_Driver/Src/stm32f4xx_hal_hcd.c ****   
 307:Drivers/STM32F4xx_HAL_Driver/Src/stm32f4xx_hal_hcd.c **** /**                                
 308:Drivers/STM32F4xx_HAL_Driver/Src/stm32f4xx_hal_hcd.c ****   * @brief  Submit a new URB for processing. 
 309:Drivers/STM32F4xx_HAL_Driver/Src/stm32f4xx_hal_hcd.c ****   * @param  hhcd HCD handle
 310:Drivers/STM32F4xx_HAL_Driver/Src/stm32f4xx_hal_hcd.c ****   * @param  ch_num Channel number.
 311:Drivers/STM32F4xx_HAL_Driver/Src/stm32f4xx_hal_hcd.c ****   *         This parameter can be a value from 1 to 15
 312:Drivers/STM32F4xx_HAL_Driver/Src/stm32f4xx_hal_hcd.c ****   * @param  direction Channel number.
 313:Drivers/STM32F4xx_HAL_Driver/Src/stm32f4xx_hal_hcd.c ****   *          This parameter can be one of these values:
 314:Drivers/STM32F4xx_HAL_Driver/Src/stm32f4xx_hal_hcd.c ****   *           0 : Output / 1 : Input
 315:Drivers/STM32F4xx_HAL_Driver/Src/stm32f4xx_hal_hcd.c ****   * @param  ep_type Endpoint Type.
 316:Drivers/STM32F4xx_HAL_Driver/Src/stm32f4xx_hal_hcd.c ****   *          This parameter can be one of these values:
 317:Drivers/STM32F4xx_HAL_Driver/Src/stm32f4xx_hal_hcd.c ****   *            EP_TYPE_CTRL: Control type/
ARM GAS  /var/folders/0d/93p3r6493yg7p0rvl_4r983m0000gn/T//cc4yon9B.s 			page 7


 318:Drivers/STM32F4xx_HAL_Driver/Src/stm32f4xx_hal_hcd.c ****   *            EP_TYPE_ISOC: Isochronous type/
 319:Drivers/STM32F4xx_HAL_Driver/Src/stm32f4xx_hal_hcd.c ****   *            EP_TYPE_BULK: Bulk type/
 320:Drivers/STM32F4xx_HAL_Driver/Src/stm32f4xx_hal_hcd.c ****   *            EP_TYPE_INTR: Interrupt type/
 321:Drivers/STM32F4xx_HAL_Driver/Src/stm32f4xx_hal_hcd.c ****   * @param  token Endpoint Type.
 322:Drivers/STM32F4xx_HAL_Driver/Src/stm32f4xx_hal_hcd.c ****   *          This parameter can be one of these values:
 323:Drivers/STM32F4xx_HAL_Driver/Src/stm32f4xx_hal_hcd.c ****   *            0: HC_PID_SETUP / 1: HC_PID_DATA1
 324:Drivers/STM32F4xx_HAL_Driver/Src/stm32f4xx_hal_hcd.c ****   * @param  pbuff pointer to URB data
 325:Drivers/STM32F4xx_HAL_Driver/Src/stm32f4xx_hal_hcd.c ****   * @param  length Length of URB data
 326:Drivers/STM32F4xx_HAL_Driver/Src/stm32f4xx_hal_hcd.c ****   * @param  do_ping activate do ping protocol (for high speed only).
 327:Drivers/STM32F4xx_HAL_Driver/Src/stm32f4xx_hal_hcd.c ****   *          This parameter can be one of these values:
 328:Drivers/STM32F4xx_HAL_Driver/Src/stm32f4xx_hal_hcd.c ****   *           0 : do ping inactive / 1 : do ping active 
 329:Drivers/STM32F4xx_HAL_Driver/Src/stm32f4xx_hal_hcd.c ****   * @retval HAL status
 330:Drivers/STM32F4xx_HAL_Driver/Src/stm32f4xx_hal_hcd.c ****   */
 331:Drivers/STM32F4xx_HAL_Driver/Src/stm32f4xx_hal_hcd.c **** HAL_StatusTypeDef HAL_HCD_HC_SubmitRequest(HCD_HandleTypeDef *hhcd,
 332:Drivers/STM32F4xx_HAL_Driver/Src/stm32f4xx_hal_hcd.c ****                                            uint8_t ch_num, 
 333:Drivers/STM32F4xx_HAL_Driver/Src/stm32f4xx_hal_hcd.c ****                                            uint8_t direction,
 334:Drivers/STM32F4xx_HAL_Driver/Src/stm32f4xx_hal_hcd.c ****                                            uint8_t ep_type,  
 335:Drivers/STM32F4xx_HAL_Driver/Src/stm32f4xx_hal_hcd.c ****                                            uint8_t token, 
 336:Drivers/STM32F4xx_HAL_Driver/Src/stm32f4xx_hal_hcd.c ****                                            uint8_t* pbuff, 
 337:Drivers/STM32F4xx_HAL_Driver/Src/stm32f4xx_hal_hcd.c ****                                            uint16_t length,
 338:Drivers/STM32F4xx_HAL_Driver/Src/stm32f4xx_hal_hcd.c ****                                            uint8_t do_ping) 
 339:Drivers/STM32F4xx_HAL_Driver/Src/stm32f4xx_hal_hcd.c **** {
 340:Drivers/STM32F4xx_HAL_Driver/Src/stm32f4xx_hal_hcd.c ****   hhcd->hc[ch_num].ep_is_in = direction;
 341:Drivers/STM32F4xx_HAL_Driver/Src/stm32f4xx_hal_hcd.c ****   hhcd->hc[ch_num].ep_type  = ep_type; 
 342:Drivers/STM32F4xx_HAL_Driver/Src/stm32f4xx_hal_hcd.c ****   
 343:Drivers/STM32F4xx_HAL_Driver/Src/stm32f4xx_hal_hcd.c ****   if(token == 0)
 344:Drivers/STM32F4xx_HAL_Driver/Src/stm32f4xx_hal_hcd.c ****   {
 345:Drivers/STM32F4xx_HAL_Driver/Src/stm32f4xx_hal_hcd.c ****     hhcd->hc[ch_num].data_pid = HC_PID_SETUP;
 346:Drivers/STM32F4xx_HAL_Driver/Src/stm32f4xx_hal_hcd.c ****   }
 347:Drivers/STM32F4xx_HAL_Driver/Src/stm32f4xx_hal_hcd.c ****   else
 348:Drivers/STM32F4xx_HAL_Driver/Src/stm32f4xx_hal_hcd.c ****   {
 349:Drivers/STM32F4xx_HAL_Driver/Src/stm32f4xx_hal_hcd.c ****     hhcd->hc[ch_num].data_pid = HC_PID_DATA1;
 350:Drivers/STM32F4xx_HAL_Driver/Src/stm32f4xx_hal_hcd.c ****   }
 351:Drivers/STM32F4xx_HAL_Driver/Src/stm32f4xx_hal_hcd.c ****   
 352:Drivers/STM32F4xx_HAL_Driver/Src/stm32f4xx_hal_hcd.c ****   /* Manage Data Toggle */
 353:Drivers/STM32F4xx_HAL_Driver/Src/stm32f4xx_hal_hcd.c ****   switch(ep_type)
 354:Drivers/STM32F4xx_HAL_Driver/Src/stm32f4xx_hal_hcd.c ****   {
 355:Drivers/STM32F4xx_HAL_Driver/Src/stm32f4xx_hal_hcd.c ****   case EP_TYPE_CTRL:
 356:Drivers/STM32F4xx_HAL_Driver/Src/stm32f4xx_hal_hcd.c ****     if((token == 1) && (direction == 0)) /*send data */
 357:Drivers/STM32F4xx_HAL_Driver/Src/stm32f4xx_hal_hcd.c ****     {
 358:Drivers/STM32F4xx_HAL_Driver/Src/stm32f4xx_hal_hcd.c ****       if (length == 0)
 359:Drivers/STM32F4xx_HAL_Driver/Src/stm32f4xx_hal_hcd.c ****       { /* For Status OUT stage, Length==0, Status Out PID = 1 */
 360:Drivers/STM32F4xx_HAL_Driver/Src/stm32f4xx_hal_hcd.c ****         hhcd->hc[ch_num].toggle_out = 1;
 361:Drivers/STM32F4xx_HAL_Driver/Src/stm32f4xx_hal_hcd.c ****       }
 362:Drivers/STM32F4xx_HAL_Driver/Src/stm32f4xx_hal_hcd.c ****       
 363:Drivers/STM32F4xx_HAL_Driver/Src/stm32f4xx_hal_hcd.c ****       /* Set the Data Toggle bit as per the Flag */
 364:Drivers/STM32F4xx_HAL_Driver/Src/stm32f4xx_hal_hcd.c ****       if (hhcd->hc[ch_num].toggle_out == 0)
 365:Drivers/STM32F4xx_HAL_Driver/Src/stm32f4xx_hal_hcd.c ****       { /* Put the PID 0 */
 366:Drivers/STM32F4xx_HAL_Driver/Src/stm32f4xx_hal_hcd.c ****         hhcd->hc[ch_num].data_pid = HC_PID_DATA0;    
 367:Drivers/STM32F4xx_HAL_Driver/Src/stm32f4xx_hal_hcd.c ****       }
 368:Drivers/STM32F4xx_HAL_Driver/Src/stm32f4xx_hal_hcd.c ****       else
 369:Drivers/STM32F4xx_HAL_Driver/Src/stm32f4xx_hal_hcd.c ****       { /* Put the PID 1 */
 370:Drivers/STM32F4xx_HAL_Driver/Src/stm32f4xx_hal_hcd.c ****         hhcd->hc[ch_num].data_pid = HC_PID_DATA1;
 371:Drivers/STM32F4xx_HAL_Driver/Src/stm32f4xx_hal_hcd.c ****       }
 372:Drivers/STM32F4xx_HAL_Driver/Src/stm32f4xx_hal_hcd.c ****       if(hhcd->hc[ch_num].urb_state  != URB_NOTREADY)
 373:Drivers/STM32F4xx_HAL_Driver/Src/stm32f4xx_hal_hcd.c ****       {
 374:Drivers/STM32F4xx_HAL_Driver/Src/stm32f4xx_hal_hcd.c ****         hhcd->hc[ch_num].do_ping = do_ping;
ARM GAS  /var/folders/0d/93p3r6493yg7p0rvl_4r983m0000gn/T//cc4yon9B.s 			page 8


 375:Drivers/STM32F4xx_HAL_Driver/Src/stm32f4xx_hal_hcd.c ****       }
 376:Drivers/STM32F4xx_HAL_Driver/Src/stm32f4xx_hal_hcd.c ****     }
 377:Drivers/STM32F4xx_HAL_Driver/Src/stm32f4xx_hal_hcd.c ****     break;
 378:Drivers/STM32F4xx_HAL_Driver/Src/stm32f4xx_hal_hcd.c ****   
 379:Drivers/STM32F4xx_HAL_Driver/Src/stm32f4xx_hal_hcd.c ****   case EP_TYPE_BULK:
 380:Drivers/STM32F4xx_HAL_Driver/Src/stm32f4xx_hal_hcd.c ****     if(direction == 0)
 381:Drivers/STM32F4xx_HAL_Driver/Src/stm32f4xx_hal_hcd.c ****     {
 382:Drivers/STM32F4xx_HAL_Driver/Src/stm32f4xx_hal_hcd.c ****       /* Set the Data Toggle bit as per the Flag */
 383:Drivers/STM32F4xx_HAL_Driver/Src/stm32f4xx_hal_hcd.c ****       if ( hhcd->hc[ch_num].toggle_out == 0)
 384:Drivers/STM32F4xx_HAL_Driver/Src/stm32f4xx_hal_hcd.c ****       { /* Put the PID 0 */
 385:Drivers/STM32F4xx_HAL_Driver/Src/stm32f4xx_hal_hcd.c ****         hhcd->hc[ch_num].data_pid = HC_PID_DATA0;    
 386:Drivers/STM32F4xx_HAL_Driver/Src/stm32f4xx_hal_hcd.c ****       }
 387:Drivers/STM32F4xx_HAL_Driver/Src/stm32f4xx_hal_hcd.c ****       else
 388:Drivers/STM32F4xx_HAL_Driver/Src/stm32f4xx_hal_hcd.c ****       { /* Put the PID 1 */
 389:Drivers/STM32F4xx_HAL_Driver/Src/stm32f4xx_hal_hcd.c ****         hhcd->hc[ch_num].data_pid = HC_PID_DATA1;
 390:Drivers/STM32F4xx_HAL_Driver/Src/stm32f4xx_hal_hcd.c ****       }
 391:Drivers/STM32F4xx_HAL_Driver/Src/stm32f4xx_hal_hcd.c ****       if(hhcd->hc[ch_num].urb_state  != URB_NOTREADY)
 392:Drivers/STM32F4xx_HAL_Driver/Src/stm32f4xx_hal_hcd.c ****       {
 393:Drivers/STM32F4xx_HAL_Driver/Src/stm32f4xx_hal_hcd.c ****         hhcd->hc[ch_num].do_ping = do_ping;
 394:Drivers/STM32F4xx_HAL_Driver/Src/stm32f4xx_hal_hcd.c ****       }
 395:Drivers/STM32F4xx_HAL_Driver/Src/stm32f4xx_hal_hcd.c ****     }
 396:Drivers/STM32F4xx_HAL_Driver/Src/stm32f4xx_hal_hcd.c ****     else
 397:Drivers/STM32F4xx_HAL_Driver/Src/stm32f4xx_hal_hcd.c ****     {
 398:Drivers/STM32F4xx_HAL_Driver/Src/stm32f4xx_hal_hcd.c ****       if( hhcd->hc[ch_num].toggle_in == 0)
 399:Drivers/STM32F4xx_HAL_Driver/Src/stm32f4xx_hal_hcd.c ****       {
 400:Drivers/STM32F4xx_HAL_Driver/Src/stm32f4xx_hal_hcd.c ****         hhcd->hc[ch_num].data_pid = HC_PID_DATA0;
 401:Drivers/STM32F4xx_HAL_Driver/Src/stm32f4xx_hal_hcd.c ****       }
 402:Drivers/STM32F4xx_HAL_Driver/Src/stm32f4xx_hal_hcd.c ****       else
 403:Drivers/STM32F4xx_HAL_Driver/Src/stm32f4xx_hal_hcd.c ****       {
 404:Drivers/STM32F4xx_HAL_Driver/Src/stm32f4xx_hal_hcd.c ****         hhcd->hc[ch_num].data_pid = HC_PID_DATA1;
 405:Drivers/STM32F4xx_HAL_Driver/Src/stm32f4xx_hal_hcd.c ****       }
 406:Drivers/STM32F4xx_HAL_Driver/Src/stm32f4xx_hal_hcd.c ****     }
 407:Drivers/STM32F4xx_HAL_Driver/Src/stm32f4xx_hal_hcd.c ****     
 408:Drivers/STM32F4xx_HAL_Driver/Src/stm32f4xx_hal_hcd.c ****     break;
 409:Drivers/STM32F4xx_HAL_Driver/Src/stm32f4xx_hal_hcd.c ****   case EP_TYPE_INTR:
 410:Drivers/STM32F4xx_HAL_Driver/Src/stm32f4xx_hal_hcd.c ****     if(direction == 0)
 411:Drivers/STM32F4xx_HAL_Driver/Src/stm32f4xx_hal_hcd.c ****     {
 412:Drivers/STM32F4xx_HAL_Driver/Src/stm32f4xx_hal_hcd.c ****       /* Set the Data Toggle bit as per the Flag */
 413:Drivers/STM32F4xx_HAL_Driver/Src/stm32f4xx_hal_hcd.c ****       if ( hhcd->hc[ch_num].toggle_out == 0)
 414:Drivers/STM32F4xx_HAL_Driver/Src/stm32f4xx_hal_hcd.c ****       { /* Put the PID 0 */
 415:Drivers/STM32F4xx_HAL_Driver/Src/stm32f4xx_hal_hcd.c ****         hhcd->hc[ch_num].data_pid = HC_PID_DATA0;    
 416:Drivers/STM32F4xx_HAL_Driver/Src/stm32f4xx_hal_hcd.c ****       }
 417:Drivers/STM32F4xx_HAL_Driver/Src/stm32f4xx_hal_hcd.c ****       else
 418:Drivers/STM32F4xx_HAL_Driver/Src/stm32f4xx_hal_hcd.c ****       { /* Put the PID 1 */
 419:Drivers/STM32F4xx_HAL_Driver/Src/stm32f4xx_hal_hcd.c ****         hhcd->hc[ch_num].data_pid = HC_PID_DATA1;
 420:Drivers/STM32F4xx_HAL_Driver/Src/stm32f4xx_hal_hcd.c ****       }
 421:Drivers/STM32F4xx_HAL_Driver/Src/stm32f4xx_hal_hcd.c ****     }
 422:Drivers/STM32F4xx_HAL_Driver/Src/stm32f4xx_hal_hcd.c ****     else
 423:Drivers/STM32F4xx_HAL_Driver/Src/stm32f4xx_hal_hcd.c ****     {
 424:Drivers/STM32F4xx_HAL_Driver/Src/stm32f4xx_hal_hcd.c ****       if( hhcd->hc[ch_num].toggle_in == 0)
 425:Drivers/STM32F4xx_HAL_Driver/Src/stm32f4xx_hal_hcd.c ****       {
 426:Drivers/STM32F4xx_HAL_Driver/Src/stm32f4xx_hal_hcd.c ****         hhcd->hc[ch_num].data_pid = HC_PID_DATA0;
 427:Drivers/STM32F4xx_HAL_Driver/Src/stm32f4xx_hal_hcd.c ****       }
 428:Drivers/STM32F4xx_HAL_Driver/Src/stm32f4xx_hal_hcd.c ****       else
 429:Drivers/STM32F4xx_HAL_Driver/Src/stm32f4xx_hal_hcd.c ****       {
 430:Drivers/STM32F4xx_HAL_Driver/Src/stm32f4xx_hal_hcd.c ****         hhcd->hc[ch_num].data_pid = HC_PID_DATA1;
 431:Drivers/STM32F4xx_HAL_Driver/Src/stm32f4xx_hal_hcd.c ****       }
ARM GAS  /var/folders/0d/93p3r6493yg7p0rvl_4r983m0000gn/T//cc4yon9B.s 			page 9


 432:Drivers/STM32F4xx_HAL_Driver/Src/stm32f4xx_hal_hcd.c ****     }
 433:Drivers/STM32F4xx_HAL_Driver/Src/stm32f4xx_hal_hcd.c ****     break;
 434:Drivers/STM32F4xx_HAL_Driver/Src/stm32f4xx_hal_hcd.c ****     
 435:Drivers/STM32F4xx_HAL_Driver/Src/stm32f4xx_hal_hcd.c ****   case EP_TYPE_ISOC: 
 436:Drivers/STM32F4xx_HAL_Driver/Src/stm32f4xx_hal_hcd.c ****     hhcd->hc[ch_num].data_pid = HC_PID_DATA0;
 437:Drivers/STM32F4xx_HAL_Driver/Src/stm32f4xx_hal_hcd.c ****     break;  
 438:Drivers/STM32F4xx_HAL_Driver/Src/stm32f4xx_hal_hcd.c ****   }
 439:Drivers/STM32F4xx_HAL_Driver/Src/stm32f4xx_hal_hcd.c ****   
 440:Drivers/STM32F4xx_HAL_Driver/Src/stm32f4xx_hal_hcd.c ****   hhcd->hc[ch_num].xfer_buff = pbuff;
 441:Drivers/STM32F4xx_HAL_Driver/Src/stm32f4xx_hal_hcd.c ****   hhcd->hc[ch_num].xfer_len  = length;
 442:Drivers/STM32F4xx_HAL_Driver/Src/stm32f4xx_hal_hcd.c ****   hhcd->hc[ch_num].urb_state = URB_IDLE;  
 443:Drivers/STM32F4xx_HAL_Driver/Src/stm32f4xx_hal_hcd.c ****   hhcd->hc[ch_num].xfer_count = 0;
 444:Drivers/STM32F4xx_HAL_Driver/Src/stm32f4xx_hal_hcd.c ****   hhcd->hc[ch_num].ch_num = ch_num;
 445:Drivers/STM32F4xx_HAL_Driver/Src/stm32f4xx_hal_hcd.c ****   hhcd->hc[ch_num].state = HC_IDLE;
 446:Drivers/STM32F4xx_HAL_Driver/Src/stm32f4xx_hal_hcd.c ****   
 447:Drivers/STM32F4xx_HAL_Driver/Src/stm32f4xx_hal_hcd.c ****   return USB_HC_StartXfer(hhcd->Instance, &(hhcd->hc[ch_num]), hhcd->Init.dma_enable);
 448:Drivers/STM32F4xx_HAL_Driver/Src/stm32f4xx_hal_hcd.c **** }
 449:Drivers/STM32F4xx_HAL_Driver/Src/stm32f4xx_hal_hcd.c **** 
 450:Drivers/STM32F4xx_HAL_Driver/Src/stm32f4xx_hal_hcd.c **** /**
 451:Drivers/STM32F4xx_HAL_Driver/Src/stm32f4xx_hal_hcd.c ****   * @brief  Handle HCD interrupt request.
 452:Drivers/STM32F4xx_HAL_Driver/Src/stm32f4xx_hal_hcd.c ****   * @param  hhcd HCD handle
 453:Drivers/STM32F4xx_HAL_Driver/Src/stm32f4xx_hal_hcd.c ****   * @retval None
 454:Drivers/STM32F4xx_HAL_Driver/Src/stm32f4xx_hal_hcd.c ****   */
 455:Drivers/STM32F4xx_HAL_Driver/Src/stm32f4xx_hal_hcd.c **** void HAL_HCD_IRQHandler(HCD_HandleTypeDef *hhcd)
 456:Drivers/STM32F4xx_HAL_Driver/Src/stm32f4xx_hal_hcd.c **** {
 457:Drivers/STM32F4xx_HAL_Driver/Src/stm32f4xx_hal_hcd.c ****   USB_OTG_GlobalTypeDef *USBx = hhcd->Instance;
 458:Drivers/STM32F4xx_HAL_Driver/Src/stm32f4xx_hal_hcd.c ****   uint32_t i = 0U , interrupt = 0U;
 459:Drivers/STM32F4xx_HAL_Driver/Src/stm32f4xx_hal_hcd.c ****   
 460:Drivers/STM32F4xx_HAL_Driver/Src/stm32f4xx_hal_hcd.c ****   /* Ensure that we are in device mode */
 461:Drivers/STM32F4xx_HAL_Driver/Src/stm32f4xx_hal_hcd.c ****   if (USB_GetMode(hhcd->Instance) == USB_OTG_MODE_HOST)
 462:Drivers/STM32F4xx_HAL_Driver/Src/stm32f4xx_hal_hcd.c ****   {
 463:Drivers/STM32F4xx_HAL_Driver/Src/stm32f4xx_hal_hcd.c ****     /* Avoid spurious interrupt */
 464:Drivers/STM32F4xx_HAL_Driver/Src/stm32f4xx_hal_hcd.c ****     if(__HAL_HCD_IS_INVALID_INTERRUPT(hhcd)) 
 465:Drivers/STM32F4xx_HAL_Driver/Src/stm32f4xx_hal_hcd.c ****     {
 466:Drivers/STM32F4xx_HAL_Driver/Src/stm32f4xx_hal_hcd.c ****       return;
 467:Drivers/STM32F4xx_HAL_Driver/Src/stm32f4xx_hal_hcd.c ****     }
 468:Drivers/STM32F4xx_HAL_Driver/Src/stm32f4xx_hal_hcd.c ****     
 469:Drivers/STM32F4xx_HAL_Driver/Src/stm32f4xx_hal_hcd.c ****     if(__HAL_HCD_GET_FLAG(hhcd, USB_OTG_GINTSTS_PXFR_INCOMPISOOUT))
 470:Drivers/STM32F4xx_HAL_Driver/Src/stm32f4xx_hal_hcd.c ****     {
 471:Drivers/STM32F4xx_HAL_Driver/Src/stm32f4xx_hal_hcd.c ****       /* Incorrect mode, acknowledge the interrupt */
 472:Drivers/STM32F4xx_HAL_Driver/Src/stm32f4xx_hal_hcd.c ****       __HAL_HCD_CLEAR_FLAG(hhcd, USB_OTG_GINTSTS_PXFR_INCOMPISOOUT);
 473:Drivers/STM32F4xx_HAL_Driver/Src/stm32f4xx_hal_hcd.c ****     }
 474:Drivers/STM32F4xx_HAL_Driver/Src/stm32f4xx_hal_hcd.c ****     
 475:Drivers/STM32F4xx_HAL_Driver/Src/stm32f4xx_hal_hcd.c ****     if(__HAL_HCD_GET_FLAG(hhcd, USB_OTG_GINTSTS_IISOIXFR))
 476:Drivers/STM32F4xx_HAL_Driver/Src/stm32f4xx_hal_hcd.c ****     {
 477:Drivers/STM32F4xx_HAL_Driver/Src/stm32f4xx_hal_hcd.c ****       /* Incorrect mode, acknowledge the interrupt */
 478:Drivers/STM32F4xx_HAL_Driver/Src/stm32f4xx_hal_hcd.c ****       __HAL_HCD_CLEAR_FLAG(hhcd, USB_OTG_GINTSTS_IISOIXFR);
 479:Drivers/STM32F4xx_HAL_Driver/Src/stm32f4xx_hal_hcd.c ****     }
 480:Drivers/STM32F4xx_HAL_Driver/Src/stm32f4xx_hal_hcd.c ****     
 481:Drivers/STM32F4xx_HAL_Driver/Src/stm32f4xx_hal_hcd.c ****     if(__HAL_HCD_GET_FLAG(hhcd, USB_OTG_GINTSTS_PTXFE))
 482:Drivers/STM32F4xx_HAL_Driver/Src/stm32f4xx_hal_hcd.c ****     {
 483:Drivers/STM32F4xx_HAL_Driver/Src/stm32f4xx_hal_hcd.c ****       /* Incorrect mode, acknowledge the interrupt */
 484:Drivers/STM32F4xx_HAL_Driver/Src/stm32f4xx_hal_hcd.c ****       __HAL_HCD_CLEAR_FLAG(hhcd, USB_OTG_GINTSTS_PTXFE);
 485:Drivers/STM32F4xx_HAL_Driver/Src/stm32f4xx_hal_hcd.c ****     }   
 486:Drivers/STM32F4xx_HAL_Driver/Src/stm32f4xx_hal_hcd.c ****     
 487:Drivers/STM32F4xx_HAL_Driver/Src/stm32f4xx_hal_hcd.c ****     if(__HAL_HCD_GET_FLAG(hhcd, USB_OTG_GINTSTS_MMIS))
 488:Drivers/STM32F4xx_HAL_Driver/Src/stm32f4xx_hal_hcd.c ****     {
ARM GAS  /var/folders/0d/93p3r6493yg7p0rvl_4r983m0000gn/T//cc4yon9B.s 			page 10


 489:Drivers/STM32F4xx_HAL_Driver/Src/stm32f4xx_hal_hcd.c ****       /* Incorrect mode, acknowledge the interrupt */
 490:Drivers/STM32F4xx_HAL_Driver/Src/stm32f4xx_hal_hcd.c ****       __HAL_HCD_CLEAR_FLAG(hhcd, USB_OTG_GINTSTS_MMIS);
 491:Drivers/STM32F4xx_HAL_Driver/Src/stm32f4xx_hal_hcd.c ****     }     
 492:Drivers/STM32F4xx_HAL_Driver/Src/stm32f4xx_hal_hcd.c ****     
 493:Drivers/STM32F4xx_HAL_Driver/Src/stm32f4xx_hal_hcd.c ****     /* Handle Host Disconnect Interrupts */
 494:Drivers/STM32F4xx_HAL_Driver/Src/stm32f4xx_hal_hcd.c ****     if(__HAL_HCD_GET_FLAG(hhcd, USB_OTG_GINTSTS_DISCINT))
 495:Drivers/STM32F4xx_HAL_Driver/Src/stm32f4xx_hal_hcd.c ****     {
 496:Drivers/STM32F4xx_HAL_Driver/Src/stm32f4xx_hal_hcd.c ****       
 497:Drivers/STM32F4xx_HAL_Driver/Src/stm32f4xx_hal_hcd.c ****       /* Cleanup HPRT */
 498:Drivers/STM32F4xx_HAL_Driver/Src/stm32f4xx_hal_hcd.c ****       USBx_HPRT0 &= ~(USB_OTG_HPRT_PENA | USB_OTG_HPRT_PCDET |\
 499:Drivers/STM32F4xx_HAL_Driver/Src/stm32f4xx_hal_hcd.c ****         USB_OTG_HPRT_PENCHNG | USB_OTG_HPRT_POCCHNG );
 500:Drivers/STM32F4xx_HAL_Driver/Src/stm32f4xx_hal_hcd.c ****       
 501:Drivers/STM32F4xx_HAL_Driver/Src/stm32f4xx_hal_hcd.c ****       /* Handle Host Port Interrupts */
 502:Drivers/STM32F4xx_HAL_Driver/Src/stm32f4xx_hal_hcd.c ****       HAL_HCD_Disconnect_Callback(hhcd);
 503:Drivers/STM32F4xx_HAL_Driver/Src/stm32f4xx_hal_hcd.c ****       USB_InitFSLSPClkSel(hhcd->Instance ,HCFG_48_MHZ );
 504:Drivers/STM32F4xx_HAL_Driver/Src/stm32f4xx_hal_hcd.c ****       __HAL_HCD_CLEAR_FLAG(hhcd, USB_OTG_GINTSTS_DISCINT);
 505:Drivers/STM32F4xx_HAL_Driver/Src/stm32f4xx_hal_hcd.c ****     }
 506:Drivers/STM32F4xx_HAL_Driver/Src/stm32f4xx_hal_hcd.c ****     
 507:Drivers/STM32F4xx_HAL_Driver/Src/stm32f4xx_hal_hcd.c ****     /* Handle Host Port Interrupts */
 508:Drivers/STM32F4xx_HAL_Driver/Src/stm32f4xx_hal_hcd.c ****     if(__HAL_HCD_GET_FLAG(hhcd, USB_OTG_GINTSTS_HPRTINT))
 509:Drivers/STM32F4xx_HAL_Driver/Src/stm32f4xx_hal_hcd.c ****     {
 510:Drivers/STM32F4xx_HAL_Driver/Src/stm32f4xx_hal_hcd.c ****       HCD_Port_IRQHandler (hhcd);
 511:Drivers/STM32F4xx_HAL_Driver/Src/stm32f4xx_hal_hcd.c ****     }
 512:Drivers/STM32F4xx_HAL_Driver/Src/stm32f4xx_hal_hcd.c ****     
 513:Drivers/STM32F4xx_HAL_Driver/Src/stm32f4xx_hal_hcd.c ****     /* Handle Host SOF Interrupts */
 514:Drivers/STM32F4xx_HAL_Driver/Src/stm32f4xx_hal_hcd.c ****     if(__HAL_HCD_GET_FLAG(hhcd, USB_OTG_GINTSTS_SOF))
 515:Drivers/STM32F4xx_HAL_Driver/Src/stm32f4xx_hal_hcd.c ****     {
 516:Drivers/STM32F4xx_HAL_Driver/Src/stm32f4xx_hal_hcd.c ****       HAL_HCD_SOF_Callback(hhcd);
 517:Drivers/STM32F4xx_HAL_Driver/Src/stm32f4xx_hal_hcd.c ****       __HAL_HCD_CLEAR_FLAG(hhcd, USB_OTG_GINTSTS_SOF);
 518:Drivers/STM32F4xx_HAL_Driver/Src/stm32f4xx_hal_hcd.c ****     }
 519:Drivers/STM32F4xx_HAL_Driver/Src/stm32f4xx_hal_hcd.c ****     
 520:Drivers/STM32F4xx_HAL_Driver/Src/stm32f4xx_hal_hcd.c ****     /* Handle Host channel Interrupts */
 521:Drivers/STM32F4xx_HAL_Driver/Src/stm32f4xx_hal_hcd.c ****     if(__HAL_HCD_GET_FLAG(hhcd, USB_OTG_GINTSTS_HCINT))
 522:Drivers/STM32F4xx_HAL_Driver/Src/stm32f4xx_hal_hcd.c ****     {
 523:Drivers/STM32F4xx_HAL_Driver/Src/stm32f4xx_hal_hcd.c ****       interrupt = USB_HC_ReadInterrupt(hhcd->Instance);
 524:Drivers/STM32F4xx_HAL_Driver/Src/stm32f4xx_hal_hcd.c ****       for (i = 0U; i < hhcd->Init.Host_channels; i++)
 525:Drivers/STM32F4xx_HAL_Driver/Src/stm32f4xx_hal_hcd.c ****       {
 526:Drivers/STM32F4xx_HAL_Driver/Src/stm32f4xx_hal_hcd.c ****         if (interrupt & (1U << i))
 527:Drivers/STM32F4xx_HAL_Driver/Src/stm32f4xx_hal_hcd.c ****         {
 528:Drivers/STM32F4xx_HAL_Driver/Src/stm32f4xx_hal_hcd.c ****           if ((USBx_HC(i)->HCCHAR) &  USB_OTG_HCCHAR_EPDIR)
 529:Drivers/STM32F4xx_HAL_Driver/Src/stm32f4xx_hal_hcd.c ****           {
 530:Drivers/STM32F4xx_HAL_Driver/Src/stm32f4xx_hal_hcd.c ****             HCD_HC_IN_IRQHandler(hhcd, i);
 531:Drivers/STM32F4xx_HAL_Driver/Src/stm32f4xx_hal_hcd.c ****           }
 532:Drivers/STM32F4xx_HAL_Driver/Src/stm32f4xx_hal_hcd.c ****           else
 533:Drivers/STM32F4xx_HAL_Driver/Src/stm32f4xx_hal_hcd.c ****           {
 534:Drivers/STM32F4xx_HAL_Driver/Src/stm32f4xx_hal_hcd.c ****             HCD_HC_OUT_IRQHandler (hhcd, i);
 535:Drivers/STM32F4xx_HAL_Driver/Src/stm32f4xx_hal_hcd.c ****           }
 536:Drivers/STM32F4xx_HAL_Driver/Src/stm32f4xx_hal_hcd.c ****         }
 537:Drivers/STM32F4xx_HAL_Driver/Src/stm32f4xx_hal_hcd.c ****       }
 538:Drivers/STM32F4xx_HAL_Driver/Src/stm32f4xx_hal_hcd.c ****       __HAL_HCD_CLEAR_FLAG(hhcd, USB_OTG_GINTSTS_HCINT);
 539:Drivers/STM32F4xx_HAL_Driver/Src/stm32f4xx_hal_hcd.c ****     } 
 540:Drivers/STM32F4xx_HAL_Driver/Src/stm32f4xx_hal_hcd.c ****     
 541:Drivers/STM32F4xx_HAL_Driver/Src/stm32f4xx_hal_hcd.c ****     /* Handle Rx Queue Level Interrupts */
 542:Drivers/STM32F4xx_HAL_Driver/Src/stm32f4xx_hal_hcd.c ****     if(__HAL_HCD_GET_FLAG(hhcd, USB_OTG_GINTSTS_RXFLVL))
 543:Drivers/STM32F4xx_HAL_Driver/Src/stm32f4xx_hal_hcd.c ****     {
 544:Drivers/STM32F4xx_HAL_Driver/Src/stm32f4xx_hal_hcd.c ****       USB_MASK_INTERRUPT(hhcd->Instance, USB_OTG_GINTSTS_RXFLVL);
 545:Drivers/STM32F4xx_HAL_Driver/Src/stm32f4xx_hal_hcd.c ****       
ARM GAS  /var/folders/0d/93p3r6493yg7p0rvl_4r983m0000gn/T//cc4yon9B.s 			page 11


 546:Drivers/STM32F4xx_HAL_Driver/Src/stm32f4xx_hal_hcd.c ****       HCD_RXQLVL_IRQHandler (hhcd);
 547:Drivers/STM32F4xx_HAL_Driver/Src/stm32f4xx_hal_hcd.c ****       
 548:Drivers/STM32F4xx_HAL_Driver/Src/stm32f4xx_hal_hcd.c ****       USB_UNMASK_INTERRUPT(hhcd->Instance, USB_OTG_GINTSTS_RXFLVL);
 549:Drivers/STM32F4xx_HAL_Driver/Src/stm32f4xx_hal_hcd.c ****     }
 550:Drivers/STM32F4xx_HAL_Driver/Src/stm32f4xx_hal_hcd.c ****   }
 551:Drivers/STM32F4xx_HAL_Driver/Src/stm32f4xx_hal_hcd.c **** }
 552:Drivers/STM32F4xx_HAL_Driver/Src/stm32f4xx_hal_hcd.c **** 
 553:Drivers/STM32F4xx_HAL_Driver/Src/stm32f4xx_hal_hcd.c **** /**
 554:Drivers/STM32F4xx_HAL_Driver/Src/stm32f4xx_hal_hcd.c ****   * @brief  SOF callback.
 555:Drivers/STM32F4xx_HAL_Driver/Src/stm32f4xx_hal_hcd.c ****   * @param  hhcd HCD handle
 556:Drivers/STM32F4xx_HAL_Driver/Src/stm32f4xx_hal_hcd.c ****   * @retval None
 557:Drivers/STM32F4xx_HAL_Driver/Src/stm32f4xx_hal_hcd.c ****   */
 558:Drivers/STM32F4xx_HAL_Driver/Src/stm32f4xx_hal_hcd.c **** __weak void HAL_HCD_SOF_Callback(HCD_HandleTypeDef *hhcd)
 559:Drivers/STM32F4xx_HAL_Driver/Src/stm32f4xx_hal_hcd.c **** {
 560:Drivers/STM32F4xx_HAL_Driver/Src/stm32f4xx_hal_hcd.c ****   /* Prevent unused argument(s) compilation warning */
 561:Drivers/STM32F4xx_HAL_Driver/Src/stm32f4xx_hal_hcd.c ****   UNUSED(hhcd);
 562:Drivers/STM32F4xx_HAL_Driver/Src/stm32f4xx_hal_hcd.c ****   /* NOTE : This function Should not be modified, when the callback is needed,
 563:Drivers/STM32F4xx_HAL_Driver/Src/stm32f4xx_hal_hcd.c ****             the HAL_HCD_SOF_Callback could be implemented in the user file
 564:Drivers/STM32F4xx_HAL_Driver/Src/stm32f4xx_hal_hcd.c ****    */
 565:Drivers/STM32F4xx_HAL_Driver/Src/stm32f4xx_hal_hcd.c **** }
 566:Drivers/STM32F4xx_HAL_Driver/Src/stm32f4xx_hal_hcd.c **** 
 567:Drivers/STM32F4xx_HAL_Driver/Src/stm32f4xx_hal_hcd.c **** /**
 568:Drivers/STM32F4xx_HAL_Driver/Src/stm32f4xx_hal_hcd.c ****   * @brief Connection Event callback.
 569:Drivers/STM32F4xx_HAL_Driver/Src/stm32f4xx_hal_hcd.c ****   * @param  hhcd HCD handle
 570:Drivers/STM32F4xx_HAL_Driver/Src/stm32f4xx_hal_hcd.c ****   * @retval None
 571:Drivers/STM32F4xx_HAL_Driver/Src/stm32f4xx_hal_hcd.c ****   */
 572:Drivers/STM32F4xx_HAL_Driver/Src/stm32f4xx_hal_hcd.c **** __weak void HAL_HCD_Connect_Callback(HCD_HandleTypeDef *hhcd)
 573:Drivers/STM32F4xx_HAL_Driver/Src/stm32f4xx_hal_hcd.c **** {
 574:Drivers/STM32F4xx_HAL_Driver/Src/stm32f4xx_hal_hcd.c ****   /* Prevent unused argument(s) compilation warning */
 575:Drivers/STM32F4xx_HAL_Driver/Src/stm32f4xx_hal_hcd.c ****   UNUSED(hhcd);
 576:Drivers/STM32F4xx_HAL_Driver/Src/stm32f4xx_hal_hcd.c ****   /* NOTE : This function Should not be modified, when the callback is needed,
 577:Drivers/STM32F4xx_HAL_Driver/Src/stm32f4xx_hal_hcd.c ****             the HAL_HCD_Connect_Callback could be implemented in the user file
 578:Drivers/STM32F4xx_HAL_Driver/Src/stm32f4xx_hal_hcd.c ****    */
 579:Drivers/STM32F4xx_HAL_Driver/Src/stm32f4xx_hal_hcd.c **** }
 580:Drivers/STM32F4xx_HAL_Driver/Src/stm32f4xx_hal_hcd.c **** 
 581:Drivers/STM32F4xx_HAL_Driver/Src/stm32f4xx_hal_hcd.c **** /**
 582:Drivers/STM32F4xx_HAL_Driver/Src/stm32f4xx_hal_hcd.c ****   * @brief  Disconnection Event callback.
 583:Drivers/STM32F4xx_HAL_Driver/Src/stm32f4xx_hal_hcd.c ****   * @param  hhcd HCD handle
 584:Drivers/STM32F4xx_HAL_Driver/Src/stm32f4xx_hal_hcd.c ****   * @retval None
 585:Drivers/STM32F4xx_HAL_Driver/Src/stm32f4xx_hal_hcd.c ****   */
 586:Drivers/STM32F4xx_HAL_Driver/Src/stm32f4xx_hal_hcd.c **** __weak void HAL_HCD_Disconnect_Callback(HCD_HandleTypeDef *hhcd)
 587:Drivers/STM32F4xx_HAL_Driver/Src/stm32f4xx_hal_hcd.c **** {
 588:Drivers/STM32F4xx_HAL_Driver/Src/stm32f4xx_hal_hcd.c ****   /* Prevent unused argument(s) compilation warning */
 589:Drivers/STM32F4xx_HAL_Driver/Src/stm32f4xx_hal_hcd.c ****   UNUSED(hhcd);
 590:Drivers/STM32F4xx_HAL_Driver/Src/stm32f4xx_hal_hcd.c ****   /* NOTE : This function Should not be modified, when the callback is needed,
 591:Drivers/STM32F4xx_HAL_Driver/Src/stm32f4xx_hal_hcd.c ****             the HAL_HCD_Disconnect_Callback could be implemented in the user file
 592:Drivers/STM32F4xx_HAL_Driver/Src/stm32f4xx_hal_hcd.c ****    */
 593:Drivers/STM32F4xx_HAL_Driver/Src/stm32f4xx_hal_hcd.c **** } 
 594:Drivers/STM32F4xx_HAL_Driver/Src/stm32f4xx_hal_hcd.c **** 
 595:Drivers/STM32F4xx_HAL_Driver/Src/stm32f4xx_hal_hcd.c **** /**
 596:Drivers/STM32F4xx_HAL_Driver/Src/stm32f4xx_hal_hcd.c ****   * @brief  Notify URB state change callback.
 597:Drivers/STM32F4xx_HAL_Driver/Src/stm32f4xx_hal_hcd.c ****   * @param  hhcd HCD handle
 598:Drivers/STM32F4xx_HAL_Driver/Src/stm32f4xx_hal_hcd.c ****   * @param  chnum Channel number.
 599:Drivers/STM32F4xx_HAL_Driver/Src/stm32f4xx_hal_hcd.c ****   *         This parameter can be a value from 1 to 15
 600:Drivers/STM32F4xx_HAL_Driver/Src/stm32f4xx_hal_hcd.c ****   * @param  urb_state:
 601:Drivers/STM32F4xx_HAL_Driver/Src/stm32f4xx_hal_hcd.c ****   *          This parameter can be one of these values:
 602:Drivers/STM32F4xx_HAL_Driver/Src/stm32f4xx_hal_hcd.c ****   *            URB_IDLE/
ARM GAS  /var/folders/0d/93p3r6493yg7p0rvl_4r983m0000gn/T//cc4yon9B.s 			page 12


 603:Drivers/STM32F4xx_HAL_Driver/Src/stm32f4xx_hal_hcd.c ****   *            URB_DONE/
 604:Drivers/STM32F4xx_HAL_Driver/Src/stm32f4xx_hal_hcd.c ****   *            URB_NOTREADY/
 605:Drivers/STM32F4xx_HAL_Driver/Src/stm32f4xx_hal_hcd.c ****   *            URB_NYET/
 606:Drivers/STM32F4xx_HAL_Driver/Src/stm32f4xx_hal_hcd.c ****   *            URB_ERROR/
 607:Drivers/STM32F4xx_HAL_Driver/Src/stm32f4xx_hal_hcd.c ****   *            URB_STALL/
 608:Drivers/STM32F4xx_HAL_Driver/Src/stm32f4xx_hal_hcd.c ****   * @retval None
 609:Drivers/STM32F4xx_HAL_Driver/Src/stm32f4xx_hal_hcd.c ****   */
 610:Drivers/STM32F4xx_HAL_Driver/Src/stm32f4xx_hal_hcd.c **** __weak void HAL_HCD_HC_NotifyURBChange_Callback(HCD_HandleTypeDef *hhcd, uint8_t chnum, HCD_URBStat
 611:Drivers/STM32F4xx_HAL_Driver/Src/stm32f4xx_hal_hcd.c **** {
 612:Drivers/STM32F4xx_HAL_Driver/Src/stm32f4xx_hal_hcd.c ****   /* Prevent unused argument(s) compilation warning */
 613:Drivers/STM32F4xx_HAL_Driver/Src/stm32f4xx_hal_hcd.c ****   UNUSED(hhcd);
 614:Drivers/STM32F4xx_HAL_Driver/Src/stm32f4xx_hal_hcd.c ****   UNUSED(chnum);
 615:Drivers/STM32F4xx_HAL_Driver/Src/stm32f4xx_hal_hcd.c ****   UNUSED(urb_state);
 616:Drivers/STM32F4xx_HAL_Driver/Src/stm32f4xx_hal_hcd.c ****   /* NOTE : This function Should not be modified, when the callback is needed,
 617:Drivers/STM32F4xx_HAL_Driver/Src/stm32f4xx_hal_hcd.c ****             the HAL_HCD_HC_NotifyURBChange_Callback could be implemented in the user file
 618:Drivers/STM32F4xx_HAL_Driver/Src/stm32f4xx_hal_hcd.c ****    */
 619:Drivers/STM32F4xx_HAL_Driver/Src/stm32f4xx_hal_hcd.c **** }
 620:Drivers/STM32F4xx_HAL_Driver/Src/stm32f4xx_hal_hcd.c **** 
 621:Drivers/STM32F4xx_HAL_Driver/Src/stm32f4xx_hal_hcd.c **** /**
 622:Drivers/STM32F4xx_HAL_Driver/Src/stm32f4xx_hal_hcd.c ****   * @}
 623:Drivers/STM32F4xx_HAL_Driver/Src/stm32f4xx_hal_hcd.c ****   */
 624:Drivers/STM32F4xx_HAL_Driver/Src/stm32f4xx_hal_hcd.c **** 
 625:Drivers/STM32F4xx_HAL_Driver/Src/stm32f4xx_hal_hcd.c **** /** @defgroup HCD_Exported_Functions_Group3 Peripheral Control functions 
 626:Drivers/STM32F4xx_HAL_Driver/Src/stm32f4xx_hal_hcd.c ****  *  @brief   Management functions 
 627:Drivers/STM32F4xx_HAL_Driver/Src/stm32f4xx_hal_hcd.c ****  *
 628:Drivers/STM32F4xx_HAL_Driver/Src/stm32f4xx_hal_hcd.c **** @verbatim 
 629:Drivers/STM32F4xx_HAL_Driver/Src/stm32f4xx_hal_hcd.c ****  ===============================================================================
 630:Drivers/STM32F4xx_HAL_Driver/Src/stm32f4xx_hal_hcd.c ****                       ##### Peripheral Control functions #####
 631:Drivers/STM32F4xx_HAL_Driver/Src/stm32f4xx_hal_hcd.c ****  ===============================================================================  
 632:Drivers/STM32F4xx_HAL_Driver/Src/stm32f4xx_hal_hcd.c ****     [..]
 633:Drivers/STM32F4xx_HAL_Driver/Src/stm32f4xx_hal_hcd.c ****     This subsection provides a set of functions allowing to control the HCD data 
 634:Drivers/STM32F4xx_HAL_Driver/Src/stm32f4xx_hal_hcd.c ****     transfers.
 635:Drivers/STM32F4xx_HAL_Driver/Src/stm32f4xx_hal_hcd.c **** 
 636:Drivers/STM32F4xx_HAL_Driver/Src/stm32f4xx_hal_hcd.c **** @endverbatim
 637:Drivers/STM32F4xx_HAL_Driver/Src/stm32f4xx_hal_hcd.c ****   * @{
 638:Drivers/STM32F4xx_HAL_Driver/Src/stm32f4xx_hal_hcd.c ****   */
 639:Drivers/STM32F4xx_HAL_Driver/Src/stm32f4xx_hal_hcd.c **** 
 640:Drivers/STM32F4xx_HAL_Driver/Src/stm32f4xx_hal_hcd.c **** /**
 641:Drivers/STM32F4xx_HAL_Driver/Src/stm32f4xx_hal_hcd.c ****   * @brief  Start the host driver.
 642:Drivers/STM32F4xx_HAL_Driver/Src/stm32f4xx_hal_hcd.c ****   * @param  hhcd HCD handle
 643:Drivers/STM32F4xx_HAL_Driver/Src/stm32f4xx_hal_hcd.c ****   * @retval HAL status
 644:Drivers/STM32F4xx_HAL_Driver/Src/stm32f4xx_hal_hcd.c ****   */
 645:Drivers/STM32F4xx_HAL_Driver/Src/stm32f4xx_hal_hcd.c **** HAL_StatusTypeDef HAL_HCD_Start(HCD_HandleTypeDef *hhcd)
 646:Drivers/STM32F4xx_HAL_Driver/Src/stm32f4xx_hal_hcd.c **** { 
 647:Drivers/STM32F4xx_HAL_Driver/Src/stm32f4xx_hal_hcd.c ****   __HAL_LOCK(hhcd); 
 648:Drivers/STM32F4xx_HAL_Driver/Src/stm32f4xx_hal_hcd.c ****   __HAL_HCD_ENABLE(hhcd);
 649:Drivers/STM32F4xx_HAL_Driver/Src/stm32f4xx_hal_hcd.c ****   USB_DriveVbus(hhcd->Instance, 1U);  
 650:Drivers/STM32F4xx_HAL_Driver/Src/stm32f4xx_hal_hcd.c ****   __HAL_UNLOCK(hhcd); 
 651:Drivers/STM32F4xx_HAL_Driver/Src/stm32f4xx_hal_hcd.c ****   return HAL_OK;
 652:Drivers/STM32F4xx_HAL_Driver/Src/stm32f4xx_hal_hcd.c **** }
 653:Drivers/STM32F4xx_HAL_Driver/Src/stm32f4xx_hal_hcd.c **** 
 654:Drivers/STM32F4xx_HAL_Driver/Src/stm32f4xx_hal_hcd.c **** /**
 655:Drivers/STM32F4xx_HAL_Driver/Src/stm32f4xx_hal_hcd.c ****   * @brief  Stop the host driver.
 656:Drivers/STM32F4xx_HAL_Driver/Src/stm32f4xx_hal_hcd.c ****   * @param  hhcd HCD handle
 657:Drivers/STM32F4xx_HAL_Driver/Src/stm32f4xx_hal_hcd.c ****   * @retval HAL status
 658:Drivers/STM32F4xx_HAL_Driver/Src/stm32f4xx_hal_hcd.c ****   */
 659:Drivers/STM32F4xx_HAL_Driver/Src/stm32f4xx_hal_hcd.c **** 
ARM GAS  /var/folders/0d/93p3r6493yg7p0rvl_4r983m0000gn/T//cc4yon9B.s 			page 13


 660:Drivers/STM32F4xx_HAL_Driver/Src/stm32f4xx_hal_hcd.c **** HAL_StatusTypeDef HAL_HCD_Stop(HCD_HandleTypeDef *hhcd)
 661:Drivers/STM32F4xx_HAL_Driver/Src/stm32f4xx_hal_hcd.c **** { 
 662:Drivers/STM32F4xx_HAL_Driver/Src/stm32f4xx_hal_hcd.c ****   __HAL_LOCK(hhcd); 
 663:Drivers/STM32F4xx_HAL_Driver/Src/stm32f4xx_hal_hcd.c ****   USB_StopHost(hhcd->Instance);
 664:Drivers/STM32F4xx_HAL_Driver/Src/stm32f4xx_hal_hcd.c ****   __HAL_UNLOCK(hhcd); 
 665:Drivers/STM32F4xx_HAL_Driver/Src/stm32f4xx_hal_hcd.c ****   return HAL_OK;
 666:Drivers/STM32F4xx_HAL_Driver/Src/stm32f4xx_hal_hcd.c **** }
 667:Drivers/STM32F4xx_HAL_Driver/Src/stm32f4xx_hal_hcd.c **** 
 668:Drivers/STM32F4xx_HAL_Driver/Src/stm32f4xx_hal_hcd.c **** /**
 669:Drivers/STM32F4xx_HAL_Driver/Src/stm32f4xx_hal_hcd.c ****   * @brief  Reset the host port.
 670:Drivers/STM32F4xx_HAL_Driver/Src/stm32f4xx_hal_hcd.c ****   * @param  hhcd HCD handle
 671:Drivers/STM32F4xx_HAL_Driver/Src/stm32f4xx_hal_hcd.c ****   * @retval HAL status
 672:Drivers/STM32F4xx_HAL_Driver/Src/stm32f4xx_hal_hcd.c ****   */
 673:Drivers/STM32F4xx_HAL_Driver/Src/stm32f4xx_hal_hcd.c **** HAL_StatusTypeDef HAL_HCD_ResetPort(HCD_HandleTypeDef *hhcd)
 674:Drivers/STM32F4xx_HAL_Driver/Src/stm32f4xx_hal_hcd.c **** {
 675:Drivers/STM32F4xx_HAL_Driver/Src/stm32f4xx_hal_hcd.c ****   return (USB_ResetPort(hhcd->Instance));
 676:Drivers/STM32F4xx_HAL_Driver/Src/stm32f4xx_hal_hcd.c **** }
 677:Drivers/STM32F4xx_HAL_Driver/Src/stm32f4xx_hal_hcd.c **** 
 678:Drivers/STM32F4xx_HAL_Driver/Src/stm32f4xx_hal_hcd.c **** /**
 679:Drivers/STM32F4xx_HAL_Driver/Src/stm32f4xx_hal_hcd.c ****   * @}
 680:Drivers/STM32F4xx_HAL_Driver/Src/stm32f4xx_hal_hcd.c ****   */
 681:Drivers/STM32F4xx_HAL_Driver/Src/stm32f4xx_hal_hcd.c **** 
 682:Drivers/STM32F4xx_HAL_Driver/Src/stm32f4xx_hal_hcd.c **** /** @defgroup HCD_Exported_Functions_Group4 Peripheral State functions 
 683:Drivers/STM32F4xx_HAL_Driver/Src/stm32f4xx_hal_hcd.c ****  *  @brief   Peripheral State functions 
 684:Drivers/STM32F4xx_HAL_Driver/Src/stm32f4xx_hal_hcd.c ****  *
 685:Drivers/STM32F4xx_HAL_Driver/Src/stm32f4xx_hal_hcd.c **** @verbatim 
 686:Drivers/STM32F4xx_HAL_Driver/Src/stm32f4xx_hal_hcd.c ****  ===============================================================================
 687:Drivers/STM32F4xx_HAL_Driver/Src/stm32f4xx_hal_hcd.c ****                       ##### Peripheral State functions #####
 688:Drivers/STM32F4xx_HAL_Driver/Src/stm32f4xx_hal_hcd.c ****  ===============================================================================  
 689:Drivers/STM32F4xx_HAL_Driver/Src/stm32f4xx_hal_hcd.c ****     [..]
 690:Drivers/STM32F4xx_HAL_Driver/Src/stm32f4xx_hal_hcd.c ****     This subsection permits to get in run-time the status of the peripheral 
 691:Drivers/STM32F4xx_HAL_Driver/Src/stm32f4xx_hal_hcd.c ****     and the data flow.
 692:Drivers/STM32F4xx_HAL_Driver/Src/stm32f4xx_hal_hcd.c **** 
 693:Drivers/STM32F4xx_HAL_Driver/Src/stm32f4xx_hal_hcd.c **** @endverbatim
 694:Drivers/STM32F4xx_HAL_Driver/Src/stm32f4xx_hal_hcd.c ****   * @{
 695:Drivers/STM32F4xx_HAL_Driver/Src/stm32f4xx_hal_hcd.c ****   */
 696:Drivers/STM32F4xx_HAL_Driver/Src/stm32f4xx_hal_hcd.c **** 
 697:Drivers/STM32F4xx_HAL_Driver/Src/stm32f4xx_hal_hcd.c **** /**
 698:Drivers/STM32F4xx_HAL_Driver/Src/stm32f4xx_hal_hcd.c ****   * @brief  Return the HCD handle state.
 699:Drivers/STM32F4xx_HAL_Driver/Src/stm32f4xx_hal_hcd.c ****   * @param  hhcd HCD handle
 700:Drivers/STM32F4xx_HAL_Driver/Src/stm32f4xx_hal_hcd.c ****   * @retval HAL state
 701:Drivers/STM32F4xx_HAL_Driver/Src/stm32f4xx_hal_hcd.c ****   */
 702:Drivers/STM32F4xx_HAL_Driver/Src/stm32f4xx_hal_hcd.c **** HCD_StateTypeDef HAL_HCD_GetState(HCD_HandleTypeDef *hhcd)
 703:Drivers/STM32F4xx_HAL_Driver/Src/stm32f4xx_hal_hcd.c **** {
 704:Drivers/STM32F4xx_HAL_Driver/Src/stm32f4xx_hal_hcd.c ****   return hhcd->State;
 705:Drivers/STM32F4xx_HAL_Driver/Src/stm32f4xx_hal_hcd.c **** }
 706:Drivers/STM32F4xx_HAL_Driver/Src/stm32f4xx_hal_hcd.c **** 
 707:Drivers/STM32F4xx_HAL_Driver/Src/stm32f4xx_hal_hcd.c **** /**
 708:Drivers/STM32F4xx_HAL_Driver/Src/stm32f4xx_hal_hcd.c ****   * @brief  Return  URB state for a channel.
 709:Drivers/STM32F4xx_HAL_Driver/Src/stm32f4xx_hal_hcd.c ****   * @param  hhcd HCD handle
 710:Drivers/STM32F4xx_HAL_Driver/Src/stm32f4xx_hal_hcd.c ****   * @param  chnum Channel number.
 711:Drivers/STM32F4xx_HAL_Driver/Src/stm32f4xx_hal_hcd.c ****   *         This parameter can be a value from 1 to 15
 712:Drivers/STM32F4xx_HAL_Driver/Src/stm32f4xx_hal_hcd.c ****   * @retval URB state.
 713:Drivers/STM32F4xx_HAL_Driver/Src/stm32f4xx_hal_hcd.c ****   *          This parameter can be one of these values:
 714:Drivers/STM32F4xx_HAL_Driver/Src/stm32f4xx_hal_hcd.c ****   *            URB_IDLE/
 715:Drivers/STM32F4xx_HAL_Driver/Src/stm32f4xx_hal_hcd.c ****   *            URB_DONE/
 716:Drivers/STM32F4xx_HAL_Driver/Src/stm32f4xx_hal_hcd.c ****   *            URB_NOTREADY/
ARM GAS  /var/folders/0d/93p3r6493yg7p0rvl_4r983m0000gn/T//cc4yon9B.s 			page 14


 717:Drivers/STM32F4xx_HAL_Driver/Src/stm32f4xx_hal_hcd.c ****   *            URB_NYET/ 
 718:Drivers/STM32F4xx_HAL_Driver/Src/stm32f4xx_hal_hcd.c ****   *            URB_ERROR/  
 719:Drivers/STM32F4xx_HAL_Driver/Src/stm32f4xx_hal_hcd.c ****   *            URB_STALL      
 720:Drivers/STM32F4xx_HAL_Driver/Src/stm32f4xx_hal_hcd.c ****   */
 721:Drivers/STM32F4xx_HAL_Driver/Src/stm32f4xx_hal_hcd.c **** HCD_URBStateTypeDef HAL_HCD_HC_GetURBState(HCD_HandleTypeDef *hhcd, uint8_t chnum)
 722:Drivers/STM32F4xx_HAL_Driver/Src/stm32f4xx_hal_hcd.c **** {
 723:Drivers/STM32F4xx_HAL_Driver/Src/stm32f4xx_hal_hcd.c ****   return hhcd->hc[chnum].urb_state;
 724:Drivers/STM32F4xx_HAL_Driver/Src/stm32f4xx_hal_hcd.c **** }
 725:Drivers/STM32F4xx_HAL_Driver/Src/stm32f4xx_hal_hcd.c **** 
 726:Drivers/STM32F4xx_HAL_Driver/Src/stm32f4xx_hal_hcd.c **** 
 727:Drivers/STM32F4xx_HAL_Driver/Src/stm32f4xx_hal_hcd.c **** /**
 728:Drivers/STM32F4xx_HAL_Driver/Src/stm32f4xx_hal_hcd.c ****   * @brief  Return the last host transfer size.
 729:Drivers/STM32F4xx_HAL_Driver/Src/stm32f4xx_hal_hcd.c ****   * @param  hhcd HCD handle
 730:Drivers/STM32F4xx_HAL_Driver/Src/stm32f4xx_hal_hcd.c ****   * @param  chnum Channel number.
 731:Drivers/STM32F4xx_HAL_Driver/Src/stm32f4xx_hal_hcd.c ****   *         This parameter can be a value from 1 to 15
 732:Drivers/STM32F4xx_HAL_Driver/Src/stm32f4xx_hal_hcd.c ****   * @retval last transfer size in byte
 733:Drivers/STM32F4xx_HAL_Driver/Src/stm32f4xx_hal_hcd.c ****   */
 734:Drivers/STM32F4xx_HAL_Driver/Src/stm32f4xx_hal_hcd.c **** uint32_t HAL_HCD_HC_GetXferCount(HCD_HandleTypeDef *hhcd, uint8_t chnum)
 735:Drivers/STM32F4xx_HAL_Driver/Src/stm32f4xx_hal_hcd.c **** {
 736:Drivers/STM32F4xx_HAL_Driver/Src/stm32f4xx_hal_hcd.c ****   return hhcd->hc[chnum].xfer_count; 
 737:Drivers/STM32F4xx_HAL_Driver/Src/stm32f4xx_hal_hcd.c **** }
 738:Drivers/STM32F4xx_HAL_Driver/Src/stm32f4xx_hal_hcd.c ****   
 739:Drivers/STM32F4xx_HAL_Driver/Src/stm32f4xx_hal_hcd.c **** /**
 740:Drivers/STM32F4xx_HAL_Driver/Src/stm32f4xx_hal_hcd.c ****   * @brief  Return the Host Channel state.
 741:Drivers/STM32F4xx_HAL_Driver/Src/stm32f4xx_hal_hcd.c ****   * @param  hhcd HCD handle
 742:Drivers/STM32F4xx_HAL_Driver/Src/stm32f4xx_hal_hcd.c ****   * @param  chnum Channel number.
 743:Drivers/STM32F4xx_HAL_Driver/Src/stm32f4xx_hal_hcd.c ****   *         This parameter can be a value from 1 to 15
 744:Drivers/STM32F4xx_HAL_Driver/Src/stm32f4xx_hal_hcd.c ****   * @retval Host channel state
 745:Drivers/STM32F4xx_HAL_Driver/Src/stm32f4xx_hal_hcd.c ****   *          This parameter can be one of these values:
 746:Drivers/STM32F4xx_HAL_Driver/Src/stm32f4xx_hal_hcd.c ****   *            HC_IDLE/
 747:Drivers/STM32F4xx_HAL_Driver/Src/stm32f4xx_hal_hcd.c ****   *            HC_XFRC/
 748:Drivers/STM32F4xx_HAL_Driver/Src/stm32f4xx_hal_hcd.c ****   *            HC_HALTED/
 749:Drivers/STM32F4xx_HAL_Driver/Src/stm32f4xx_hal_hcd.c ****   *            HC_NYET/ 
 750:Drivers/STM32F4xx_HAL_Driver/Src/stm32f4xx_hal_hcd.c ****   *            HC_NAK/  
 751:Drivers/STM32F4xx_HAL_Driver/Src/stm32f4xx_hal_hcd.c ****   *            HC_STALL/ 
 752:Drivers/STM32F4xx_HAL_Driver/Src/stm32f4xx_hal_hcd.c ****   *            HC_XACTERR/  
 753:Drivers/STM32F4xx_HAL_Driver/Src/stm32f4xx_hal_hcd.c ****   *            HC_BBLERR/  
 754:Drivers/STM32F4xx_HAL_Driver/Src/stm32f4xx_hal_hcd.c ****   *            HC_DATATGLERR    
 755:Drivers/STM32F4xx_HAL_Driver/Src/stm32f4xx_hal_hcd.c ****   */
 756:Drivers/STM32F4xx_HAL_Driver/Src/stm32f4xx_hal_hcd.c **** HCD_HCStateTypeDef  HAL_HCD_HC_GetState(HCD_HandleTypeDef *hhcd, uint8_t chnum)
 757:Drivers/STM32F4xx_HAL_Driver/Src/stm32f4xx_hal_hcd.c **** {
 758:Drivers/STM32F4xx_HAL_Driver/Src/stm32f4xx_hal_hcd.c ****   return hhcd->hc[chnum].state;
 759:Drivers/STM32F4xx_HAL_Driver/Src/stm32f4xx_hal_hcd.c **** }
 760:Drivers/STM32F4xx_HAL_Driver/Src/stm32f4xx_hal_hcd.c **** 
 761:Drivers/STM32F4xx_HAL_Driver/Src/stm32f4xx_hal_hcd.c **** /**
 762:Drivers/STM32F4xx_HAL_Driver/Src/stm32f4xx_hal_hcd.c ****   * @brief  Return the current Host frame number.
 763:Drivers/STM32F4xx_HAL_Driver/Src/stm32f4xx_hal_hcd.c ****   * @param  hhcd HCD handle
 764:Drivers/STM32F4xx_HAL_Driver/Src/stm32f4xx_hal_hcd.c ****   * @retval Current Host frame number
 765:Drivers/STM32F4xx_HAL_Driver/Src/stm32f4xx_hal_hcd.c ****   */
 766:Drivers/STM32F4xx_HAL_Driver/Src/stm32f4xx_hal_hcd.c **** uint32_t HAL_HCD_GetCurrentFrame(HCD_HandleTypeDef *hhcd)
 767:Drivers/STM32F4xx_HAL_Driver/Src/stm32f4xx_hal_hcd.c **** {
 768:Drivers/STM32F4xx_HAL_Driver/Src/stm32f4xx_hal_hcd.c ****   return (USB_GetCurrentFrame(hhcd->Instance));
 769:Drivers/STM32F4xx_HAL_Driver/Src/stm32f4xx_hal_hcd.c **** }
 770:Drivers/STM32F4xx_HAL_Driver/Src/stm32f4xx_hal_hcd.c **** 
 771:Drivers/STM32F4xx_HAL_Driver/Src/stm32f4xx_hal_hcd.c **** /**
 772:Drivers/STM32F4xx_HAL_Driver/Src/stm32f4xx_hal_hcd.c ****   * @brief  Return the Host enumeration speed.
 773:Drivers/STM32F4xx_HAL_Driver/Src/stm32f4xx_hal_hcd.c ****   * @param  hhcd HCD handle
ARM GAS  /var/folders/0d/93p3r6493yg7p0rvl_4r983m0000gn/T//cc4yon9B.s 			page 15


 774:Drivers/STM32F4xx_HAL_Driver/Src/stm32f4xx_hal_hcd.c ****   * @retval Enumeration speed
 775:Drivers/STM32F4xx_HAL_Driver/Src/stm32f4xx_hal_hcd.c ****   */
 776:Drivers/STM32F4xx_HAL_Driver/Src/stm32f4xx_hal_hcd.c **** uint32_t HAL_HCD_GetCurrentSpeed(HCD_HandleTypeDef *hhcd)
 777:Drivers/STM32F4xx_HAL_Driver/Src/stm32f4xx_hal_hcd.c **** {
 778:Drivers/STM32F4xx_HAL_Driver/Src/stm32f4xx_hal_hcd.c ****   return (USB_GetHostSpeed(hhcd->Instance));
 779:Drivers/STM32F4xx_HAL_Driver/Src/stm32f4xx_hal_hcd.c **** }
 780:Drivers/STM32F4xx_HAL_Driver/Src/stm32f4xx_hal_hcd.c **** 
 781:Drivers/STM32F4xx_HAL_Driver/Src/stm32f4xx_hal_hcd.c **** /**
 782:Drivers/STM32F4xx_HAL_Driver/Src/stm32f4xx_hal_hcd.c ****   * @}
 783:Drivers/STM32F4xx_HAL_Driver/Src/stm32f4xx_hal_hcd.c ****   */
 784:Drivers/STM32F4xx_HAL_Driver/Src/stm32f4xx_hal_hcd.c **** 
 785:Drivers/STM32F4xx_HAL_Driver/Src/stm32f4xx_hal_hcd.c **** /**
 786:Drivers/STM32F4xx_HAL_Driver/Src/stm32f4xx_hal_hcd.c ****   * @}
 787:Drivers/STM32F4xx_HAL_Driver/Src/stm32f4xx_hal_hcd.c ****   */
 788:Drivers/STM32F4xx_HAL_Driver/Src/stm32f4xx_hal_hcd.c **** 
 789:Drivers/STM32F4xx_HAL_Driver/Src/stm32f4xx_hal_hcd.c **** /** @addtogroup HCD_Private_Functions
 790:Drivers/STM32F4xx_HAL_Driver/Src/stm32f4xx_hal_hcd.c ****   * @{
 791:Drivers/STM32F4xx_HAL_Driver/Src/stm32f4xx_hal_hcd.c ****   */
 792:Drivers/STM32F4xx_HAL_Driver/Src/stm32f4xx_hal_hcd.c **** /**
 793:Drivers/STM32F4xx_HAL_Driver/Src/stm32f4xx_hal_hcd.c ****   * @brief  Handle Host Channel IN interrupt requests.
 794:Drivers/STM32F4xx_HAL_Driver/Src/stm32f4xx_hal_hcd.c ****   * @param  hhcd HCD handle
 795:Drivers/STM32F4xx_HAL_Driver/Src/stm32f4xx_hal_hcd.c ****   * @param  chnum Channel number.
 796:Drivers/STM32F4xx_HAL_Driver/Src/stm32f4xx_hal_hcd.c ****   *         This parameter can be a value from 1 to 15
 797:Drivers/STM32F4xx_HAL_Driver/Src/stm32f4xx_hal_hcd.c ****   * @retval None
 798:Drivers/STM32F4xx_HAL_Driver/Src/stm32f4xx_hal_hcd.c ****   */
 799:Drivers/STM32F4xx_HAL_Driver/Src/stm32f4xx_hal_hcd.c **** static void HCD_HC_IN_IRQHandler(HCD_HandleTypeDef *hhcd, uint8_t chnum)
 800:Drivers/STM32F4xx_HAL_Driver/Src/stm32f4xx_hal_hcd.c **** {
 801:Drivers/STM32F4xx_HAL_Driver/Src/stm32f4xx_hal_hcd.c ****   USB_OTG_GlobalTypeDef *USBx = hhcd->Instance;
 802:Drivers/STM32F4xx_HAL_Driver/Src/stm32f4xx_hal_hcd.c ****   uint32_t tmpreg = 0U;
 803:Drivers/STM32F4xx_HAL_Driver/Src/stm32f4xx_hal_hcd.c ****   
 804:Drivers/STM32F4xx_HAL_Driver/Src/stm32f4xx_hal_hcd.c ****   if ((USBx_HC(chnum)->HCINT) &  USB_OTG_HCINT_AHBERR)
 805:Drivers/STM32F4xx_HAL_Driver/Src/stm32f4xx_hal_hcd.c ****   {
 806:Drivers/STM32F4xx_HAL_Driver/Src/stm32f4xx_hal_hcd.c ****     __HAL_HCD_CLEAR_HC_INT(chnum, USB_OTG_HCINT_AHBERR);
 807:Drivers/STM32F4xx_HAL_Driver/Src/stm32f4xx_hal_hcd.c ****     __HAL_HCD_UNMASK_HALT_HC_INT(chnum);
 808:Drivers/STM32F4xx_HAL_Driver/Src/stm32f4xx_hal_hcd.c ****   }  
 809:Drivers/STM32F4xx_HAL_Driver/Src/stm32f4xx_hal_hcd.c ****   else if ((USBx_HC(chnum)->HCINT) &  USB_OTG_HCINT_ACK)
 810:Drivers/STM32F4xx_HAL_Driver/Src/stm32f4xx_hal_hcd.c ****   {
 811:Drivers/STM32F4xx_HAL_Driver/Src/stm32f4xx_hal_hcd.c ****     __HAL_HCD_CLEAR_HC_INT(chnum, USB_OTG_HCINT_ACK);
 812:Drivers/STM32F4xx_HAL_Driver/Src/stm32f4xx_hal_hcd.c ****   }
 813:Drivers/STM32F4xx_HAL_Driver/Src/stm32f4xx_hal_hcd.c ****   
 814:Drivers/STM32F4xx_HAL_Driver/Src/stm32f4xx_hal_hcd.c ****   else if ((USBx_HC(chnum)->HCINT) &  USB_OTG_HCINT_STALL)  
 815:Drivers/STM32F4xx_HAL_Driver/Src/stm32f4xx_hal_hcd.c ****   {
 816:Drivers/STM32F4xx_HAL_Driver/Src/stm32f4xx_hal_hcd.c ****     __HAL_HCD_UNMASK_HALT_HC_INT(chnum);
 817:Drivers/STM32F4xx_HAL_Driver/Src/stm32f4xx_hal_hcd.c ****     hhcd->hc[chnum].state = HC_STALL;
 818:Drivers/STM32F4xx_HAL_Driver/Src/stm32f4xx_hal_hcd.c ****     __HAL_HCD_CLEAR_HC_INT(chnum, USB_OTG_HCINT_NAK);
 819:Drivers/STM32F4xx_HAL_Driver/Src/stm32f4xx_hal_hcd.c ****     __HAL_HCD_CLEAR_HC_INT(chnum, USB_OTG_HCINT_STALL);    
 820:Drivers/STM32F4xx_HAL_Driver/Src/stm32f4xx_hal_hcd.c ****     USB_HC_Halt(hhcd->Instance, chnum);    
 821:Drivers/STM32F4xx_HAL_Driver/Src/stm32f4xx_hal_hcd.c ****   }
 822:Drivers/STM32F4xx_HAL_Driver/Src/stm32f4xx_hal_hcd.c ****   else if ((USBx_HC(chnum)->HCINT) &  USB_OTG_HCINT_DTERR)
 823:Drivers/STM32F4xx_HAL_Driver/Src/stm32f4xx_hal_hcd.c ****   {
 824:Drivers/STM32F4xx_HAL_Driver/Src/stm32f4xx_hal_hcd.c ****     __HAL_HCD_UNMASK_HALT_HC_INT(chnum);
 825:Drivers/STM32F4xx_HAL_Driver/Src/stm32f4xx_hal_hcd.c ****     USB_HC_Halt(hhcd->Instance, chnum);  
 826:Drivers/STM32F4xx_HAL_Driver/Src/stm32f4xx_hal_hcd.c ****     __HAL_HCD_CLEAR_HC_INT(chnum, USB_OTG_HCINT_NAK);    
 827:Drivers/STM32F4xx_HAL_Driver/Src/stm32f4xx_hal_hcd.c ****     hhcd->hc[chnum].state = HC_DATATGLERR;
 828:Drivers/STM32F4xx_HAL_Driver/Src/stm32f4xx_hal_hcd.c ****     __HAL_HCD_CLEAR_HC_INT(chnum, USB_OTG_HCINT_DTERR);
 829:Drivers/STM32F4xx_HAL_Driver/Src/stm32f4xx_hal_hcd.c ****   }    
 830:Drivers/STM32F4xx_HAL_Driver/Src/stm32f4xx_hal_hcd.c ****   
ARM GAS  /var/folders/0d/93p3r6493yg7p0rvl_4r983m0000gn/T//cc4yon9B.s 			page 16


 831:Drivers/STM32F4xx_HAL_Driver/Src/stm32f4xx_hal_hcd.c ****   if ((USBx_HC(chnum)->HCINT) &  USB_OTG_HCINT_FRMOR)
 832:Drivers/STM32F4xx_HAL_Driver/Src/stm32f4xx_hal_hcd.c ****   {
 833:Drivers/STM32F4xx_HAL_Driver/Src/stm32f4xx_hal_hcd.c ****     __HAL_HCD_UNMASK_HALT_HC_INT(chnum); 
 834:Drivers/STM32F4xx_HAL_Driver/Src/stm32f4xx_hal_hcd.c ****     USB_HC_Halt(hhcd->Instance, chnum);  
 835:Drivers/STM32F4xx_HAL_Driver/Src/stm32f4xx_hal_hcd.c ****     __HAL_HCD_CLEAR_HC_INT(chnum, USB_OTG_HCINT_FRMOR);
 836:Drivers/STM32F4xx_HAL_Driver/Src/stm32f4xx_hal_hcd.c ****   }
 837:Drivers/STM32F4xx_HAL_Driver/Src/stm32f4xx_hal_hcd.c ****   
 838:Drivers/STM32F4xx_HAL_Driver/Src/stm32f4xx_hal_hcd.c ****   else if ((USBx_HC(chnum)->HCINT) &  USB_OTG_HCINT_XFRC)
 839:Drivers/STM32F4xx_HAL_Driver/Src/stm32f4xx_hal_hcd.c ****   {
 840:Drivers/STM32F4xx_HAL_Driver/Src/stm32f4xx_hal_hcd.c ****     
 841:Drivers/STM32F4xx_HAL_Driver/Src/stm32f4xx_hal_hcd.c ****     if (hhcd->Init.dma_enable)
 842:Drivers/STM32F4xx_HAL_Driver/Src/stm32f4xx_hal_hcd.c ****     {
 843:Drivers/STM32F4xx_HAL_Driver/Src/stm32f4xx_hal_hcd.c ****       hhcd->hc[chnum].xfer_count = hhcd->hc[chnum].xfer_len - \
 844:Drivers/STM32F4xx_HAL_Driver/Src/stm32f4xx_hal_hcd.c ****         (USBx_HC(chnum)->HCTSIZ & USB_OTG_HCTSIZ_XFRSIZ);
 845:Drivers/STM32F4xx_HAL_Driver/Src/stm32f4xx_hal_hcd.c ****     }
 846:Drivers/STM32F4xx_HAL_Driver/Src/stm32f4xx_hal_hcd.c ****     
 847:Drivers/STM32F4xx_HAL_Driver/Src/stm32f4xx_hal_hcd.c ****     hhcd->hc[chnum].state = HC_XFRC;
 848:Drivers/STM32F4xx_HAL_Driver/Src/stm32f4xx_hal_hcd.c ****     hhcd->hc[chnum].ErrCnt = 0U;
 849:Drivers/STM32F4xx_HAL_Driver/Src/stm32f4xx_hal_hcd.c ****     __HAL_HCD_CLEAR_HC_INT(chnum, USB_OTG_HCINT_XFRC);
 850:Drivers/STM32F4xx_HAL_Driver/Src/stm32f4xx_hal_hcd.c ****     
 851:Drivers/STM32F4xx_HAL_Driver/Src/stm32f4xx_hal_hcd.c ****     
 852:Drivers/STM32F4xx_HAL_Driver/Src/stm32f4xx_hal_hcd.c ****     if ((hhcd->hc[chnum].ep_type == EP_TYPE_CTRL)||
 853:Drivers/STM32F4xx_HAL_Driver/Src/stm32f4xx_hal_hcd.c ****         (hhcd->hc[chnum].ep_type == EP_TYPE_BULK))
 854:Drivers/STM32F4xx_HAL_Driver/Src/stm32f4xx_hal_hcd.c ****     {
 855:Drivers/STM32F4xx_HAL_Driver/Src/stm32f4xx_hal_hcd.c ****       __HAL_HCD_UNMASK_HALT_HC_INT(chnum); 
 856:Drivers/STM32F4xx_HAL_Driver/Src/stm32f4xx_hal_hcd.c ****       USB_HC_Halt(hhcd->Instance, chnum); 
 857:Drivers/STM32F4xx_HAL_Driver/Src/stm32f4xx_hal_hcd.c ****       __HAL_HCD_CLEAR_HC_INT(chnum, USB_OTG_HCINT_NAK);
 858:Drivers/STM32F4xx_HAL_Driver/Src/stm32f4xx_hal_hcd.c ****       
 859:Drivers/STM32F4xx_HAL_Driver/Src/stm32f4xx_hal_hcd.c ****     }
 860:Drivers/STM32F4xx_HAL_Driver/Src/stm32f4xx_hal_hcd.c ****     else if(hhcd->hc[chnum].ep_type == EP_TYPE_INTR)
 861:Drivers/STM32F4xx_HAL_Driver/Src/stm32f4xx_hal_hcd.c ****     {
 862:Drivers/STM32F4xx_HAL_Driver/Src/stm32f4xx_hal_hcd.c ****       USBx_HC(chnum)->HCCHAR |= USB_OTG_HCCHAR_ODDFRM;
 863:Drivers/STM32F4xx_HAL_Driver/Src/stm32f4xx_hal_hcd.c ****       hhcd->hc[chnum].urb_state = URB_DONE; 
 864:Drivers/STM32F4xx_HAL_Driver/Src/stm32f4xx_hal_hcd.c ****       HAL_HCD_HC_NotifyURBChange_Callback(hhcd, chnum, hhcd->hc[chnum].urb_state);
 865:Drivers/STM32F4xx_HAL_Driver/Src/stm32f4xx_hal_hcd.c ****     }
 866:Drivers/STM32F4xx_HAL_Driver/Src/stm32f4xx_hal_hcd.c ****     hhcd->hc[chnum].toggle_in ^= 1U;
 867:Drivers/STM32F4xx_HAL_Driver/Src/stm32f4xx_hal_hcd.c ****     
 868:Drivers/STM32F4xx_HAL_Driver/Src/stm32f4xx_hal_hcd.c ****   }
 869:Drivers/STM32F4xx_HAL_Driver/Src/stm32f4xx_hal_hcd.c ****   else if ((USBx_HC(chnum)->HCINT) &  USB_OTG_HCINT_CHH)
 870:Drivers/STM32F4xx_HAL_Driver/Src/stm32f4xx_hal_hcd.c ****   {
 871:Drivers/STM32F4xx_HAL_Driver/Src/stm32f4xx_hal_hcd.c ****     __HAL_HCD_MASK_HALT_HC_INT(chnum); 
 872:Drivers/STM32F4xx_HAL_Driver/Src/stm32f4xx_hal_hcd.c ****     
 873:Drivers/STM32F4xx_HAL_Driver/Src/stm32f4xx_hal_hcd.c ****     if(hhcd->hc[chnum].state == HC_XFRC)
 874:Drivers/STM32F4xx_HAL_Driver/Src/stm32f4xx_hal_hcd.c ****     {
 875:Drivers/STM32F4xx_HAL_Driver/Src/stm32f4xx_hal_hcd.c ****       hhcd->hc[chnum].urb_state  = URB_DONE;      
 876:Drivers/STM32F4xx_HAL_Driver/Src/stm32f4xx_hal_hcd.c ****     }
 877:Drivers/STM32F4xx_HAL_Driver/Src/stm32f4xx_hal_hcd.c ****     
 878:Drivers/STM32F4xx_HAL_Driver/Src/stm32f4xx_hal_hcd.c ****     else if (hhcd->hc[chnum].state == HC_STALL) 
 879:Drivers/STM32F4xx_HAL_Driver/Src/stm32f4xx_hal_hcd.c ****     {
 880:Drivers/STM32F4xx_HAL_Driver/Src/stm32f4xx_hal_hcd.c ****       hhcd->hc[chnum].urb_state  = URB_STALL;
 881:Drivers/STM32F4xx_HAL_Driver/Src/stm32f4xx_hal_hcd.c ****     }   
 882:Drivers/STM32F4xx_HAL_Driver/Src/stm32f4xx_hal_hcd.c ****     
 883:Drivers/STM32F4xx_HAL_Driver/Src/stm32f4xx_hal_hcd.c ****     else if((hhcd->hc[chnum].state == HC_XACTERR) ||
 884:Drivers/STM32F4xx_HAL_Driver/Src/stm32f4xx_hal_hcd.c ****             (hhcd->hc[chnum].state == HC_DATATGLERR))
 885:Drivers/STM32F4xx_HAL_Driver/Src/stm32f4xx_hal_hcd.c ****     {
 886:Drivers/STM32F4xx_HAL_Driver/Src/stm32f4xx_hal_hcd.c ****       if(hhcd->hc[chnum].ErrCnt++ > 3U)
 887:Drivers/STM32F4xx_HAL_Driver/Src/stm32f4xx_hal_hcd.c ****       {      
ARM GAS  /var/folders/0d/93p3r6493yg7p0rvl_4r983m0000gn/T//cc4yon9B.s 			page 17


 888:Drivers/STM32F4xx_HAL_Driver/Src/stm32f4xx_hal_hcd.c ****         hhcd->hc[chnum].ErrCnt = 0U;
 889:Drivers/STM32F4xx_HAL_Driver/Src/stm32f4xx_hal_hcd.c ****         hhcd->hc[chnum].urb_state = URB_ERROR;
 890:Drivers/STM32F4xx_HAL_Driver/Src/stm32f4xx_hal_hcd.c ****       }
 891:Drivers/STM32F4xx_HAL_Driver/Src/stm32f4xx_hal_hcd.c ****       else
 892:Drivers/STM32F4xx_HAL_Driver/Src/stm32f4xx_hal_hcd.c ****       {
 893:Drivers/STM32F4xx_HAL_Driver/Src/stm32f4xx_hal_hcd.c ****         hhcd->hc[chnum].urb_state = URB_NOTREADY;
 894:Drivers/STM32F4xx_HAL_Driver/Src/stm32f4xx_hal_hcd.c ****       }
 895:Drivers/STM32F4xx_HAL_Driver/Src/stm32f4xx_hal_hcd.c ****       
 896:Drivers/STM32F4xx_HAL_Driver/Src/stm32f4xx_hal_hcd.c ****       /* re-activate the channel  */
 897:Drivers/STM32F4xx_HAL_Driver/Src/stm32f4xx_hal_hcd.c ****       tmpreg = USBx_HC(chnum)->HCCHAR;
 898:Drivers/STM32F4xx_HAL_Driver/Src/stm32f4xx_hal_hcd.c ****       tmpreg &= ~USB_OTG_HCCHAR_CHDIS;
 899:Drivers/STM32F4xx_HAL_Driver/Src/stm32f4xx_hal_hcd.c ****       tmpreg |= USB_OTG_HCCHAR_CHENA;
 900:Drivers/STM32F4xx_HAL_Driver/Src/stm32f4xx_hal_hcd.c ****       USBx_HC(chnum)->HCCHAR = tmpreg;
 901:Drivers/STM32F4xx_HAL_Driver/Src/stm32f4xx_hal_hcd.c ****     }
 902:Drivers/STM32F4xx_HAL_Driver/Src/stm32f4xx_hal_hcd.c ****     __HAL_HCD_CLEAR_HC_INT(chnum, USB_OTG_HCINT_CHH);
 903:Drivers/STM32F4xx_HAL_Driver/Src/stm32f4xx_hal_hcd.c ****     HAL_HCD_HC_NotifyURBChange_Callback(hhcd, chnum, hhcd->hc[chnum].urb_state);
 904:Drivers/STM32F4xx_HAL_Driver/Src/stm32f4xx_hal_hcd.c ****   }  
 905:Drivers/STM32F4xx_HAL_Driver/Src/stm32f4xx_hal_hcd.c ****   
 906:Drivers/STM32F4xx_HAL_Driver/Src/stm32f4xx_hal_hcd.c ****   else if ((USBx_HC(chnum)->HCINT) &  USB_OTG_HCINT_TXERR)
 907:Drivers/STM32F4xx_HAL_Driver/Src/stm32f4xx_hal_hcd.c ****   {
 908:Drivers/STM32F4xx_HAL_Driver/Src/stm32f4xx_hal_hcd.c ****     __HAL_HCD_UNMASK_HALT_HC_INT(chnum); 
 909:Drivers/STM32F4xx_HAL_Driver/Src/stm32f4xx_hal_hcd.c ****     hhcd->hc[chnum].ErrCnt++;
 910:Drivers/STM32F4xx_HAL_Driver/Src/stm32f4xx_hal_hcd.c ****     hhcd->hc[chnum].state = HC_XACTERR;
 911:Drivers/STM32F4xx_HAL_Driver/Src/stm32f4xx_hal_hcd.c ****     USB_HC_Halt(hhcd->Instance, chnum);     
 912:Drivers/STM32F4xx_HAL_Driver/Src/stm32f4xx_hal_hcd.c ****     __HAL_HCD_CLEAR_HC_INT(chnum, USB_OTG_HCINT_TXERR);
 913:Drivers/STM32F4xx_HAL_Driver/Src/stm32f4xx_hal_hcd.c ****   }
 914:Drivers/STM32F4xx_HAL_Driver/Src/stm32f4xx_hal_hcd.c ****   else if ((USBx_HC(chnum)->HCINT) &  USB_OTG_HCINT_NAK)
 915:Drivers/STM32F4xx_HAL_Driver/Src/stm32f4xx_hal_hcd.c ****   {  
 916:Drivers/STM32F4xx_HAL_Driver/Src/stm32f4xx_hal_hcd.c ****     if(hhcd->hc[chnum].ep_type == EP_TYPE_INTR)
 917:Drivers/STM32F4xx_HAL_Driver/Src/stm32f4xx_hal_hcd.c ****     {
 918:Drivers/STM32F4xx_HAL_Driver/Src/stm32f4xx_hal_hcd.c ****       __HAL_HCD_UNMASK_HALT_HC_INT(chnum); 
 919:Drivers/STM32F4xx_HAL_Driver/Src/stm32f4xx_hal_hcd.c ****       USB_HC_Halt(hhcd->Instance, chnum);  
 920:Drivers/STM32F4xx_HAL_Driver/Src/stm32f4xx_hal_hcd.c ****     }
 921:Drivers/STM32F4xx_HAL_Driver/Src/stm32f4xx_hal_hcd.c ****     
 922:Drivers/STM32F4xx_HAL_Driver/Src/stm32f4xx_hal_hcd.c ****      /* Clear the NAK flag before re-enabling the channel for new IN request */
 923:Drivers/STM32F4xx_HAL_Driver/Src/stm32f4xx_hal_hcd.c ****     hhcd->hc[chnum].state = HC_NAK;
 924:Drivers/STM32F4xx_HAL_Driver/Src/stm32f4xx_hal_hcd.c ****     __HAL_HCD_CLEAR_HC_INT(chnum, USB_OTG_HCINT_NAK);
 925:Drivers/STM32F4xx_HAL_Driver/Src/stm32f4xx_hal_hcd.c ****     
 926:Drivers/STM32F4xx_HAL_Driver/Src/stm32f4xx_hal_hcd.c ****     if  ((hhcd->hc[chnum].ep_type == EP_TYPE_CTRL)||
 927:Drivers/STM32F4xx_HAL_Driver/Src/stm32f4xx_hal_hcd.c ****               (hhcd->hc[chnum].ep_type == EP_TYPE_BULK))
 928:Drivers/STM32F4xx_HAL_Driver/Src/stm32f4xx_hal_hcd.c ****     {
 929:Drivers/STM32F4xx_HAL_Driver/Src/stm32f4xx_hal_hcd.c ****       /* re-activate the channel */
 930:Drivers/STM32F4xx_HAL_Driver/Src/stm32f4xx_hal_hcd.c ****       tmpreg = USBx_HC(chnum)->HCCHAR;
 931:Drivers/STM32F4xx_HAL_Driver/Src/stm32f4xx_hal_hcd.c ****       tmpreg &= ~USB_OTG_HCCHAR_CHDIS;
 932:Drivers/STM32F4xx_HAL_Driver/Src/stm32f4xx_hal_hcd.c ****       tmpreg |= USB_OTG_HCCHAR_CHENA;
 933:Drivers/STM32F4xx_HAL_Driver/Src/stm32f4xx_hal_hcd.c ****       USBx_HC(chnum)->HCCHAR = tmpreg;
 934:Drivers/STM32F4xx_HAL_Driver/Src/stm32f4xx_hal_hcd.c ****     }
 935:Drivers/STM32F4xx_HAL_Driver/Src/stm32f4xx_hal_hcd.c ****   }
 936:Drivers/STM32F4xx_HAL_Driver/Src/stm32f4xx_hal_hcd.c **** }
 937:Drivers/STM32F4xx_HAL_Driver/Src/stm32f4xx_hal_hcd.c **** 
 938:Drivers/STM32F4xx_HAL_Driver/Src/stm32f4xx_hal_hcd.c **** /**
 939:Drivers/STM32F4xx_HAL_Driver/Src/stm32f4xx_hal_hcd.c ****   * @brief  Handle Host Channel OUT interrupt requests.
 940:Drivers/STM32F4xx_HAL_Driver/Src/stm32f4xx_hal_hcd.c ****   * @param  hhcd HCD handle
 941:Drivers/STM32F4xx_HAL_Driver/Src/stm32f4xx_hal_hcd.c ****   * @param  chnum Channel number.
 942:Drivers/STM32F4xx_HAL_Driver/Src/stm32f4xx_hal_hcd.c ****   *         This parameter can be a value from 1 to 15
 943:Drivers/STM32F4xx_HAL_Driver/Src/stm32f4xx_hal_hcd.c ****   * @retval None
 944:Drivers/STM32F4xx_HAL_Driver/Src/stm32f4xx_hal_hcd.c ****   */
ARM GAS  /var/folders/0d/93p3r6493yg7p0rvl_4r983m0000gn/T//cc4yon9B.s 			page 18


 945:Drivers/STM32F4xx_HAL_Driver/Src/stm32f4xx_hal_hcd.c **** static void HCD_HC_OUT_IRQHandler  (HCD_HandleTypeDef *hhcd, uint8_t chnum)
 946:Drivers/STM32F4xx_HAL_Driver/Src/stm32f4xx_hal_hcd.c **** {
 947:Drivers/STM32F4xx_HAL_Driver/Src/stm32f4xx_hal_hcd.c ****   USB_OTG_GlobalTypeDef *USBx = hhcd->Instance;
 948:Drivers/STM32F4xx_HAL_Driver/Src/stm32f4xx_hal_hcd.c ****   
 949:Drivers/STM32F4xx_HAL_Driver/Src/stm32f4xx_hal_hcd.c ****   if ((USBx_HC(chnum)->HCINT) &  USB_OTG_HCINT_AHBERR)
 950:Drivers/STM32F4xx_HAL_Driver/Src/stm32f4xx_hal_hcd.c ****   {
 951:Drivers/STM32F4xx_HAL_Driver/Src/stm32f4xx_hal_hcd.c ****     __HAL_HCD_CLEAR_HC_INT(chnum, USB_OTG_HCINT_AHBERR);
 952:Drivers/STM32F4xx_HAL_Driver/Src/stm32f4xx_hal_hcd.c ****     __HAL_HCD_UNMASK_HALT_HC_INT(chnum);
 953:Drivers/STM32F4xx_HAL_Driver/Src/stm32f4xx_hal_hcd.c ****   }  
 954:Drivers/STM32F4xx_HAL_Driver/Src/stm32f4xx_hal_hcd.c ****   else if ((USBx_HC(chnum)->HCINT) &  USB_OTG_HCINT_ACK)
 955:Drivers/STM32F4xx_HAL_Driver/Src/stm32f4xx_hal_hcd.c ****   {
 956:Drivers/STM32F4xx_HAL_Driver/Src/stm32f4xx_hal_hcd.c ****     __HAL_HCD_CLEAR_HC_INT(chnum, USB_OTG_HCINT_ACK);
 957:Drivers/STM32F4xx_HAL_Driver/Src/stm32f4xx_hal_hcd.c ****     
 958:Drivers/STM32F4xx_HAL_Driver/Src/stm32f4xx_hal_hcd.c ****     if( hhcd->hc[chnum].do_ping == 1U)
 959:Drivers/STM32F4xx_HAL_Driver/Src/stm32f4xx_hal_hcd.c ****     {
 960:Drivers/STM32F4xx_HAL_Driver/Src/stm32f4xx_hal_hcd.c ****       hhcd->hc[chnum].state = HC_NYET;     
 961:Drivers/STM32F4xx_HAL_Driver/Src/stm32f4xx_hal_hcd.c ****       __HAL_HCD_UNMASK_HALT_HC_INT(chnum); 
 962:Drivers/STM32F4xx_HAL_Driver/Src/stm32f4xx_hal_hcd.c ****       USB_HC_Halt(hhcd->Instance, chnum); 
 963:Drivers/STM32F4xx_HAL_Driver/Src/stm32f4xx_hal_hcd.c ****       hhcd->hc[chnum].urb_state  = URB_NOTREADY;
 964:Drivers/STM32F4xx_HAL_Driver/Src/stm32f4xx_hal_hcd.c ****     }
 965:Drivers/STM32F4xx_HAL_Driver/Src/stm32f4xx_hal_hcd.c ****   }
 966:Drivers/STM32F4xx_HAL_Driver/Src/stm32f4xx_hal_hcd.c ****   
 967:Drivers/STM32F4xx_HAL_Driver/Src/stm32f4xx_hal_hcd.c ****   else if ((USBx_HC(chnum)->HCINT) &  USB_OTG_HCINT_NYET)
 968:Drivers/STM32F4xx_HAL_Driver/Src/stm32f4xx_hal_hcd.c ****   {
 969:Drivers/STM32F4xx_HAL_Driver/Src/stm32f4xx_hal_hcd.c ****     hhcd->hc[chnum].state = HC_NYET;
 970:Drivers/STM32F4xx_HAL_Driver/Src/stm32f4xx_hal_hcd.c ****     hhcd->hc[chnum].ErrCnt= 0U;    
 971:Drivers/STM32F4xx_HAL_Driver/Src/stm32f4xx_hal_hcd.c ****     __HAL_HCD_UNMASK_HALT_HC_INT(chnum); 
 972:Drivers/STM32F4xx_HAL_Driver/Src/stm32f4xx_hal_hcd.c ****     USB_HC_Halt(hhcd->Instance, chnum);      
 973:Drivers/STM32F4xx_HAL_Driver/Src/stm32f4xx_hal_hcd.c ****     __HAL_HCD_CLEAR_HC_INT(chnum, USB_OTG_HCINT_NYET);
 974:Drivers/STM32F4xx_HAL_Driver/Src/stm32f4xx_hal_hcd.c ****     
 975:Drivers/STM32F4xx_HAL_Driver/Src/stm32f4xx_hal_hcd.c ****   }  
 976:Drivers/STM32F4xx_HAL_Driver/Src/stm32f4xx_hal_hcd.c ****   
 977:Drivers/STM32F4xx_HAL_Driver/Src/stm32f4xx_hal_hcd.c ****   else if ((USBx_HC(chnum)->HCINT) &  USB_OTG_HCINT_FRMOR)
 978:Drivers/STM32F4xx_HAL_Driver/Src/stm32f4xx_hal_hcd.c ****   {
 979:Drivers/STM32F4xx_HAL_Driver/Src/stm32f4xx_hal_hcd.c ****     __HAL_HCD_UNMASK_HALT_HC_INT(chnum); 
 980:Drivers/STM32F4xx_HAL_Driver/Src/stm32f4xx_hal_hcd.c ****     USB_HC_Halt(hhcd->Instance, chnum);  
 981:Drivers/STM32F4xx_HAL_Driver/Src/stm32f4xx_hal_hcd.c ****     __HAL_HCD_CLEAR_HC_INT(chnum, USB_OTG_HCINT_FRMOR);
 982:Drivers/STM32F4xx_HAL_Driver/Src/stm32f4xx_hal_hcd.c ****   }
 983:Drivers/STM32F4xx_HAL_Driver/Src/stm32f4xx_hal_hcd.c ****   
 984:Drivers/STM32F4xx_HAL_Driver/Src/stm32f4xx_hal_hcd.c ****   else if ((USBx_HC(chnum)->HCINT) &  USB_OTG_HCINT_XFRC)
 985:Drivers/STM32F4xx_HAL_Driver/Src/stm32f4xx_hal_hcd.c ****   {
 986:Drivers/STM32F4xx_HAL_Driver/Src/stm32f4xx_hal_hcd.c ****       hhcd->hc[chnum].ErrCnt = 0U;  
 987:Drivers/STM32F4xx_HAL_Driver/Src/stm32f4xx_hal_hcd.c ****     __HAL_HCD_UNMASK_HALT_HC_INT(chnum);
 988:Drivers/STM32F4xx_HAL_Driver/Src/stm32f4xx_hal_hcd.c ****     USB_HC_Halt(hhcd->Instance, chnum);   
 989:Drivers/STM32F4xx_HAL_Driver/Src/stm32f4xx_hal_hcd.c ****     __HAL_HCD_CLEAR_HC_INT(chnum, USB_OTG_HCINT_XFRC);
 990:Drivers/STM32F4xx_HAL_Driver/Src/stm32f4xx_hal_hcd.c ****     hhcd->hc[chnum].state = HC_XFRC;
 991:Drivers/STM32F4xx_HAL_Driver/Src/stm32f4xx_hal_hcd.c **** 
 992:Drivers/STM32F4xx_HAL_Driver/Src/stm32f4xx_hal_hcd.c ****   }  
 993:Drivers/STM32F4xx_HAL_Driver/Src/stm32f4xx_hal_hcd.c **** 
 994:Drivers/STM32F4xx_HAL_Driver/Src/stm32f4xx_hal_hcd.c ****   else if ((USBx_HC(chnum)->HCINT) &  USB_OTG_HCINT_STALL)  
 995:Drivers/STM32F4xx_HAL_Driver/Src/stm32f4xx_hal_hcd.c ****   {
 996:Drivers/STM32F4xx_HAL_Driver/Src/stm32f4xx_hal_hcd.c ****     __HAL_HCD_CLEAR_HC_INT(chnum, USB_OTG_HCINT_STALL);  
 997:Drivers/STM32F4xx_HAL_Driver/Src/stm32f4xx_hal_hcd.c ****     __HAL_HCD_UNMASK_HALT_HC_INT(chnum);
 998:Drivers/STM32F4xx_HAL_Driver/Src/stm32f4xx_hal_hcd.c ****     USB_HC_Halt(hhcd->Instance, chnum);   
 999:Drivers/STM32F4xx_HAL_Driver/Src/stm32f4xx_hal_hcd.c ****     hhcd->hc[chnum].state = HC_STALL;    
1000:Drivers/STM32F4xx_HAL_Driver/Src/stm32f4xx_hal_hcd.c ****   }
1001:Drivers/STM32F4xx_HAL_Driver/Src/stm32f4xx_hal_hcd.c **** 
ARM GAS  /var/folders/0d/93p3r6493yg7p0rvl_4r983m0000gn/T//cc4yon9B.s 			page 19


1002:Drivers/STM32F4xx_HAL_Driver/Src/stm32f4xx_hal_hcd.c ****   else if ((USBx_HC(chnum)->HCINT) &  USB_OTG_HCINT_NAK)
1003:Drivers/STM32F4xx_HAL_Driver/Src/stm32f4xx_hal_hcd.c ****   {  
1004:Drivers/STM32F4xx_HAL_Driver/Src/stm32f4xx_hal_hcd.c ****     hhcd->hc[chnum].ErrCnt = 0U;  
1005:Drivers/STM32F4xx_HAL_Driver/Src/stm32f4xx_hal_hcd.c ****     __HAL_HCD_UNMASK_HALT_HC_INT(chnum); 
1006:Drivers/STM32F4xx_HAL_Driver/Src/stm32f4xx_hal_hcd.c ****     USB_HC_Halt(hhcd->Instance, chnum);   
1007:Drivers/STM32F4xx_HAL_Driver/Src/stm32f4xx_hal_hcd.c ****     hhcd->hc[chnum].state = HC_NAK;
1008:Drivers/STM32F4xx_HAL_Driver/Src/stm32f4xx_hal_hcd.c ****     __HAL_HCD_CLEAR_HC_INT(chnum, USB_OTG_HCINT_NAK);
1009:Drivers/STM32F4xx_HAL_Driver/Src/stm32f4xx_hal_hcd.c ****   }
1010:Drivers/STM32F4xx_HAL_Driver/Src/stm32f4xx_hal_hcd.c **** 
1011:Drivers/STM32F4xx_HAL_Driver/Src/stm32f4xx_hal_hcd.c ****   else if ((USBx_HC(chnum)->HCINT) &  USB_OTG_HCINT_TXERR)
1012:Drivers/STM32F4xx_HAL_Driver/Src/stm32f4xx_hal_hcd.c ****   {
1013:Drivers/STM32F4xx_HAL_Driver/Src/stm32f4xx_hal_hcd.c ****     __HAL_HCD_UNMASK_HALT_HC_INT(chnum); 
1014:Drivers/STM32F4xx_HAL_Driver/Src/stm32f4xx_hal_hcd.c ****     USB_HC_Halt(hhcd->Instance, chnum);      
1015:Drivers/STM32F4xx_HAL_Driver/Src/stm32f4xx_hal_hcd.c ****     hhcd->hc[chnum].state = HC_XACTERR;  
1016:Drivers/STM32F4xx_HAL_Driver/Src/stm32f4xx_hal_hcd.c ****      __HAL_HCD_CLEAR_HC_INT(chnum, USB_OTG_HCINT_TXERR);
1017:Drivers/STM32F4xx_HAL_Driver/Src/stm32f4xx_hal_hcd.c ****   }
1018:Drivers/STM32F4xx_HAL_Driver/Src/stm32f4xx_hal_hcd.c ****   
1019:Drivers/STM32F4xx_HAL_Driver/Src/stm32f4xx_hal_hcd.c ****   else if ((USBx_HC(chnum)->HCINT) &  USB_OTG_HCINT_DTERR)
1020:Drivers/STM32F4xx_HAL_Driver/Src/stm32f4xx_hal_hcd.c ****   {
1021:Drivers/STM32F4xx_HAL_Driver/Src/stm32f4xx_hal_hcd.c ****     __HAL_HCD_UNMASK_HALT_HC_INT(chnum); 
1022:Drivers/STM32F4xx_HAL_Driver/Src/stm32f4xx_hal_hcd.c ****     USB_HC_Halt(hhcd->Instance, chnum);      
1023:Drivers/STM32F4xx_HAL_Driver/Src/stm32f4xx_hal_hcd.c ****     __HAL_HCD_CLEAR_HC_INT(chnum, USB_OTG_HCINT_NAK);
1024:Drivers/STM32F4xx_HAL_Driver/Src/stm32f4xx_hal_hcd.c ****     __HAL_HCD_CLEAR_HC_INT(chnum, USB_OTG_HCINT_DTERR);    
1025:Drivers/STM32F4xx_HAL_Driver/Src/stm32f4xx_hal_hcd.c ****     hhcd->hc[chnum].state = HC_DATATGLERR;
1026:Drivers/STM32F4xx_HAL_Driver/Src/stm32f4xx_hal_hcd.c ****   }
1027:Drivers/STM32F4xx_HAL_Driver/Src/stm32f4xx_hal_hcd.c ****   
1028:Drivers/STM32F4xx_HAL_Driver/Src/stm32f4xx_hal_hcd.c ****   
1029:Drivers/STM32F4xx_HAL_Driver/Src/stm32f4xx_hal_hcd.c ****   else if ((USBx_HC(chnum)->HCINT) &  USB_OTG_HCINT_CHH)
1030:Drivers/STM32F4xx_HAL_Driver/Src/stm32f4xx_hal_hcd.c ****   {
1031:Drivers/STM32F4xx_HAL_Driver/Src/stm32f4xx_hal_hcd.c ****     __HAL_HCD_MASK_HALT_HC_INT(chnum); 
1032:Drivers/STM32F4xx_HAL_Driver/Src/stm32f4xx_hal_hcd.c ****     
1033:Drivers/STM32F4xx_HAL_Driver/Src/stm32f4xx_hal_hcd.c ****     if(hhcd->hc[chnum].state == HC_XFRC)
1034:Drivers/STM32F4xx_HAL_Driver/Src/stm32f4xx_hal_hcd.c ****     {
1035:Drivers/STM32F4xx_HAL_Driver/Src/stm32f4xx_hal_hcd.c ****       hhcd->hc[chnum].urb_state  = URB_DONE;
1036:Drivers/STM32F4xx_HAL_Driver/Src/stm32f4xx_hal_hcd.c ****       if (hhcd->hc[chnum].ep_type == EP_TYPE_BULK)
1037:Drivers/STM32F4xx_HAL_Driver/Src/stm32f4xx_hal_hcd.c ****       {
1038:Drivers/STM32F4xx_HAL_Driver/Src/stm32f4xx_hal_hcd.c ****         hhcd->hc[chnum].toggle_out ^= 1U; 
1039:Drivers/STM32F4xx_HAL_Driver/Src/stm32f4xx_hal_hcd.c ****       }      
1040:Drivers/STM32F4xx_HAL_Driver/Src/stm32f4xx_hal_hcd.c ****     }
1041:Drivers/STM32F4xx_HAL_Driver/Src/stm32f4xx_hal_hcd.c ****     else if (hhcd->hc[chnum].state == HC_NAK) 
1042:Drivers/STM32F4xx_HAL_Driver/Src/stm32f4xx_hal_hcd.c ****     {
1043:Drivers/STM32F4xx_HAL_Driver/Src/stm32f4xx_hal_hcd.c ****       hhcd->hc[chnum].urb_state  = URB_NOTREADY;
1044:Drivers/STM32F4xx_HAL_Driver/Src/stm32f4xx_hal_hcd.c ****     }  
1045:Drivers/STM32F4xx_HAL_Driver/Src/stm32f4xx_hal_hcd.c ****     
1046:Drivers/STM32F4xx_HAL_Driver/Src/stm32f4xx_hal_hcd.c ****     else if (hhcd->hc[chnum].state == HC_NYET) 
1047:Drivers/STM32F4xx_HAL_Driver/Src/stm32f4xx_hal_hcd.c ****     {
1048:Drivers/STM32F4xx_HAL_Driver/Src/stm32f4xx_hal_hcd.c ****       hhcd->hc[chnum].urb_state  = URB_NOTREADY;
1049:Drivers/STM32F4xx_HAL_Driver/Src/stm32f4xx_hal_hcd.c ****       hhcd->hc[chnum].do_ping = 0U;
1050:Drivers/STM32F4xx_HAL_Driver/Src/stm32f4xx_hal_hcd.c ****     }   
1051:Drivers/STM32F4xx_HAL_Driver/Src/stm32f4xx_hal_hcd.c ****     
1052:Drivers/STM32F4xx_HAL_Driver/Src/stm32f4xx_hal_hcd.c ****     else if (hhcd->hc[chnum].state == HC_STALL) 
1053:Drivers/STM32F4xx_HAL_Driver/Src/stm32f4xx_hal_hcd.c ****     {
1054:Drivers/STM32F4xx_HAL_Driver/Src/stm32f4xx_hal_hcd.c ****       hhcd->hc[chnum].urb_state  = URB_STALL;
1055:Drivers/STM32F4xx_HAL_Driver/Src/stm32f4xx_hal_hcd.c ****     } 
1056:Drivers/STM32F4xx_HAL_Driver/Src/stm32f4xx_hal_hcd.c ****     
1057:Drivers/STM32F4xx_HAL_Driver/Src/stm32f4xx_hal_hcd.c ****     else if((hhcd->hc[chnum].state == HC_XACTERR) ||
1058:Drivers/STM32F4xx_HAL_Driver/Src/stm32f4xx_hal_hcd.c ****             (hhcd->hc[chnum].state == HC_DATATGLERR))
ARM GAS  /var/folders/0d/93p3r6493yg7p0rvl_4r983m0000gn/T//cc4yon9B.s 			page 20


1059:Drivers/STM32F4xx_HAL_Driver/Src/stm32f4xx_hal_hcd.c ****     {
1060:Drivers/STM32F4xx_HAL_Driver/Src/stm32f4xx_hal_hcd.c ****       if(hhcd->hc[chnum].ErrCnt++ > 3U)
1061:Drivers/STM32F4xx_HAL_Driver/Src/stm32f4xx_hal_hcd.c ****       {      
1062:Drivers/STM32F4xx_HAL_Driver/Src/stm32f4xx_hal_hcd.c ****         hhcd->hc[chnum].ErrCnt = 0U;
1063:Drivers/STM32F4xx_HAL_Driver/Src/stm32f4xx_hal_hcd.c ****         hhcd->hc[chnum].urb_state = URB_ERROR;
1064:Drivers/STM32F4xx_HAL_Driver/Src/stm32f4xx_hal_hcd.c ****       }
1065:Drivers/STM32F4xx_HAL_Driver/Src/stm32f4xx_hal_hcd.c ****       else
1066:Drivers/STM32F4xx_HAL_Driver/Src/stm32f4xx_hal_hcd.c ****       {
1067:Drivers/STM32F4xx_HAL_Driver/Src/stm32f4xx_hal_hcd.c ****         hhcd->hc[chnum].urb_state = URB_NOTREADY;
1068:Drivers/STM32F4xx_HAL_Driver/Src/stm32f4xx_hal_hcd.c ****       }
1069:Drivers/STM32F4xx_HAL_Driver/Src/stm32f4xx_hal_hcd.c ****     }
1070:Drivers/STM32F4xx_HAL_Driver/Src/stm32f4xx_hal_hcd.c ****     
1071:Drivers/STM32F4xx_HAL_Driver/Src/stm32f4xx_hal_hcd.c ****     __HAL_HCD_CLEAR_HC_INT(chnum, USB_OTG_HCINT_CHH);
1072:Drivers/STM32F4xx_HAL_Driver/Src/stm32f4xx_hal_hcd.c ****     HAL_HCD_HC_NotifyURBChange_Callback(hhcd, chnum, hhcd->hc[chnum].urb_state);  
1073:Drivers/STM32F4xx_HAL_Driver/Src/stm32f4xx_hal_hcd.c ****   }
1074:Drivers/STM32F4xx_HAL_Driver/Src/stm32f4xx_hal_hcd.c **** } 
1075:Drivers/STM32F4xx_HAL_Driver/Src/stm32f4xx_hal_hcd.c **** 
1076:Drivers/STM32F4xx_HAL_Driver/Src/stm32f4xx_hal_hcd.c **** /**
1077:Drivers/STM32F4xx_HAL_Driver/Src/stm32f4xx_hal_hcd.c ****   * @brief  Handle Rx Queue Level interrupt requests.
1078:Drivers/STM32F4xx_HAL_Driver/Src/stm32f4xx_hal_hcd.c ****   * @param  hhcd HCD handle
1079:Drivers/STM32F4xx_HAL_Driver/Src/stm32f4xx_hal_hcd.c ****   * @retval None
1080:Drivers/STM32F4xx_HAL_Driver/Src/stm32f4xx_hal_hcd.c ****   */
1081:Drivers/STM32F4xx_HAL_Driver/Src/stm32f4xx_hal_hcd.c **** static void HCD_RXQLVL_IRQHandler(HCD_HandleTypeDef *hhcd)
1082:Drivers/STM32F4xx_HAL_Driver/Src/stm32f4xx_hal_hcd.c **** {
  27              		.loc 1 1082 0
  28              		.cfi_startproc
  29              		@ args = 0, pretend = 0, frame = 0
  30              		@ frame_needed = 0, uses_anonymous_args = 0
  31              	.LVL0:
  32 0000 F8B5     		push	{r3, r4, r5, r6, r7, lr}
  33              	.LCFI0:
  34              		.cfi_def_cfa_offset 24
  35              		.cfi_offset 3, -24
  36              		.cfi_offset 4, -20
  37              		.cfi_offset 5, -16
  38              		.cfi_offset 6, -12
  39              		.cfi_offset 7, -8
  40              		.cfi_offset 14, -4
1083:Drivers/STM32F4xx_HAL_Driver/Src/stm32f4xx_hal_hcd.c ****   USB_OTG_GlobalTypeDef *USBx = hhcd->Instance;  
  41              		.loc 1 1083 0
  42 0002 0668     		ldr	r6, [r0]
  43              	.LVL1:
1084:Drivers/STM32F4xx_HAL_Driver/Src/stm32f4xx_hal_hcd.c ****   uint8_t  channelnum = 0;  
1085:Drivers/STM32F4xx_HAL_Driver/Src/stm32f4xx_hal_hcd.c ****   uint32_t pktsts;
1086:Drivers/STM32F4xx_HAL_Driver/Src/stm32f4xx_hal_hcd.c ****   uint32_t pktcnt; 
1087:Drivers/STM32F4xx_HAL_Driver/Src/stm32f4xx_hal_hcd.c ****   uint32_t temp = 0U;
1088:Drivers/STM32F4xx_HAL_Driver/Src/stm32f4xx_hal_hcd.c ****   uint32_t tmpreg = 0U;
1089:Drivers/STM32F4xx_HAL_Driver/Src/stm32f4xx_hal_hcd.c ****   
1090:Drivers/STM32F4xx_HAL_Driver/Src/stm32f4xx_hal_hcd.c ****   temp = hhcd->Instance->GRXSTSP;
  44              		.loc 1 1090 0
  45 0004 346A     		ldr	r4, [r6, #32]
  46              	.LVL2:
1091:Drivers/STM32F4xx_HAL_Driver/Src/stm32f4xx_hal_hcd.c ****   channelnum = temp &  USB_OTG_GRXSTSP_EPNUM;  
  47              		.loc 1 1091 0
  48 0006 04F00F07 		and	r7, r4, #15
  49              	.LVL3:
1092:Drivers/STM32F4xx_HAL_Driver/Src/stm32f4xx_hal_hcd.c ****   pktsts = (temp &  USB_OTG_GRXSTSP_PKTSTS) >> 17U;
ARM GAS  /var/folders/0d/93p3r6493yg7p0rvl_4r983m0000gn/T//cc4yon9B.s 			page 21


  50              		.loc 1 1092 0
  51 000a C4F34343 		ubfx	r3, r4, #17, #4
  52              	.LVL4:
1093:Drivers/STM32F4xx_HAL_Driver/Src/stm32f4xx_hal_hcd.c ****   pktcnt = (temp &  USB_OTG_GRXSTSP_BCNT) >> 4U;
  53              		.loc 1 1093 0
  54 000e C4F30A14 		ubfx	r4, r4, #4, #11
  55              	.LVL5:
1094:Drivers/STM32F4xx_HAL_Driver/Src/stm32f4xx_hal_hcd.c ****   
1095:Drivers/STM32F4xx_HAL_Driver/Src/stm32f4xx_hal_hcd.c ****   switch (pktsts)
  56              		.loc 1 1095 0
  57 0012 022B     		cmp	r3, #2
  58 0014 2ED1     		bne	.L1
1096:Drivers/STM32F4xx_HAL_Driver/Src/stm32f4xx_hal_hcd.c ****   {
1097:Drivers/STM32F4xx_HAL_Driver/Src/stm32f4xx_hal_hcd.c ****   case GRXSTS_PKTSTS_IN:
1098:Drivers/STM32F4xx_HAL_Driver/Src/stm32f4xx_hal_hcd.c ****     /* Read the data into the host buffer. */
1099:Drivers/STM32F4xx_HAL_Driver/Src/stm32f4xx_hal_hcd.c ****     if ((pktcnt > 0U) && (hhcd->hc[channelnum].xfer_buff != (void  *)0))
  59              		.loc 1 1099 0
  60 0016 6CB3     		cbz	r4, .L1
  61              		.loc 1 1099 0 is_stmt 0 discriminator 1
  62 0018 07EB8702 		add	r2, r7, r7, lsl #2
  63 001c D300     		lsls	r3, r2, #3
  64              	.LVL6:
  65 001e 0344     		add	r3, r3, r0
  66 0020 596C     		ldr	r1, [r3, #68]
  67 0022 39B3     		cbz	r1, .L1
  68 0024 0546     		mov	r5, r0
1100:Drivers/STM32F4xx_HAL_Driver/Src/stm32f4xx_hal_hcd.c ****     {  
1101:Drivers/STM32F4xx_HAL_Driver/Src/stm32f4xx_hal_hcd.c ****       
1102:Drivers/STM32F4xx_HAL_Driver/Src/stm32f4xx_hal_hcd.c ****       USB_ReadPacket(hhcd->Instance, hhcd->hc[channelnum].xfer_buff, pktcnt);
  69              		.loc 1 1102 0 is_stmt 1
  70 0026 2246     		mov	r2, r4
  71 0028 3046     		mov	r0, r6
  72              	.LVL7:
  73 002a FFF7FEFF 		bl	USB_ReadPacket
  74              	.LVL8:
1103:Drivers/STM32F4xx_HAL_Driver/Src/stm32f4xx_hal_hcd.c ****       
1104:Drivers/STM32F4xx_HAL_Driver/Src/stm32f4xx_hal_hcd.c ****       /*manage multiple Xfer */
1105:Drivers/STM32F4xx_HAL_Driver/Src/stm32f4xx_hal_hcd.c ****       hhcd->hc[channelnum].xfer_buff += pktcnt;           
  75              		.loc 1 1105 0
  76 002e BA00     		lsls	r2, r7, #2
  77 0030 3A44     		add	r2, r2, r7
  78 0032 D300     		lsls	r3, r2, #3
  79 0034 2B44     		add	r3, r3, r5
  80 0036 5A6C     		ldr	r2, [r3, #68]
  81 0038 2244     		add	r2, r2, r4
  82 003a 5A64     		str	r2, [r3, #68]
1106:Drivers/STM32F4xx_HAL_Driver/Src/stm32f4xx_hal_hcd.c ****       hhcd->hc[channelnum].xfer_count  += pktcnt;
  83              		.loc 1 1106 0
  84 003c DA6C     		ldr	r2, [r3, #76]
  85 003e 2244     		add	r2, r2, r4
  86 0040 DA64     		str	r2, [r3, #76]
1107:Drivers/STM32F4xx_HAL_Driver/Src/stm32f4xx_hal_hcd.c ****       
1108:Drivers/STM32F4xx_HAL_Driver/Src/stm32f4xx_hal_hcd.c ****       if((USBx_HC(channelnum)->HCTSIZ & USB_OTG_HCTSIZ_PKTCNT) > 0)
  87              		.loc 1 1108 0
  88 0042 06EB4713 		add	r3, r6, r7, lsl #5
  89 0046 D3F81015 		ldr	r1, [r3, #1296]
  90 004a 0B4A     		ldr	r2, .L5
ARM GAS  /var/folders/0d/93p3r6493yg7p0rvl_4r983m0000gn/T//cc4yon9B.s 			page 22


  91 004c 0A40     		ands	r2, r2, r1
  92 004e 8AB1     		cbz	r2, .L1
1109:Drivers/STM32F4xx_HAL_Driver/Src/stm32f4xx_hal_hcd.c ****       {
1110:Drivers/STM32F4xx_HAL_Driver/Src/stm32f4xx_hal_hcd.c ****         /* re-activate the channel when more packets are expected */
1111:Drivers/STM32F4xx_HAL_Driver/Src/stm32f4xx_hal_hcd.c ****         tmpreg = USBx_HC(channelnum)->HCCHAR;
  93              		.loc 1 1111 0
  94 0050 D3F80025 		ldr	r2, [r3, #1280]
  95              	.LVL9:
1112:Drivers/STM32F4xx_HAL_Driver/Src/stm32f4xx_hal_hcd.c ****         tmpreg &= ~USB_OTG_HCCHAR_CHDIS;
  96              		.loc 1 1112 0
  97 0054 22F08042 		bic	r2, r2, #1073741824
  98              	.LVL10:
1113:Drivers/STM32F4xx_HAL_Driver/Src/stm32f4xx_hal_hcd.c ****         tmpreg |= USB_OTG_HCCHAR_CHENA;
  99              		.loc 1 1113 0
 100 0058 42F00042 		orr	r2, r2, #-2147483648
 101              	.LVL11:
1114:Drivers/STM32F4xx_HAL_Driver/Src/stm32f4xx_hal_hcd.c ****         USBx_HC(channelnum)->HCCHAR = tmpreg;
 102              		.loc 1 1114 0
 103 005c C3F80025 		str	r2, [r3, #1280]
1115:Drivers/STM32F4xx_HAL_Driver/Src/stm32f4xx_hal_hcd.c ****         hhcd->hc[channelnum].toggle_in ^= 1;
 104              		.loc 1 1115 0
 105 0060 BB00     		lsls	r3, r7, #2
 106 0062 D919     		adds	r1, r3, r7
 107 0064 CA00     		lsls	r2, r1, #3
 108              	.LVL12:
 109 0066 2A44     		add	r2, r2, r5
 110 0068 92F85030 		ldrb	r3, [r2, #80]	@ zero_extendqisi2
 111 006c 83F00103 		eor	r3, r3, #1
 112 0070 82F85030 		strb	r3, [r2, #80]
 113              	.LVL13:
 114              	.L1:
1116:Drivers/STM32F4xx_HAL_Driver/Src/stm32f4xx_hal_hcd.c ****       }
1117:Drivers/STM32F4xx_HAL_Driver/Src/stm32f4xx_hal_hcd.c ****     }
1118:Drivers/STM32F4xx_HAL_Driver/Src/stm32f4xx_hal_hcd.c ****     break;
1119:Drivers/STM32F4xx_HAL_Driver/Src/stm32f4xx_hal_hcd.c ****     
1120:Drivers/STM32F4xx_HAL_Driver/Src/stm32f4xx_hal_hcd.c ****   case GRXSTS_PKTSTS_DATA_TOGGLE_ERR:
1121:Drivers/STM32F4xx_HAL_Driver/Src/stm32f4xx_hal_hcd.c ****     break;
1122:Drivers/STM32F4xx_HAL_Driver/Src/stm32f4xx_hal_hcd.c ****   case GRXSTS_PKTSTS_IN_XFER_COMP:
1123:Drivers/STM32F4xx_HAL_Driver/Src/stm32f4xx_hal_hcd.c ****   case GRXSTS_PKTSTS_CH_HALTED:
1124:Drivers/STM32F4xx_HAL_Driver/Src/stm32f4xx_hal_hcd.c ****   default:
1125:Drivers/STM32F4xx_HAL_Driver/Src/stm32f4xx_hal_hcd.c ****     break;
1126:Drivers/STM32F4xx_HAL_Driver/Src/stm32f4xx_hal_hcd.c ****   }
1127:Drivers/STM32F4xx_HAL_Driver/Src/stm32f4xx_hal_hcd.c **** }
 115              		.loc 1 1127 0
 116 0074 F8BD     		pop	{r3, r4, r5, r6, r7, pc}
 117              	.LVL14:
 118              	.L6:
 119 0076 00BF     		.align	2
 120              	.L5:
 121 0078 0000F81F 		.word	536346624
 122              		.cfi_endproc
 123              	.LFE149:
 125              		.section	.text.HAL_HCD_HC_Init,"ax",%progbits
 126              		.align	1
 127              		.global	HAL_HCD_HC_Init
 128              		.syntax unified
 129              		.thumb
ARM GAS  /var/folders/0d/93p3r6493yg7p0rvl_4r983m0000gn/T//cc4yon9B.s 			page 23


 130              		.thumb_func
 131              		.fpu fpv4-sp-d16
 133              	HAL_HCD_HC_Init:
 134              	.LFB127:
 193:Drivers/STM32F4xx_HAL_Driver/Src/stm32f4xx_hal_hcd.c ****   HAL_StatusTypeDef status = HAL_OK;
 135              		.loc 1 193 0
 136              		.cfi_startproc
 137              		@ args = 12, pretend = 0, frame = 0
 138              		@ frame_needed = 0, uses_anonymous_args = 0
 139              	.LVL15:
 140 0000 F0B5     		push	{r4, r5, r6, r7, lr}
 141              	.LCFI1:
 142              		.cfi_def_cfa_offset 20
 143              		.cfi_offset 4, -20
 144              		.cfi_offset 5, -16
 145              		.cfi_offset 6, -12
 146              		.cfi_offset 7, -8
 147              		.cfi_offset 14, -4
 148 0002 85B0     		sub	sp, sp, #20
 149              	.LCFI2:
 150              		.cfi_def_cfa_offset 40
 151 0004 9DF82860 		ldrb	r6, [sp, #40]	@ zero_extendqisi2
 152 0008 9DF82C70 		ldrb	r7, [sp, #44]	@ zero_extendqisi2
 153 000c BDF830C0 		ldrh	ip, [sp, #48]
 154              	.LVL16:
 196:Drivers/STM32F4xx_HAL_Driver/Src/stm32f4xx_hal_hcd.c ****   
 155              		.loc 1 196 0
 156 0010 90F89042 		ldrb	r4, [r0, #656]	@ zero_extendqisi2
 157 0014 012C     		cmp	r4, #1
 158 0016 2AD0     		beq	.L9
 159 0018 0546     		mov	r5, r0
 196:Drivers/STM32F4xx_HAL_Driver/Src/stm32f4xx_hal_hcd.c ****   
 160              		.loc 1 196 0 is_stmt 0 discriminator 2
 161 001a 0120     		movs	r0, #1
 162              	.LVL17:
 163 001c 85F89002 		strb	r0, [r5, #656]
 198:Drivers/STM32F4xx_HAL_Driver/Src/stm32f4xx_hal_hcd.c ****   hhcd->hc[ch_num].max_packet = mps;
 164              		.loc 1 198 0 is_stmt 1 discriminator 2
 165 0020 8800     		lsls	r0, r1, #2
 166 0022 00EB010E 		add	lr, r0, r1
 167 0026 4FEACE04 		lsl	r4, lr, #3
 168 002a 2C44     		add	r4, r4, r5
 169 002c 84F83830 		strb	r3, [r4, #56]
 199:Drivers/STM32F4xx_HAL_Driver/Src/stm32f4xx_hal_hcd.c ****   hhcd->hc[ch_num].ch_num = ch_num;
 170              		.loc 1 199 0 discriminator 2
 171 0030 A4F840C0 		strh	ip, [r4, #64]	@ movhi
 200:Drivers/STM32F4xx_HAL_Driver/Src/stm32f4xx_hal_hcd.c ****   hhcd->hc[ch_num].ep_type = ep_type;
 172              		.loc 1 200 0 discriminator 2
 173 0034 84F83910 		strb	r1, [r4, #57]
 201:Drivers/STM32F4xx_HAL_Driver/Src/stm32f4xx_hal_hcd.c ****   hhcd->hc[ch_num].ep_num = epnum & 0x7F;
 174              		.loc 1 201 0 discriminator 2
 175 0038 84F83F70 		strb	r7, [r4, #63]
 202:Drivers/STM32F4xx_HAL_Driver/Src/stm32f4xx_hal_hcd.c ****   hhcd->hc[ch_num].ep_is_in = ((epnum & 0x80) == 0x80);
 176              		.loc 1 202 0 discriminator 2
 177 003c 02F07F0E 		and	lr, r2, #127
 178 0040 84F83AE0 		strb	lr, [r4, #58]
 203:Drivers/STM32F4xx_HAL_Driver/Src/stm32f4xx_hal_hcd.c ****   hhcd->hc[ch_num].speed = speed;
ARM GAS  /var/folders/0d/93p3r6493yg7p0rvl_4r983m0000gn/T//cc4yon9B.s 			page 24


 179              		.loc 1 203 0 discriminator 2
 180 0044 4FEAD21E 		lsr	lr, r2, #7
 181 0048 84F83BE0 		strb	lr, [r4, #59]
 204:Drivers/STM32F4xx_HAL_Driver/Src/stm32f4xx_hal_hcd.c ****   
 182              		.loc 1 204 0 discriminator 2
 183 004c 0844     		add	r0, r0, r1
 184 004e C400     		lsls	r4, r0, #3
 185 0050 2C44     		add	r4, r4, r5
 186 0052 84F83C60 		strb	r6, [r4, #60]
 206:Drivers/STM32F4xx_HAL_Driver/Src/stm32f4xx_hal_hcd.c ****                         ch_num,
 187              		.loc 1 206 0 discriminator 2
 188 0056 CDF808C0 		str	ip, [sp, #8]
 189 005a 0197     		str	r7, [sp, #4]
 190 005c 0096     		str	r6, [sp]
 191 005e 2868     		ldr	r0, [r5]
 192 0060 FFF7FEFF 		bl	USB_HC_Init
 193              	.LVL18:
 213:Drivers/STM32F4xx_HAL_Driver/Src/stm32f4xx_hal_hcd.c ****   
 194              		.loc 1 213 0 discriminator 2
 195 0064 0023     		movs	r3, #0
 196 0066 85F89032 		strb	r3, [r5, #656]
 197              	.LVL19:
 198              	.L8:
 216:Drivers/STM32F4xx_HAL_Driver/Src/stm32f4xx_hal_hcd.c **** 
 199              		.loc 1 216 0
 200 006a 05B0     		add	sp, sp, #20
 201              	.LCFI3:
 202              		.cfi_remember_state
 203              		.cfi_def_cfa_offset 20
 204              		@ sp needed
 205 006c F0BD     		pop	{r4, r5, r6, r7, pc}
 206              	.LVL20:
 207              	.L9:
 208              	.LCFI4:
 209              		.cfi_restore_state
 196:Drivers/STM32F4xx_HAL_Driver/Src/stm32f4xx_hal_hcd.c ****   
 210              		.loc 1 196 0
 211 006e 0220     		movs	r0, #2
 212              	.LVL21:
 213 0070 FBE7     		b	.L8
 214              		.cfi_endproc
 215              	.LFE127:
 217              		.section	.text.HAL_HCD_HC_Halt,"ax",%progbits
 218              		.align	1
 219              		.global	HAL_HCD_HC_Halt
 220              		.syntax unified
 221              		.thumb
 222              		.thumb_func
 223              		.fpu fpv4-sp-d16
 225              	HAL_HCD_HC_Halt:
 226              	.LFB128:
 226:Drivers/STM32F4xx_HAL_Driver/Src/stm32f4xx_hal_hcd.c ****   HAL_StatusTypeDef status = HAL_OK;
 227              		.loc 1 226 0
 228              		.cfi_startproc
 229              		@ args = 0, pretend = 0, frame = 0
 230              		@ frame_needed = 0, uses_anonymous_args = 0
 231              	.LVL22:
ARM GAS  /var/folders/0d/93p3r6493yg7p0rvl_4r983m0000gn/T//cc4yon9B.s 			page 25


 229:Drivers/STM32F4xx_HAL_Driver/Src/stm32f4xx_hal_hcd.c ****   USB_HC_Halt(hhcd->Instance, ch_num);   
 232              		.loc 1 229 0
 233 0000 90F89032 		ldrb	r3, [r0, #656]	@ zero_extendqisi2
 234 0004 012B     		cmp	r3, #1
 235 0006 0BD0     		beq	.L13
 226:Drivers/STM32F4xx_HAL_Driver/Src/stm32f4xx_hal_hcd.c ****   HAL_StatusTypeDef status = HAL_OK;
 236              		.loc 1 226 0 discriminator 2
 237 0008 10B5     		push	{r4, lr}
 238              	.LCFI5:
 239              		.cfi_def_cfa_offset 8
 240              		.cfi_offset 4, -8
 241              		.cfi_offset 14, -4
 242 000a 0446     		mov	r4, r0
 229:Drivers/STM32F4xx_HAL_Driver/Src/stm32f4xx_hal_hcd.c ****   USB_HC_Halt(hhcd->Instance, ch_num);   
 243              		.loc 1 229 0 discriminator 2
 244 000c 0123     		movs	r3, #1
 245 000e 80F89032 		strb	r3, [r0, #656]
 230:Drivers/STM32F4xx_HAL_Driver/Src/stm32f4xx_hal_hcd.c ****   __HAL_UNLOCK(hhcd);
 246              		.loc 1 230 0 discriminator 2
 247 0012 0068     		ldr	r0, [r0]
 248              	.LVL23:
 249 0014 FFF7FEFF 		bl	USB_HC_Halt
 250              	.LVL24:
 231:Drivers/STM32F4xx_HAL_Driver/Src/stm32f4xx_hal_hcd.c ****   
 251              		.loc 1 231 0 discriminator 2
 252 0018 0020     		movs	r0, #0
 253 001a 84F89002 		strb	r0, [r4, #656]
 234:Drivers/STM32F4xx_HAL_Driver/Src/stm32f4xx_hal_hcd.c **** 
 254              		.loc 1 234 0 discriminator 2
 255 001e 10BD     		pop	{r4, pc}
 256              	.LVL25:
 257              	.L13:
 258              	.LCFI6:
 259              		.cfi_def_cfa_offset 0
 260              		.cfi_restore 4
 261              		.cfi_restore 14
 229:Drivers/STM32F4xx_HAL_Driver/Src/stm32f4xx_hal_hcd.c ****   USB_HC_Halt(hhcd->Instance, ch_num);   
 262              		.loc 1 229 0
 263 0020 0220     		movs	r0, #2
 264              	.LVL26:
 234:Drivers/STM32F4xx_HAL_Driver/Src/stm32f4xx_hal_hcd.c **** 
 265              		.loc 1 234 0
 266 0022 7047     		bx	lr
 267              		.cfi_endproc
 268              	.LFE128:
 270              		.section	.text.HAL_HCD_MspInit,"ax",%progbits
 271              		.align	1
 272              		.weak	HAL_HCD_MspInit
 273              		.syntax unified
 274              		.thumb
 275              		.thumb_func
 276              		.fpu fpv4-sp-d16
 278              	HAL_HCD_MspInit:
 279              	.LFB130:
 267:Drivers/STM32F4xx_HAL_Driver/Src/stm32f4xx_hal_hcd.c ****   /* Prevent unused argument(s) compilation warning */
 280              		.loc 1 267 0
 281              		.cfi_startproc
ARM GAS  /var/folders/0d/93p3r6493yg7p0rvl_4r983m0000gn/T//cc4yon9B.s 			page 26


 282              		@ args = 0, pretend = 0, frame = 0
 283              		@ frame_needed = 0, uses_anonymous_args = 0
 284              		@ link register save eliminated.
 285              	.LVL27:
 273:Drivers/STM32F4xx_HAL_Driver/Src/stm32f4xx_hal_hcd.c **** 
 286              		.loc 1 273 0
 287 0000 7047     		bx	lr
 288              		.cfi_endproc
 289              	.LFE130:
 291              		.section	.text.HAL_HCD_Init,"ax",%progbits
 292              		.align	1
 293              		.global	HAL_HCD_Init
 294              		.syntax unified
 295              		.thumb
 296              		.thumb_func
 297              		.fpu fpv4-sp-d16
 299              	HAL_HCD_Init:
 300              	.LFB126:
 130:Drivers/STM32F4xx_HAL_Driver/Src/stm32f4xx_hal_hcd.c ****   /* Check the HCD handle allocation */
 301              		.loc 1 130 0
 302              		.cfi_startproc
 303              		@ args = 0, pretend = 0, frame = 0
 304              		@ frame_needed = 0, uses_anonymous_args = 0
 305              	.LVL28:
 132:Drivers/STM32F4xx_HAL_Driver/Src/stm32f4xx_hal_hcd.c ****   {
 306              		.loc 1 132 0
 307 0000 0028     		cmp	r0, #0
 308 0002 37D0     		beq	.L21
 130:Drivers/STM32F4xx_HAL_Driver/Src/stm32f4xx_hal_hcd.c ****   /* Check the HCD handle allocation */
 309              		.loc 1 130 0
 310 0004 F0B5     		push	{r4, r5, r6, r7, lr}
 311              	.LCFI7:
 312              		.cfi_def_cfa_offset 20
 313              		.cfi_offset 4, -20
 314              		.cfi_offset 5, -16
 315              		.cfi_offset 6, -12
 316              		.cfi_offset 7, -8
 317              		.cfi_offset 14, -4
 318 0006 8BB0     		sub	sp, sp, #44
 319              	.LCFI8:
 320              		.cfi_def_cfa_offset 64
 321 0008 0646     		mov	r6, r0
 140:Drivers/STM32F4xx_HAL_Driver/Src/stm32f4xx_hal_hcd.c ****   
 322              		.loc 1 140 0
 323 000a 0323     		movs	r3, #3
 324 000c 80F89132 		strb	r3, [r0, #657]
 143:Drivers/STM32F4xx_HAL_Driver/Src/stm32f4xx_hal_hcd.c ****   
 325              		.loc 1 143 0
 326 0010 FFF7FEFF 		bl	HAL_HCD_MspInit
 327              	.LVL29:
 146:Drivers/STM32F4xx_HAL_Driver/Src/stm32f4xx_hal_hcd.c ****   
 328              		.loc 1 146 0
 329 0014 3068     		ldr	r0, [r6]
 330 0016 FFF7FEFF 		bl	USB_DisableGlobalInt
 331              	.LVL30:
 149:Drivers/STM32F4xx_HAL_Driver/Src/stm32f4xx_hal_hcd.c ****   
 332              		.loc 1 149 0
ARM GAS  /var/folders/0d/93p3r6493yg7p0rvl_4r983m0000gn/T//cc4yon9B.s 			page 27


 333 001a 3446     		mov	r4, r6
 334 001c 54F810CB 		ldr	ip, [r4], #16
 335 0020 6D46     		mov	r5, sp
 336 0022 0FCC     		ldmia	r4!, {r0, r1, r2, r3}
 337 0024 0FC5     		stmia	r5!, {r0, r1, r2, r3}
 338 0026 0FCC     		ldmia	r4!, {r0, r1, r2, r3}
 339 0028 0FC5     		stmia	r5!, {r0, r1, r2, r3}
 340 002a 94E80300 		ldm	r4, {r0, r1}
 341 002e 85E80300 		stm	r5, {r0, r1}
 342 0032 371D     		adds	r7, r6, #4
 343 0034 97E80E00 		ldm	r7, {r1, r2, r3}
 344 0038 6046     		mov	r0, ip
 345 003a FFF7FEFF 		bl	USB_CoreInit
 346              	.LVL31:
 152:Drivers/STM32F4xx_HAL_Driver/Src/stm32f4xx_hal_hcd.c ****   
 347              		.loc 1 152 0
 348 003e 0121     		movs	r1, #1
 349 0040 3068     		ldr	r0, [r6]
 350 0042 FFF7FEFF 		bl	USB_SetCurrentMode
 351              	.LVL32:
 155:Drivers/STM32F4xx_HAL_Driver/Src/stm32f4xx_hal_hcd.c ****   
 352              		.loc 1 155 0
 353 0046 3446     		mov	r4, r6
 354 0048 54F810CB 		ldr	ip, [r4], #16
 355 004c 6D46     		mov	r5, sp
 356 004e 0FCC     		ldmia	r4!, {r0, r1, r2, r3}
 357 0050 0FC5     		stmia	r5!, {r0, r1, r2, r3}
 358 0052 0FCC     		ldmia	r4!, {r0, r1, r2, r3}
 359 0054 0FC5     		stmia	r5!, {r0, r1, r2, r3}
 360 0056 94E80300 		ldm	r4, {r0, r1}
 361 005a 85E80300 		stm	r5, {r0, r1}
 362 005e 97E80E00 		ldm	r7, {r1, r2, r3}
 363 0062 6046     		mov	r0, ip
 364 0064 FFF7FEFF 		bl	USB_HostInit
 365              	.LVL33:
 157:Drivers/STM32F4xx_HAL_Driver/Src/stm32f4xx_hal_hcd.c ****   
 366              		.loc 1 157 0
 367 0068 0123     		movs	r3, #1
 368 006a 86F89132 		strb	r3, [r6, #657]
 159:Drivers/STM32F4xx_HAL_Driver/Src/stm32f4xx_hal_hcd.c **** }
 369              		.loc 1 159 0
 370 006e 0020     		movs	r0, #0
 160:Drivers/STM32F4xx_HAL_Driver/Src/stm32f4xx_hal_hcd.c **** 
 371              		.loc 1 160 0
 372 0070 0BB0     		add	sp, sp, #44
 373              	.LCFI9:
 374              		.cfi_def_cfa_offset 20
 375              		@ sp needed
 376 0072 F0BD     		pop	{r4, r5, r6, r7, pc}
 377              	.LVL34:
 378              	.L21:
 379              	.LCFI10:
 380              		.cfi_def_cfa_offset 0
 381              		.cfi_restore 4
 382              		.cfi_restore 5
 383              		.cfi_restore 6
 384              		.cfi_restore 7
ARM GAS  /var/folders/0d/93p3r6493yg7p0rvl_4r983m0000gn/T//cc4yon9B.s 			page 28


 385              		.cfi_restore 14
 134:Drivers/STM32F4xx_HAL_Driver/Src/stm32f4xx_hal_hcd.c ****   }
 386              		.loc 1 134 0
 387 0074 0120     		movs	r0, #1
 388              	.LVL35:
 160:Drivers/STM32F4xx_HAL_Driver/Src/stm32f4xx_hal_hcd.c **** 
 389              		.loc 1 160 0
 390 0076 7047     		bx	lr
 391              		.cfi_endproc
 392              	.LFE126:
 394              		.section	.text.HAL_HCD_MspDeInit,"ax",%progbits
 395              		.align	1
 396              		.weak	HAL_HCD_MspDeInit
 397              		.syntax unified
 398              		.thumb
 399              		.thumb_func
 400              		.fpu fpv4-sp-d16
 402              	HAL_HCD_MspDeInit:
 403              	.LFB131:
 281:Drivers/STM32F4xx_HAL_Driver/Src/stm32f4xx_hal_hcd.c ****   /* Prevent unused argument(s) compilation warning */
 404              		.loc 1 281 0
 405              		.cfi_startproc
 406              		@ args = 0, pretend = 0, frame = 0
 407              		@ frame_needed = 0, uses_anonymous_args = 0
 408              		@ link register save eliminated.
 409              	.LVL36:
 287:Drivers/STM32F4xx_HAL_Driver/Src/stm32f4xx_hal_hcd.c **** 
 410              		.loc 1 287 0
 411 0000 7047     		bx	lr
 412              		.cfi_endproc
 413              	.LFE131:
 415              		.section	.text.HAL_HCD_DeInit,"ax",%progbits
 416              		.align	1
 417              		.global	HAL_HCD_DeInit
 418              		.syntax unified
 419              		.thumb
 420              		.thumb_func
 421              		.fpu fpv4-sp-d16
 423              	HAL_HCD_DeInit:
 424              	.LFB129:
 242:Drivers/STM32F4xx_HAL_Driver/Src/stm32f4xx_hal_hcd.c ****   /* Check the HCD handle allocation */
 425              		.loc 1 242 0
 426              		.cfi_startproc
 427              		@ args = 0, pretend = 0, frame = 0
 428              		@ frame_needed = 0, uses_anonymous_args = 0
 429              	.LVL37:
 244:Drivers/STM32F4xx_HAL_Driver/Src/stm32f4xx_hal_hcd.c ****   {
 430              		.loc 1 244 0
 431 0000 68B1     		cbz	r0, .L29
 242:Drivers/STM32F4xx_HAL_Driver/Src/stm32f4xx_hal_hcd.c ****   /* Check the HCD handle allocation */
 432              		.loc 1 242 0
 433 0002 10B5     		push	{r4, lr}
 434              	.LCFI11:
 435              		.cfi_def_cfa_offset 8
 436              		.cfi_offset 4, -8
 437              		.cfi_offset 14, -4
 438 0004 0446     		mov	r4, r0
ARM GAS  /var/folders/0d/93p3r6493yg7p0rvl_4r983m0000gn/T//cc4yon9B.s 			page 29


 249:Drivers/STM32F4xx_HAL_Driver/Src/stm32f4xx_hal_hcd.c ****   
 439              		.loc 1 249 0
 440 0006 0323     		movs	r3, #3
 441 0008 80F89132 		strb	r3, [r0, #657]
 252:Drivers/STM32F4xx_HAL_Driver/Src/stm32f4xx_hal_hcd.c ****   
 442              		.loc 1 252 0
 443 000c FFF7FEFF 		bl	HAL_HCD_MspDeInit
 444              	.LVL38:
 254:Drivers/STM32F4xx_HAL_Driver/Src/stm32f4xx_hal_hcd.c ****   
 445              		.loc 1 254 0
 446 0010 2068     		ldr	r0, [r4]
 447 0012 FFF7FEFF 		bl	USB_DisableGlobalInt
 448              	.LVL39:
 256:Drivers/STM32F4xx_HAL_Driver/Src/stm32f4xx_hal_hcd.c ****   
 449              		.loc 1 256 0
 450 0016 0020     		movs	r0, #0
 451 0018 84F89102 		strb	r0, [r4, #657]
 259:Drivers/STM32F4xx_HAL_Driver/Src/stm32f4xx_hal_hcd.c **** 
 452              		.loc 1 259 0
 453 001c 10BD     		pop	{r4, pc}
 454              	.LVL40:
 455              	.L29:
 456              	.LCFI12:
 457              		.cfi_def_cfa_offset 0
 458              		.cfi_restore 4
 459              		.cfi_restore 14
 246:Drivers/STM32F4xx_HAL_Driver/Src/stm32f4xx_hal_hcd.c ****   }
 460              		.loc 1 246 0
 461 001e 0120     		movs	r0, #1
 462              	.LVL41:
 259:Drivers/STM32F4xx_HAL_Driver/Src/stm32f4xx_hal_hcd.c **** 
 463              		.loc 1 259 0
 464 0020 7047     		bx	lr
 465              		.cfi_endproc
 466              	.LFE129:
 468              		.section	.text.HAL_HCD_HC_SubmitRequest,"ax",%progbits
 469              		.align	1
 470              		.global	HAL_HCD_HC_SubmitRequest
 471              		.syntax unified
 472              		.thumb
 473              		.thumb_func
 474              		.fpu fpv4-sp-d16
 476              	HAL_HCD_HC_SubmitRequest:
 477              	.LFB132:
 339:Drivers/STM32F4xx_HAL_Driver/Src/stm32f4xx_hal_hcd.c ****   hhcd->hc[ch_num].ep_is_in = direction;
 478              		.loc 1 339 0
 479              		.cfi_startproc
 480              		@ args = 16, pretend = 0, frame = 0
 481              		@ frame_needed = 0, uses_anonymous_args = 0
 482              	.LVL42:
 483 0000 F8B5     		push	{r3, r4, r5, r6, r7, lr}
 484              	.LCFI13:
 485              		.cfi_def_cfa_offset 24
 486              		.cfi_offset 3, -24
 487              		.cfi_offset 4, -20
 488              		.cfi_offset 5, -16
 489              		.cfi_offset 6, -12
ARM GAS  /var/folders/0d/93p3r6493yg7p0rvl_4r983m0000gn/T//cc4yon9B.s 			page 30


 490              		.cfi_offset 7, -8
 491              		.cfi_offset 14, -4
 492 0002 9DF81870 		ldrb	r7, [sp, #24]	@ zero_extendqisi2
 493 0006 BDF82060 		ldrh	r6, [sp, #32]
 494 000a 9DF824C0 		ldrb	ip, [sp, #36]	@ zero_extendqisi2
 340:Drivers/STM32F4xx_HAL_Driver/Src/stm32f4xx_hal_hcd.c ****   hhcd->hc[ch_num].ep_type  = ep_type; 
 495              		.loc 1 340 0
 496 000e 8D00     		lsls	r5, r1, #2
 497 0010 0D44     		add	r5, r5, r1
 498 0012 EC00     		lsls	r4, r5, #3
 499 0014 0444     		add	r4, r4, r0
 500 0016 84F83B20 		strb	r2, [r4, #59]
 341:Drivers/STM32F4xx_HAL_Driver/Src/stm32f4xx_hal_hcd.c ****   
 501              		.loc 1 341 0
 502 001a 84F83F30 		strb	r3, [r4, #63]
 343:Drivers/STM32F4xx_HAL_Driver/Src/stm32f4xx_hal_hcd.c ****   {
 503              		.loc 1 343 0
 504 001e 6FB9     		cbnz	r7, .L35
 345:Drivers/STM32F4xx_HAL_Driver/Src/stm32f4xx_hal_hcd.c ****   }
 505              		.loc 1 345 0
 506 0020 01EB8105 		add	r5, r1, r1, lsl #2
 507 0024 EC00     		lsls	r4, r5, #3
 508 0026 0444     		add	r4, r4, r0
 509 0028 0325     		movs	r5, #3
 510 002a 84F84250 		strb	r5, [r4, #66]
 511              	.L36:
 353:Drivers/STM32F4xx_HAL_Driver/Src/stm32f4xx_hal_hcd.c ****   {
 512              		.loc 1 353 0
 513 002e 032B     		cmp	r3, #3
 514 0030 00F2B380 		bhi	.L37
 515 0034 DFE803F0 		tbb	[pc, r3]
 516              	.L39:
 517 0038 0A       		.byte	(.L38-.L39)/2
 518 0039 AA       		.byte	(.L40-.L39)/2
 519 003a 3E       		.byte	(.L41-.L39)/2
 520 003b 7B       		.byte	(.L42-.L39)/2
 521              		.p2align 1
 522              	.L35:
 349:Drivers/STM32F4xx_HAL_Driver/Src/stm32f4xx_hal_hcd.c ****   }
 523              		.loc 1 349 0
 524 003c 01EB8105 		add	r5, r1, r1, lsl #2
 525 0040 EC00     		lsls	r4, r5, #3
 526 0042 0444     		add	r4, r4, r0
 527 0044 0225     		movs	r5, #2
 528 0046 84F84250 		strb	r5, [r4, #66]
 529 004a F0E7     		b	.L36
 530              	.L38:
 356:Drivers/STM32F4xx_HAL_Driver/Src/stm32f4xx_hal_hcd.c ****     {
 531              		.loc 1 356 0
 532 004c 012F     		cmp	r7, #1
 533 004e 40F0A480 		bne	.L37
 356:Drivers/STM32F4xx_HAL_Driver/Src/stm32f4xx_hal_hcd.c ****     {
 534              		.loc 1 356 0 is_stmt 0 discriminator 1
 535 0052 002A     		cmp	r2, #0
 536 0054 40F0A180 		bne	.L37
 358:Drivers/STM32F4xx_HAL_Driver/Src/stm32f4xx_hal_hcd.c ****       { /* For Status OUT stage, Length==0, Status Out PID = 1 */
 537              		.loc 1 358 0 is_stmt 1
ARM GAS  /var/folders/0d/93p3r6493yg7p0rvl_4r983m0000gn/T//cc4yon9B.s 			page 31


 538 0058 36B9     		cbnz	r6, .L43
 360:Drivers/STM32F4xx_HAL_Driver/Src/stm32f4xx_hal_hcd.c ****       }
 539              		.loc 1 360 0
 540 005a 01EB8102 		add	r2, r1, r1, lsl #2
 541              	.LVL43:
 542 005e D300     		lsls	r3, r2, #3
 543              	.LVL44:
 544 0060 0344     		add	r3, r3, r0
 545 0062 0122     		movs	r2, #1
 546 0064 83F85120 		strb	r2, [r3, #81]
 547              	.L43:
 364:Drivers/STM32F4xx_HAL_Driver/Src/stm32f4xx_hal_hcd.c ****       { /* Put the PID 0 */
 548              		.loc 1 364 0
 549 0068 01EB8102 		add	r2, r1, r1, lsl #2
 550 006c D300     		lsls	r3, r2, #3
 551 006e 0344     		add	r3, r3, r0
 552 0070 93F85130 		ldrb	r3, [r3, #81]	@ zero_extendqisi2
 553 0074 B3B9     		cbnz	r3, .L44
 366:Drivers/STM32F4xx_HAL_Driver/Src/stm32f4xx_hal_hcd.c ****       }
 554              		.loc 1 366 0
 555 0076 01EB8102 		add	r2, r1, r1, lsl #2
 556 007a D300     		lsls	r3, r2, #3
 557 007c 0344     		add	r3, r3, r0
 558 007e 0022     		movs	r2, #0
 559 0080 83F84220 		strb	r2, [r3, #66]
 560              	.L45:
 372:Drivers/STM32F4xx_HAL_Driver/Src/stm32f4xx_hal_hcd.c ****       {
 561              		.loc 1 372 0
 562 0084 01EB8102 		add	r2, r1, r1, lsl #2
 563 0088 D300     		lsls	r3, r2, #3
 564 008a 0344     		add	r3, r3, r0
 565 008c 93F85C30 		ldrb	r3, [r3, #92]	@ zero_extendqisi2
 566 0090 022B     		cmp	r3, #2
 567 0092 00F08280 		beq	.L37
 374:Drivers/STM32F4xx_HAL_Driver/Src/stm32f4xx_hal_hcd.c ****       }
 568              		.loc 1 374 0
 569 0096 01EB8102 		add	r2, r1, r1, lsl #2
 570 009a D300     		lsls	r3, r2, #3
 571 009c 0344     		add	r3, r3, r0
 572 009e 83F83DC0 		strb	ip, [r3, #61]
 573 00a2 7AE0     		b	.L37
 574              	.L44:
 370:Drivers/STM32F4xx_HAL_Driver/Src/stm32f4xx_hal_hcd.c ****       }
 575              		.loc 1 370 0
 576 00a4 01EB8102 		add	r2, r1, r1, lsl #2
 577 00a8 D300     		lsls	r3, r2, #3
 578 00aa 0344     		add	r3, r3, r0
 579 00ac 0222     		movs	r2, #2
 580 00ae 83F84220 		strb	r2, [r3, #66]
 581 00b2 E7E7     		b	.L45
 582              	.LVL45:
 583              	.L41:
 380:Drivers/STM32F4xx_HAL_Driver/Src/stm32f4xx_hal_hcd.c ****     {
 584              		.loc 1 380 0
 585 00b4 22BB     		cbnz	r2, .L46
 383:Drivers/STM32F4xx_HAL_Driver/Src/stm32f4xx_hal_hcd.c ****       { /* Put the PID 0 */
 586              		.loc 1 383 0
ARM GAS  /var/folders/0d/93p3r6493yg7p0rvl_4r983m0000gn/T//cc4yon9B.s 			page 32


 587 00b6 01EB8102 		add	r2, r1, r1, lsl #2
 588              	.LVL46:
 589 00ba D300     		lsls	r3, r2, #3
 590              	.LVL47:
 591 00bc 0344     		add	r3, r3, r0
 592 00be 93F85130 		ldrb	r3, [r3, #81]	@ zero_extendqisi2
 593 00c2 ABB9     		cbnz	r3, .L47
 385:Drivers/STM32F4xx_HAL_Driver/Src/stm32f4xx_hal_hcd.c ****       }
 594              		.loc 1 385 0
 595 00c4 01EB8102 		add	r2, r1, r1, lsl #2
 596 00c8 D300     		lsls	r3, r2, #3
 597 00ca 0344     		add	r3, r3, r0
 598 00cc 0022     		movs	r2, #0
 599 00ce 83F84220 		strb	r2, [r3, #66]
 600              	.L48:
 391:Drivers/STM32F4xx_HAL_Driver/Src/stm32f4xx_hal_hcd.c ****       {
 601              		.loc 1 391 0
 602 00d2 01EB8102 		add	r2, r1, r1, lsl #2
 603 00d6 D300     		lsls	r3, r2, #3
 604 00d8 0344     		add	r3, r3, r0
 605 00da 93F85C30 		ldrb	r3, [r3, #92]	@ zero_extendqisi2
 606 00de 022B     		cmp	r3, #2
 607 00e0 5BD0     		beq	.L37
 393:Drivers/STM32F4xx_HAL_Driver/Src/stm32f4xx_hal_hcd.c ****       }
 608              		.loc 1 393 0
 609 00e2 01EB8102 		add	r2, r1, r1, lsl #2
 610 00e6 D300     		lsls	r3, r2, #3
 611 00e8 0344     		add	r3, r3, r0
 612 00ea 83F83DC0 		strb	ip, [r3, #61]
 613 00ee 54E0     		b	.L37
 614              	.L47:
 389:Drivers/STM32F4xx_HAL_Driver/Src/stm32f4xx_hal_hcd.c ****       }
 615              		.loc 1 389 0
 616 00f0 01EB8102 		add	r2, r1, r1, lsl #2
 617 00f4 D300     		lsls	r3, r2, #3
 618 00f6 0344     		add	r3, r3, r0
 619 00f8 0222     		movs	r2, #2
 620 00fa 83F84220 		strb	r2, [r3, #66]
 621 00fe E8E7     		b	.L48
 622              	.LVL48:
 623              	.L46:
 398:Drivers/STM32F4xx_HAL_Driver/Src/stm32f4xx_hal_hcd.c ****       {
 624              		.loc 1 398 0
 625 0100 01EB8102 		add	r2, r1, r1, lsl #2
 626              	.LVL49:
 627 0104 D300     		lsls	r3, r2, #3
 628              	.LVL50:
 629 0106 0344     		add	r3, r3, r0
 630 0108 93F85030 		ldrb	r3, [r3, #80]	@ zero_extendqisi2
 631 010c 3BB9     		cbnz	r3, .L49
 400:Drivers/STM32F4xx_HAL_Driver/Src/stm32f4xx_hal_hcd.c ****       }
 632              		.loc 1 400 0
 633 010e 01EB8102 		add	r2, r1, r1, lsl #2
 634 0112 D300     		lsls	r3, r2, #3
 635 0114 0344     		add	r3, r3, r0
 636 0116 0022     		movs	r2, #0
 637 0118 83F84220 		strb	r2, [r3, #66]
ARM GAS  /var/folders/0d/93p3r6493yg7p0rvl_4r983m0000gn/T//cc4yon9B.s 			page 33


 638 011c 3DE0     		b	.L37
 639              	.L49:
 404:Drivers/STM32F4xx_HAL_Driver/Src/stm32f4xx_hal_hcd.c ****       }
 640              		.loc 1 404 0
 641 011e 01EB8102 		add	r2, r1, r1, lsl #2
 642 0122 D300     		lsls	r3, r2, #3
 643 0124 0344     		add	r3, r3, r0
 644 0126 0222     		movs	r2, #2
 645 0128 83F84220 		strb	r2, [r3, #66]
 646 012c 35E0     		b	.L37
 647              	.LVL51:
 648              	.L42:
 410:Drivers/STM32F4xx_HAL_Driver/Src/stm32f4xx_hal_hcd.c ****     {
 649              		.loc 1 410 0
 650 012e B2B9     		cbnz	r2, .L50
 413:Drivers/STM32F4xx_HAL_Driver/Src/stm32f4xx_hal_hcd.c ****       { /* Put the PID 0 */
 651              		.loc 1 413 0
 652 0130 01EB8102 		add	r2, r1, r1, lsl #2
 653              	.LVL52:
 654 0134 D300     		lsls	r3, r2, #3
 655              	.LVL53:
 656 0136 0344     		add	r3, r3, r0
 657 0138 93F85130 		ldrb	r3, [r3, #81]	@ zero_extendqisi2
 658 013c 3BB9     		cbnz	r3, .L51
 415:Drivers/STM32F4xx_HAL_Driver/Src/stm32f4xx_hal_hcd.c ****       }
 659              		.loc 1 415 0
 660 013e 01EB8102 		add	r2, r1, r1, lsl #2
 661 0142 D300     		lsls	r3, r2, #3
 662 0144 0344     		add	r3, r3, r0
 663 0146 0022     		movs	r2, #0
 664 0148 83F84220 		strb	r2, [r3, #66]
 665 014c 25E0     		b	.L37
 666              	.L51:
 419:Drivers/STM32F4xx_HAL_Driver/Src/stm32f4xx_hal_hcd.c ****       }
 667              		.loc 1 419 0
 668 014e 01EB8102 		add	r2, r1, r1, lsl #2
 669 0152 D300     		lsls	r3, r2, #3
 670 0154 0344     		add	r3, r3, r0
 671 0156 0222     		movs	r2, #2
 672 0158 83F84220 		strb	r2, [r3, #66]
 673 015c 1DE0     		b	.L37
 674              	.LVL54:
 675              	.L50:
 424:Drivers/STM32F4xx_HAL_Driver/Src/stm32f4xx_hal_hcd.c ****       {
 676              		.loc 1 424 0
 677 015e 01EB8102 		add	r2, r1, r1, lsl #2
 678              	.LVL55:
 679 0162 D300     		lsls	r3, r2, #3
 680              	.LVL56:
 681 0164 0344     		add	r3, r3, r0
 682 0166 93F85030 		ldrb	r3, [r3, #80]	@ zero_extendqisi2
 683 016a 3BB9     		cbnz	r3, .L52
 426:Drivers/STM32F4xx_HAL_Driver/Src/stm32f4xx_hal_hcd.c ****       }
 684              		.loc 1 426 0
 685 016c 01EB8102 		add	r2, r1, r1, lsl #2
 686 0170 D300     		lsls	r3, r2, #3
 687 0172 0344     		add	r3, r3, r0
ARM GAS  /var/folders/0d/93p3r6493yg7p0rvl_4r983m0000gn/T//cc4yon9B.s 			page 34


 688 0174 0022     		movs	r2, #0
 689 0176 83F84220 		strb	r2, [r3, #66]
 690 017a 0EE0     		b	.L37
 691              	.L52:
 430:Drivers/STM32F4xx_HAL_Driver/Src/stm32f4xx_hal_hcd.c ****       }
 692              		.loc 1 430 0
 693 017c 01EB8102 		add	r2, r1, r1, lsl #2
 694 0180 D300     		lsls	r3, r2, #3
 695 0182 0344     		add	r3, r3, r0
 696 0184 0222     		movs	r2, #2
 697 0186 83F84220 		strb	r2, [r3, #66]
 698 018a 06E0     		b	.L37
 699              	.LVL57:
 700              	.L40:
 436:Drivers/STM32F4xx_HAL_Driver/Src/stm32f4xx_hal_hcd.c ****     break;  
 701              		.loc 1 436 0
 702 018c 01EB8102 		add	r2, r1, r1, lsl #2
 703              	.LVL58:
 704 0190 D300     		lsls	r3, r2, #3
 705              	.LVL59:
 706 0192 0344     		add	r3, r3, r0
 707 0194 0022     		movs	r2, #0
 708 0196 83F84220 		strb	r2, [r3, #66]
 709              	.L37:
 440:Drivers/STM32F4xx_HAL_Driver/Src/stm32f4xx_hal_hcd.c ****   hhcd->hc[ch_num].xfer_len  = length;
 710              		.loc 1 440 0
 711 019a 8A00     		lsls	r2, r1, #2
 712 019c 5418     		adds	r4, r2, r1
 713 019e E300     		lsls	r3, r4, #3
 714 01a0 0344     		add	r3, r3, r0
 715 01a2 079C     		ldr	r4, [sp, #28]
 716 01a4 5C64     		str	r4, [r3, #68]
 441:Drivers/STM32F4xx_HAL_Driver/Src/stm32f4xx_hal_hcd.c ****   hhcd->hc[ch_num].urb_state = URB_IDLE;  
 717              		.loc 1 441 0
 718 01a6 9E64     		str	r6, [r3, #72]
 442:Drivers/STM32F4xx_HAL_Driver/Src/stm32f4xx_hal_hcd.c ****   hhcd->hc[ch_num].xfer_count = 0;
 719              		.loc 1 442 0
 720 01a8 0024     		movs	r4, #0
 721 01aa 83F85C40 		strb	r4, [r3, #92]
 443:Drivers/STM32F4xx_HAL_Driver/Src/stm32f4xx_hal_hcd.c ****   hhcd->hc[ch_num].ch_num = ch_num;
 722              		.loc 1 443 0
 723 01ae DC64     		str	r4, [r3, #76]
 444:Drivers/STM32F4xx_HAL_Driver/Src/stm32f4xx_hal_hcd.c ****   hhcd->hc[ch_num].state = HC_IDLE;
 724              		.loc 1 444 0
 725 01b0 83F83910 		strb	r1, [r3, #57]
 445:Drivers/STM32F4xx_HAL_Driver/Src/stm32f4xx_hal_hcd.c ****   
 726              		.loc 1 445 0
 727 01b4 83F85D40 		strb	r4, [r3, #93]
 447:Drivers/STM32F4xx_HAL_Driver/Src/stm32f4xx_hal_hcd.c **** }
 728              		.loc 1 447 0
 729 01b8 1144     		add	r1, r1, r2
 730              	.LVL60:
 731 01ba CB00     		lsls	r3, r1, #3
 732              	.LVL61:
 733 01bc 03F13801 		add	r1, r3, #56
 734 01c0 027C     		ldrb	r2, [r0, #16]	@ zero_extendqisi2
 735 01c2 0144     		add	r1, r1, r0
ARM GAS  /var/folders/0d/93p3r6493yg7p0rvl_4r983m0000gn/T//cc4yon9B.s 			page 35


 736 01c4 0068     		ldr	r0, [r0]
 737              	.LVL62:
 738 01c6 FFF7FEFF 		bl	USB_HC_StartXfer
 739              	.LVL63:
 448:Drivers/STM32F4xx_HAL_Driver/Src/stm32f4xx_hal_hcd.c **** 
 740              		.loc 1 448 0
 741 01ca F8BD     		pop	{r3, r4, r5, r6, r7, pc}
 742              		.cfi_endproc
 743              	.LFE132:
 745              		.section	.text.HAL_HCD_SOF_Callback,"ax",%progbits
 746              		.align	1
 747              		.weak	HAL_HCD_SOF_Callback
 748              		.syntax unified
 749              		.thumb
 750              		.thumb_func
 751              		.fpu fpv4-sp-d16
 753              	HAL_HCD_SOF_Callback:
 754              	.LFB134:
 559:Drivers/STM32F4xx_HAL_Driver/Src/stm32f4xx_hal_hcd.c ****   /* Prevent unused argument(s) compilation warning */
 755              		.loc 1 559 0
 756              		.cfi_startproc
 757              		@ args = 0, pretend = 0, frame = 0
 758              		@ frame_needed = 0, uses_anonymous_args = 0
 759              		@ link register save eliminated.
 760              	.LVL64:
 565:Drivers/STM32F4xx_HAL_Driver/Src/stm32f4xx_hal_hcd.c **** 
 761              		.loc 1 565 0
 762 0000 7047     		bx	lr
 763              		.cfi_endproc
 764              	.LFE134:
 766              		.section	.text.HAL_HCD_Connect_Callback,"ax",%progbits
 767              		.align	1
 768              		.weak	HAL_HCD_Connect_Callback
 769              		.syntax unified
 770              		.thumb
 771              		.thumb_func
 772              		.fpu fpv4-sp-d16
 774              	HAL_HCD_Connect_Callback:
 775              	.LFB135:
 573:Drivers/STM32F4xx_HAL_Driver/Src/stm32f4xx_hal_hcd.c ****   /* Prevent unused argument(s) compilation warning */
 776              		.loc 1 573 0
 777              		.cfi_startproc
 778              		@ args = 0, pretend = 0, frame = 0
 779              		@ frame_needed = 0, uses_anonymous_args = 0
 780              		@ link register save eliminated.
 781              	.LVL65:
 579:Drivers/STM32F4xx_HAL_Driver/Src/stm32f4xx_hal_hcd.c **** 
 782              		.loc 1 579 0
 783 0000 7047     		bx	lr
 784              		.cfi_endproc
 785              	.LFE135:
 787              		.section	.text.HCD_Port_IRQHandler,"ax",%progbits
 788              		.align	1
 789              		.syntax unified
 790              		.thumb
 791              		.thumb_func
 792              		.fpu fpv4-sp-d16
ARM GAS  /var/folders/0d/93p3r6493yg7p0rvl_4r983m0000gn/T//cc4yon9B.s 			page 36


 794              	HCD_Port_IRQHandler:
 795              	.LFB150:
1128:Drivers/STM32F4xx_HAL_Driver/Src/stm32f4xx_hal_hcd.c **** 
1129:Drivers/STM32F4xx_HAL_Driver/Src/stm32f4xx_hal_hcd.c **** /**
1130:Drivers/STM32F4xx_HAL_Driver/Src/stm32f4xx_hal_hcd.c ****   * @brief  Handle Host Port interrupt requests.
1131:Drivers/STM32F4xx_HAL_Driver/Src/stm32f4xx_hal_hcd.c ****   * @param  hhcd HCD handle
1132:Drivers/STM32F4xx_HAL_Driver/Src/stm32f4xx_hal_hcd.c ****   * @retval None
1133:Drivers/STM32F4xx_HAL_Driver/Src/stm32f4xx_hal_hcd.c ****   */
1134:Drivers/STM32F4xx_HAL_Driver/Src/stm32f4xx_hal_hcd.c **** static void HCD_Port_IRQHandler  (HCD_HandleTypeDef *hhcd)
1135:Drivers/STM32F4xx_HAL_Driver/Src/stm32f4xx_hal_hcd.c **** {
 796              		.loc 1 1135 0
 797              		.cfi_startproc
 798              		@ args = 0, pretend = 0, frame = 8
 799              		@ frame_needed = 0, uses_anonymous_args = 0
 800              	.LVL66:
 801 0000 30B5     		push	{r4, r5, lr}
 802              	.LCFI14:
 803              		.cfi_def_cfa_offset 12
 804              		.cfi_offset 4, -12
 805              		.cfi_offset 5, -8
 806              		.cfi_offset 14, -4
 807 0002 83B0     		sub	sp, sp, #12
 808              	.LCFI15:
 809              		.cfi_def_cfa_offset 24
 810 0004 0546     		mov	r5, r0
1136:Drivers/STM32F4xx_HAL_Driver/Src/stm32f4xx_hal_hcd.c ****   USB_OTG_GlobalTypeDef *USBx = hhcd->Instance;  
 811              		.loc 1 1136 0
 812 0006 0468     		ldr	r4, [r0]
 813              	.LVL67:
1137:Drivers/STM32F4xx_HAL_Driver/Src/stm32f4xx_hal_hcd.c ****   __IO uint32_t hprt0, hprt0_dup;
1138:Drivers/STM32F4xx_HAL_Driver/Src/stm32f4xx_hal_hcd.c ****   
1139:Drivers/STM32F4xx_HAL_Driver/Src/stm32f4xx_hal_hcd.c ****   /* Handle Host Port Interrupts */
1140:Drivers/STM32F4xx_HAL_Driver/Src/stm32f4xx_hal_hcd.c ****   hprt0 = USBx_HPRT0;
 814              		.loc 1 1140 0
 815 0008 D4F84034 		ldr	r3, [r4, #1088]
 816 000c 0193     		str	r3, [sp, #4]
1141:Drivers/STM32F4xx_HAL_Driver/Src/stm32f4xx_hal_hcd.c ****   hprt0_dup = USBx_HPRT0;
 817              		.loc 1 1141 0
 818 000e D4F84034 		ldr	r3, [r4, #1088]
 819 0012 0093     		str	r3, [sp]
1142:Drivers/STM32F4xx_HAL_Driver/Src/stm32f4xx_hal_hcd.c ****   
1143:Drivers/STM32F4xx_HAL_Driver/Src/stm32f4xx_hal_hcd.c ****   hprt0_dup &= ~(USB_OTG_HPRT_PENA | USB_OTG_HPRT_PCDET |\
 820              		.loc 1 1143 0
 821 0014 009B     		ldr	r3, [sp]
 822 0016 23F02E03 		bic	r3, r3, #46
 823 001a 0093     		str	r3, [sp]
1144:Drivers/STM32F4xx_HAL_Driver/Src/stm32f4xx_hal_hcd.c ****                  USB_OTG_HPRT_PENCHNG | USB_OTG_HPRT_POCCHNG );
1145:Drivers/STM32F4xx_HAL_Driver/Src/stm32f4xx_hal_hcd.c ****   
1146:Drivers/STM32F4xx_HAL_Driver/Src/stm32f4xx_hal_hcd.c ****   /* Check whether Port Connect Detected */
1147:Drivers/STM32F4xx_HAL_Driver/Src/stm32f4xx_hal_hcd.c ****   if((hprt0 & USB_OTG_HPRT_PCDET) == USB_OTG_HPRT_PCDET)
 824              		.loc 1 1147 0
 825 001c 019B     		ldr	r3, [sp, #4]
 826 001e 13F0020F 		tst	r3, #2
 827 0022 07D0     		beq	.L57
1148:Drivers/STM32F4xx_HAL_Driver/Src/stm32f4xx_hal_hcd.c ****   {  
1149:Drivers/STM32F4xx_HAL_Driver/Src/stm32f4xx_hal_hcd.c ****     if((hprt0 & USB_OTG_HPRT_PCSTS) == USB_OTG_HPRT_PCSTS)
 828              		.loc 1 1149 0
ARM GAS  /var/folders/0d/93p3r6493yg7p0rvl_4r983m0000gn/T//cc4yon9B.s 			page 37


 829 0024 019B     		ldr	r3, [sp, #4]
 830 0026 13F0010F 		tst	r3, #1
 831 002a 25D1     		bne	.L66
 832              	.LVL68:
 833              	.L58:
1150:Drivers/STM32F4xx_HAL_Driver/Src/stm32f4xx_hal_hcd.c ****     {
1151:Drivers/STM32F4xx_HAL_Driver/Src/stm32f4xx_hal_hcd.c ****       USB_MASK_INTERRUPT(hhcd->Instance, USB_OTG_GINTSTS_DISCINT);
1152:Drivers/STM32F4xx_HAL_Driver/Src/stm32f4xx_hal_hcd.c ****       HAL_HCD_Connect_Callback(hhcd);
1153:Drivers/STM32F4xx_HAL_Driver/Src/stm32f4xx_hal_hcd.c ****     }
1154:Drivers/STM32F4xx_HAL_Driver/Src/stm32f4xx_hal_hcd.c ****     hprt0_dup  |= USB_OTG_HPRT_PCDET;
 834              		.loc 1 1154 0
 835 002c 009B     		ldr	r3, [sp]
 836 002e 43F00203 		orr	r3, r3, #2
 837 0032 0093     		str	r3, [sp]
 838              	.L57:
1155:Drivers/STM32F4xx_HAL_Driver/Src/stm32f4xx_hal_hcd.c ****     
1156:Drivers/STM32F4xx_HAL_Driver/Src/stm32f4xx_hal_hcd.c ****   }
1157:Drivers/STM32F4xx_HAL_Driver/Src/stm32f4xx_hal_hcd.c ****   
1158:Drivers/STM32F4xx_HAL_Driver/Src/stm32f4xx_hal_hcd.c ****   /* Check whether Port Enable Changed */
1159:Drivers/STM32F4xx_HAL_Driver/Src/stm32f4xx_hal_hcd.c ****   if((hprt0 & USB_OTG_HPRT_PENCHNG) == USB_OTG_HPRT_PENCHNG)
 839              		.loc 1 1159 0
 840 0034 019B     		ldr	r3, [sp, #4]
 841 0036 13F0080F 		tst	r3, #8
 842 003a 10D0     		beq	.L59
1160:Drivers/STM32F4xx_HAL_Driver/Src/stm32f4xx_hal_hcd.c ****   {
1161:Drivers/STM32F4xx_HAL_Driver/Src/stm32f4xx_hal_hcd.c ****     hprt0_dup |= USB_OTG_HPRT_PENCHNG;
 843              		.loc 1 1161 0
 844 003c 009B     		ldr	r3, [sp]
 845 003e 43F00803 		orr	r3, r3, #8
 846 0042 0093     		str	r3, [sp]
1162:Drivers/STM32F4xx_HAL_Driver/Src/stm32f4xx_hal_hcd.c ****     
1163:Drivers/STM32F4xx_HAL_Driver/Src/stm32f4xx_hal_hcd.c ****     if((hprt0 & USB_OTG_HPRT_PENA) == USB_OTG_HPRT_PENA)
 847              		.loc 1 1163 0
 848 0044 019B     		ldr	r3, [sp, #4]
 849 0046 13F0040F 		tst	r3, #4
 850 004a 31D0     		beq	.L60
1164:Drivers/STM32F4xx_HAL_Driver/Src/stm32f4xx_hal_hcd.c ****     {    
1165:Drivers/STM32F4xx_HAL_Driver/Src/stm32f4xx_hal_hcd.c ****       if(hhcd->Init.phy_itface  == USB_OTG_EMBEDDED_PHY)
 851              		.loc 1 1165 0
 852 004c AB69     		ldr	r3, [r5, #24]
 853 004e 022B     		cmp	r3, #2
 854 0050 19D0     		beq	.L67
1166:Drivers/STM32F4xx_HAL_Driver/Src/stm32f4xx_hal_hcd.c ****       {
1167:Drivers/STM32F4xx_HAL_Driver/Src/stm32f4xx_hal_hcd.c ****         if ((hprt0 & USB_OTG_HPRT_PSPD) == (HPRT0_PRTSPD_LOW_SPEED << 17U))
1168:Drivers/STM32F4xx_HAL_Driver/Src/stm32f4xx_hal_hcd.c ****         {
1169:Drivers/STM32F4xx_HAL_Driver/Src/stm32f4xx_hal_hcd.c ****           USB_InitFSLSPClkSel(hhcd->Instance ,HCFG_6_MHZ );
1170:Drivers/STM32F4xx_HAL_Driver/Src/stm32f4xx_hal_hcd.c ****         }
1171:Drivers/STM32F4xx_HAL_Driver/Src/stm32f4xx_hal_hcd.c ****         else
1172:Drivers/STM32F4xx_HAL_Driver/Src/stm32f4xx_hal_hcd.c ****         {
1173:Drivers/STM32F4xx_HAL_Driver/Src/stm32f4xx_hal_hcd.c ****           USB_InitFSLSPClkSel(hhcd->Instance ,HCFG_48_MHZ );
1174:Drivers/STM32F4xx_HAL_Driver/Src/stm32f4xx_hal_hcd.c ****         }
1175:Drivers/STM32F4xx_HAL_Driver/Src/stm32f4xx_hal_hcd.c ****       }
1176:Drivers/STM32F4xx_HAL_Driver/Src/stm32f4xx_hal_hcd.c ****       else
1177:Drivers/STM32F4xx_HAL_Driver/Src/stm32f4xx_hal_hcd.c ****       {
1178:Drivers/STM32F4xx_HAL_Driver/Src/stm32f4xx_hal_hcd.c ****         if(hhcd->Init.speed == HCD_SPEED_FULL)
 855              		.loc 1 1178 0
 856 0052 EB68     		ldr	r3, [r5, #12]
ARM GAS  /var/folders/0d/93p3r6493yg7p0rvl_4r983m0000gn/T//cc4yon9B.s 			page 38


 857 0054 032B     		cmp	r3, #3
 858 0056 26D0     		beq	.L68
 859              	.L63:
1179:Drivers/STM32F4xx_HAL_Driver/Src/stm32f4xx_hal_hcd.c ****         {
1180:Drivers/STM32F4xx_HAL_Driver/Src/stm32f4xx_hal_hcd.c ****           USBx_HOST->HFIR = 60000U;
1181:Drivers/STM32F4xx_HAL_Driver/Src/stm32f4xx_hal_hcd.c ****         }
1182:Drivers/STM32F4xx_HAL_Driver/Src/stm32f4xx_hal_hcd.c ****       }
1183:Drivers/STM32F4xx_HAL_Driver/Src/stm32f4xx_hal_hcd.c ****       
1184:Drivers/STM32F4xx_HAL_Driver/Src/stm32f4xx_hal_hcd.c ****       HAL_HCD_Connect_Callback(hhcd);
 860              		.loc 1 1184 0
 861 0058 2846     		mov	r0, r5
 862 005a FFF7FEFF 		bl	HAL_HCD_Connect_Callback
 863              	.LVL69:
 864              	.L59:
1185:Drivers/STM32F4xx_HAL_Driver/Src/stm32f4xx_hal_hcd.c ****     }
1186:Drivers/STM32F4xx_HAL_Driver/Src/stm32f4xx_hal_hcd.c ****     else
1187:Drivers/STM32F4xx_HAL_Driver/Src/stm32f4xx_hal_hcd.c ****     {
1188:Drivers/STM32F4xx_HAL_Driver/Src/stm32f4xx_hal_hcd.c ****       /* Clean up HPRT */
1189:Drivers/STM32F4xx_HAL_Driver/Src/stm32f4xx_hal_hcd.c ****       USBx_HPRT0 &= ~(USB_OTG_HPRT_PENA | USB_OTG_HPRT_PCDET |\
1190:Drivers/STM32F4xx_HAL_Driver/Src/stm32f4xx_hal_hcd.c ****         USB_OTG_HPRT_PENCHNG | USB_OTG_HPRT_POCCHNG );
1191:Drivers/STM32F4xx_HAL_Driver/Src/stm32f4xx_hal_hcd.c ****       
1192:Drivers/STM32F4xx_HAL_Driver/Src/stm32f4xx_hal_hcd.c ****       USB_UNMASK_INTERRUPT(hhcd->Instance, USB_OTG_GINTSTS_DISCINT); 
1193:Drivers/STM32F4xx_HAL_Driver/Src/stm32f4xx_hal_hcd.c ****     }    
1194:Drivers/STM32F4xx_HAL_Driver/Src/stm32f4xx_hal_hcd.c ****   }
1195:Drivers/STM32F4xx_HAL_Driver/Src/stm32f4xx_hal_hcd.c ****   
1196:Drivers/STM32F4xx_HAL_Driver/Src/stm32f4xx_hal_hcd.c ****   /* Check for an over current */
1197:Drivers/STM32F4xx_HAL_Driver/Src/stm32f4xx_hal_hcd.c ****   if((hprt0 & USB_OTG_HPRT_POCCHNG) == USB_OTG_HPRT_POCCHNG)
 865              		.loc 1 1197 0
 866 005e 019B     		ldr	r3, [sp, #4]
 867 0060 13F0200F 		tst	r3, #32
 868 0064 03D0     		beq	.L64
1198:Drivers/STM32F4xx_HAL_Driver/Src/stm32f4xx_hal_hcd.c ****   {
1199:Drivers/STM32F4xx_HAL_Driver/Src/stm32f4xx_hal_hcd.c ****     hprt0_dup |= USB_OTG_HPRT_POCCHNG;
 869              		.loc 1 1199 0
 870 0066 009B     		ldr	r3, [sp]
 871 0068 43F02003 		orr	r3, r3, #32
 872 006c 0093     		str	r3, [sp]
 873              	.L64:
1200:Drivers/STM32F4xx_HAL_Driver/Src/stm32f4xx_hal_hcd.c ****   }
1201:Drivers/STM32F4xx_HAL_Driver/Src/stm32f4xx_hal_hcd.c **** 
1202:Drivers/STM32F4xx_HAL_Driver/Src/stm32f4xx_hal_hcd.c ****   /* Clear Port Interrupts */
1203:Drivers/STM32F4xx_HAL_Driver/Src/stm32f4xx_hal_hcd.c ****   USBx_HPRT0 = hprt0_dup;
 874              		.loc 1 1203 0
 875 006e 009B     		ldr	r3, [sp]
 876 0070 C4F84034 		str	r3, [r4, #1088]
1204:Drivers/STM32F4xx_HAL_Driver/Src/stm32f4xx_hal_hcd.c **** }
 877              		.loc 1 1204 0
 878 0074 03B0     		add	sp, sp, #12
 879              	.LCFI16:
 880              		.cfi_remember_state
 881              		.cfi_def_cfa_offset 12
 882              		@ sp needed
 883 0076 30BD     		pop	{r4, r5, pc}
 884              	.LVL70:
 885              	.L66:
 886              	.LCFI17:
 887              		.cfi_restore_state
ARM GAS  /var/folders/0d/93p3r6493yg7p0rvl_4r983m0000gn/T//cc4yon9B.s 			page 39


1151:Drivers/STM32F4xx_HAL_Driver/Src/stm32f4xx_hal_hcd.c ****       HAL_HCD_Connect_Callback(hhcd);
 888              		.loc 1 1151 0
 889 0078 A369     		ldr	r3, [r4, #24]
 890 007a 23F00053 		bic	r3, r3, #536870912
 891 007e A361     		str	r3, [r4, #24]
1152:Drivers/STM32F4xx_HAL_Driver/Src/stm32f4xx_hal_hcd.c ****     }
 892              		.loc 1 1152 0
 893 0080 FFF7FEFF 		bl	HAL_HCD_Connect_Callback
 894              	.LVL71:
 895 0084 D2E7     		b	.L58
 896              	.L67:
1167:Drivers/STM32F4xx_HAL_Driver/Src/stm32f4xx_hal_hcd.c ****         {
 897              		.loc 1 1167 0
 898 0086 019B     		ldr	r3, [sp, #4]
 899 0088 03F4C023 		and	r3, r3, #393216
 900 008c B3F5802F 		cmp	r3, #262144
 901 0090 04D0     		beq	.L69
1173:Drivers/STM32F4xx_HAL_Driver/Src/stm32f4xx_hal_hcd.c ****         }
 902              		.loc 1 1173 0
 903 0092 0121     		movs	r1, #1
 904 0094 2868     		ldr	r0, [r5]
 905 0096 FFF7FEFF 		bl	USB_InitFSLSPClkSel
 906              	.LVL72:
 907 009a DDE7     		b	.L63
 908              	.L69:
1169:Drivers/STM32F4xx_HAL_Driver/Src/stm32f4xx_hal_hcd.c ****         }
 909              		.loc 1 1169 0
 910 009c 0221     		movs	r1, #2
 911 009e 2868     		ldr	r0, [r5]
 912 00a0 FFF7FEFF 		bl	USB_InitFSLSPClkSel
 913              	.LVL73:
 914 00a4 D8E7     		b	.L63
 915              	.L68:
1180:Drivers/STM32F4xx_HAL_Driver/Src/stm32f4xx_hal_hcd.c ****         }
 916              		.loc 1 1180 0
 917 00a6 4EF66022 		movw	r2, #60000
 918 00aa C4F80424 		str	r2, [r4, #1028]
 919 00ae D3E7     		b	.L63
 920              	.L60:
1189:Drivers/STM32F4xx_HAL_Driver/Src/stm32f4xx_hal_hcd.c ****         USB_OTG_HPRT_PENCHNG | USB_OTG_HPRT_POCCHNG );
 921              		.loc 1 1189 0
 922 00b0 D4F84034 		ldr	r3, [r4, #1088]
 923 00b4 23F02E03 		bic	r3, r3, #46
 924 00b8 C4F84034 		str	r3, [r4, #1088]
1192:Drivers/STM32F4xx_HAL_Driver/Src/stm32f4xx_hal_hcd.c ****     }    
 925              		.loc 1 1192 0
 926 00bc 2A68     		ldr	r2, [r5]
 927 00be 9369     		ldr	r3, [r2, #24]
 928 00c0 43F00053 		orr	r3, r3, #536870912
 929 00c4 9361     		str	r3, [r2, #24]
 930 00c6 CAE7     		b	.L59
 931              		.cfi_endproc
 932              	.LFE150:
 934              		.section	.text.HAL_HCD_Disconnect_Callback,"ax",%progbits
 935              		.align	1
 936              		.weak	HAL_HCD_Disconnect_Callback
 937              		.syntax unified
ARM GAS  /var/folders/0d/93p3r6493yg7p0rvl_4r983m0000gn/T//cc4yon9B.s 			page 40


 938              		.thumb
 939              		.thumb_func
 940              		.fpu fpv4-sp-d16
 942              	HAL_HCD_Disconnect_Callback:
 943              	.LFB136:
 587:Drivers/STM32F4xx_HAL_Driver/Src/stm32f4xx_hal_hcd.c ****   /* Prevent unused argument(s) compilation warning */
 944              		.loc 1 587 0
 945              		.cfi_startproc
 946              		@ args = 0, pretend = 0, frame = 0
 947              		@ frame_needed = 0, uses_anonymous_args = 0
 948              		@ link register save eliminated.
 949              	.LVL74:
 593:Drivers/STM32F4xx_HAL_Driver/Src/stm32f4xx_hal_hcd.c **** 
 950              		.loc 1 593 0
 951 0000 7047     		bx	lr
 952              		.cfi_endproc
 953              	.LFE136:
 955              		.section	.text.HAL_HCD_HC_NotifyURBChange_Callback,"ax",%progbits
 956              		.align	1
 957              		.weak	HAL_HCD_HC_NotifyURBChange_Callback
 958              		.syntax unified
 959              		.thumb
 960              		.thumb_func
 961              		.fpu fpv4-sp-d16
 963              	HAL_HCD_HC_NotifyURBChange_Callback:
 964              	.LFB137:
 611:Drivers/STM32F4xx_HAL_Driver/Src/stm32f4xx_hal_hcd.c ****   /* Prevent unused argument(s) compilation warning */
 965              		.loc 1 611 0
 966              		.cfi_startproc
 967              		@ args = 0, pretend = 0, frame = 0
 968              		@ frame_needed = 0, uses_anonymous_args = 0
 969              		@ link register save eliminated.
 970              	.LVL75:
 619:Drivers/STM32F4xx_HAL_Driver/Src/stm32f4xx_hal_hcd.c **** 
 971              		.loc 1 619 0
 972 0000 7047     		bx	lr
 973              		.cfi_endproc
 974              	.LFE137:
 976              		.section	.text.HCD_HC_IN_IRQHandler,"ax",%progbits
 977              		.align	1
 978              		.syntax unified
 979              		.thumb
 980              		.thumb_func
 981              		.fpu fpv4-sp-d16
 983              	HCD_HC_IN_IRQHandler:
 984              	.LFB147:
 800:Drivers/STM32F4xx_HAL_Driver/Src/stm32f4xx_hal_hcd.c ****   USB_OTG_GlobalTypeDef *USBx = hhcd->Instance;
 985              		.loc 1 800 0
 986              		.cfi_startproc
 987              		@ args = 0, pretend = 0, frame = 0
 988              		@ frame_needed = 0, uses_anonymous_args = 0
 989              	.LVL76:
 990 0000 F8B5     		push	{r3, r4, r5, r6, r7, lr}
 991              	.LCFI18:
 992              		.cfi_def_cfa_offset 24
 993              		.cfi_offset 3, -24
 994              		.cfi_offset 4, -20
ARM GAS  /var/folders/0d/93p3r6493yg7p0rvl_4r983m0000gn/T//cc4yon9B.s 			page 41


 995              		.cfi_offset 5, -16
 996              		.cfi_offset 6, -12
 997              		.cfi_offset 7, -8
 998              		.cfi_offset 14, -4
 999 0002 0646     		mov	r6, r0
 1000 0004 0D46     		mov	r5, r1
 801:Drivers/STM32F4xx_HAL_Driver/Src/stm32f4xx_hal_hcd.c ****   uint32_t tmpreg = 0U;
 1001              		.loc 1 801 0
 1002 0006 0768     		ldr	r7, [r0]
 1003              	.LVL77:
 804:Drivers/STM32F4xx_HAL_Driver/Src/stm32f4xx_hal_hcd.c ****   {
 1004              		.loc 1 804 0
 1005 0008 07EB4117 		add	r7, r7, r1, lsl #5
 1006              	.LVL78:
 1007 000c 07F5A064 		add	r4, r7, #1280
 1008 0010 A368     		ldr	r3, [r4, #8]
 1009 0012 13F0040F 		tst	r3, #4
 1010 0016 41D0     		beq	.L73
 806:Drivers/STM32F4xx_HAL_Driver/Src/stm32f4xx_hal_hcd.c ****     __HAL_HCD_UNMASK_HALT_HC_INT(chnum);
 1011              		.loc 1 806 0
 1012 0018 0423     		movs	r3, #4
 1013 001a A360     		str	r3, [r4, #8]
 1014              	.LVL79:
 807:Drivers/STM32F4xx_HAL_Driver/Src/stm32f4xx_hal_hcd.c ****   }  
 1015              		.loc 1 807 0
 1016 001c E368     		ldr	r3, [r4, #12]
 1017 001e 43F00203 		orr	r3, r3, #2
 1018 0022 E360     		str	r3, [r4, #12]
 1019              	.LVL80:
 1020              	.L74:
 831:Drivers/STM32F4xx_HAL_Driver/Src/stm32f4xx_hal_hcd.c ****   {
 1021              		.loc 1 831 0
 1022 0024 A368     		ldr	r3, [r4, #8]
 1023 0026 13F4007F 		tst	r3, #512
 1024 002a 6DD1     		bne	.L95
 838:Drivers/STM32F4xx_HAL_Driver/Src/stm32f4xx_hal_hcd.c ****   {
 1025              		.loc 1 838 0
 1026 002c A368     		ldr	r3, [r4, #8]
 1027 002e 13F0010F 		tst	r3, #1
 1028 0032 00F08A80 		beq	.L79
 841:Drivers/STM32F4xx_HAL_Driver/Src/stm32f4xx_hal_hcd.c ****     {
 1029              		.loc 1 841 0
 1030 0036 3369     		ldr	r3, [r6, #16]
 1031 0038 63B1     		cbz	r3, .L80
 843:Drivers/STM32F4xx_HAL_Driver/Src/stm32f4xx_hal_hcd.c ****         (USBx_HC(chnum)->HCTSIZ & USB_OTG_HCTSIZ_XFRSIZ);
 1032              		.loc 1 843 0
 1033 003a AB00     		lsls	r3, r5, #2
 1034 003c 5919     		adds	r1, r3, r5
 1035 003e CA00     		lsls	r2, r1, #3
 1036 0040 3244     		add	r2, r2, r6
 1037 0042 916C     		ldr	r1, [r2, #72]
 844:Drivers/STM32F4xx_HAL_Driver/Src/stm32f4xx_hal_hcd.c ****     }
 1038              		.loc 1 844 0
 1039 0044 2269     		ldr	r2, [r4, #16]
 1040 0046 C2F31202 		ubfx	r2, r2, #0, #19
 843:Drivers/STM32F4xx_HAL_Driver/Src/stm32f4xx_hal_hcd.c ****         (USBx_HC(chnum)->HCTSIZ & USB_OTG_HCTSIZ_XFRSIZ);
 1041              		.loc 1 843 0
ARM GAS  /var/folders/0d/93p3r6493yg7p0rvl_4r983m0000gn/T//cc4yon9B.s 			page 42


 1042 004a 891A     		subs	r1, r1, r2
 1043 004c 2B44     		add	r3, r3, r5
 1044 004e DA00     		lsls	r2, r3, #3
 1045 0050 3244     		add	r2, r2, r6
 1046 0052 D164     		str	r1, [r2, #76]
 1047              	.L80:
 847:Drivers/STM32F4xx_HAL_Driver/Src/stm32f4xx_hal_hcd.c ****     hhcd->hc[chnum].ErrCnt = 0U;
 1048              		.loc 1 847 0
 1049 0054 AA00     		lsls	r2, r5, #2
 1050 0056 2A44     		add	r2, r2, r5
 1051 0058 D300     		lsls	r3, r2, #3
 1052 005a 3344     		add	r3, r3, r6
 1053 005c 0122     		movs	r2, #1
 1054 005e 83F85D20 		strb	r2, [r3, #93]
 848:Drivers/STM32F4xx_HAL_Driver/Src/stm32f4xx_hal_hcd.c ****     __HAL_HCD_CLEAR_HC_INT(chnum, USB_OTG_HCINT_XFRC);
 1055              		.loc 1 848 0
 1056 0062 0021     		movs	r1, #0
 1057 0064 9965     		str	r1, [r3, #88]
 849:Drivers/STM32F4xx_HAL_Driver/Src/stm32f4xx_hal_hcd.c ****     
 1058              		.loc 1 849 0
 1059 0066 A260     		str	r2, [r4, #8]
 852:Drivers/STM32F4xx_HAL_Driver/Src/stm32f4xx_hal_hcd.c ****         (hhcd->hc[chnum].ep_type == EP_TYPE_BULK))
 1060              		.loc 1 852 0
 1061 0068 93F83F30 		ldrb	r3, [r3, #63]	@ zero_extendqisi2
 1062 006c 002B     		cmp	r3, #0
 1063 006e 57D0     		beq	.L81
 852:Drivers/STM32F4xx_HAL_Driver/Src/stm32f4xx_hal_hcd.c ****         (hhcd->hc[chnum].ep_type == EP_TYPE_BULK))
 1064              		.loc 1 852 0 is_stmt 0 discriminator 1
 1065 0070 022B     		cmp	r3, #2
 1066 0072 55D0     		beq	.L81
 860:Drivers/STM32F4xx_HAL_Driver/Src/stm32f4xx_hal_hcd.c ****     {
 1067              		.loc 1 860 0 is_stmt 1
 1068 0074 032B     		cmp	r3, #3
 1069 0076 5DD1     		bne	.L83
 862:Drivers/STM32F4xx_HAL_Driver/Src/stm32f4xx_hal_hcd.c ****       hhcd->hc[chnum].urb_state = URB_DONE; 
 1070              		.loc 1 862 0
 1071 0078 D7F80035 		ldr	r3, [r7, #1280]
 1072 007c 43F00053 		orr	r3, r3, #536870912
 1073 0080 C7F80035 		str	r3, [r7, #1280]
 863:Drivers/STM32F4xx_HAL_Driver/Src/stm32f4xx_hal_hcd.c ****       HAL_HCD_HC_NotifyURBChange_Callback(hhcd, chnum, hhcd->hc[chnum].urb_state);
 1074              		.loc 1 863 0
 1075 0084 05EB8502 		add	r2, r5, r5, lsl #2
 1076 0088 D300     		lsls	r3, r2, #3
 1077 008a 3344     		add	r3, r3, r6
 1078 008c 0122     		movs	r2, #1
 1079 008e 83F85C20 		strb	r2, [r3, #92]
 864:Drivers/STM32F4xx_HAL_Driver/Src/stm32f4xx_hal_hcd.c ****     }
 1080              		.loc 1 864 0
 1081 0092 2946     		mov	r1, r5
 1082 0094 3046     		mov	r0, r6
 1083 0096 FFF7FEFF 		bl	HAL_HCD_HC_NotifyURBChange_Callback
 1084              	.LVL81:
 1085 009a 4BE0     		b	.L83
 1086              	.LVL82:
 1087              	.L73:
 809:Drivers/STM32F4xx_HAL_Driver/Src/stm32f4xx_hal_hcd.c ****   {
 1088              		.loc 1 809 0
ARM GAS  /var/folders/0d/93p3r6493yg7p0rvl_4r983m0000gn/T//cc4yon9B.s 			page 43


 1089 009c A368     		ldr	r3, [r4, #8]
 1090 009e 13F0200F 		tst	r3, #32
 1091 00a2 02D0     		beq	.L75
 811:Drivers/STM32F4xx_HAL_Driver/Src/stm32f4xx_hal_hcd.c ****   }
 1092              		.loc 1 811 0
 1093 00a4 2023     		movs	r3, #32
 1094 00a6 A360     		str	r3, [r4, #8]
 1095              	.LVL83:
 1096 00a8 BCE7     		b	.L74
 1097              	.LVL84:
 1098              	.L75:
 814:Drivers/STM32F4xx_HAL_Driver/Src/stm32f4xx_hal_hcd.c ****   {
 1099              		.loc 1 814 0
 1100 00aa A368     		ldr	r3, [r4, #8]
 1101 00ac 13F0080F 		tst	r3, #8
 1102 00b0 17D1     		bne	.L96
 822:Drivers/STM32F4xx_HAL_Driver/Src/stm32f4xx_hal_hcd.c ****   {
 1103              		.loc 1 822 0
 1104 00b2 A368     		ldr	r3, [r4, #8]
 1105 00b4 13F4806F 		tst	r3, #1024
 1106 00b8 B4D0     		beq	.L74
 824:Drivers/STM32F4xx_HAL_Driver/Src/stm32f4xx_hal_hcd.c ****     USB_HC_Halt(hhcd->Instance, chnum);  
 1107              		.loc 1 824 0
 1108 00ba E368     		ldr	r3, [r4, #12]
 1109 00bc 43F00203 		orr	r3, r3, #2
 1110 00c0 E360     		str	r3, [r4, #12]
 1111              	.LVL85:
 825:Drivers/STM32F4xx_HAL_Driver/Src/stm32f4xx_hal_hcd.c ****     __HAL_HCD_CLEAR_HC_INT(chnum, USB_OTG_HCINT_NAK);    
 1112              		.loc 1 825 0
 1113 00c2 0068     		ldr	r0, [r0]
 1114              	.LVL86:
 1115 00c4 FFF7FEFF 		bl	USB_HC_Halt
 1116              	.LVL87:
 826:Drivers/STM32F4xx_HAL_Driver/Src/stm32f4xx_hal_hcd.c ****     hhcd->hc[chnum].state = HC_DATATGLERR;
 1117              		.loc 1 826 0
 1118 00c8 1023     		movs	r3, #16
 1119 00ca A360     		str	r3, [r4, #8]
 827:Drivers/STM32F4xx_HAL_Driver/Src/stm32f4xx_hal_hcd.c ****     __HAL_HCD_CLEAR_HC_INT(chnum, USB_OTG_HCINT_DTERR);
 1120              		.loc 1 827 0
 1121 00cc 05EB8502 		add	r2, r5, r5, lsl #2
 1122 00d0 D300     		lsls	r3, r2, #3
 1123 00d2 3344     		add	r3, r3, r6
 1124 00d4 0822     		movs	r2, #8
 1125 00d6 83F85D20 		strb	r2, [r3, #93]
 828:Drivers/STM32F4xx_HAL_Driver/Src/stm32f4xx_hal_hcd.c ****   }    
 1126              		.loc 1 828 0
 1127 00da 4FF48063 		mov	r3, #1024
 1128 00de A360     		str	r3, [r4, #8]
 1129 00e0 A0E7     		b	.L74
 1130              	.LVL88:
 1131              	.L96:
 816:Drivers/STM32F4xx_HAL_Driver/Src/stm32f4xx_hal_hcd.c ****     hhcd->hc[chnum].state = HC_STALL;
 1132              		.loc 1 816 0
 1133 00e2 E368     		ldr	r3, [r4, #12]
 1134 00e4 43F00203 		orr	r3, r3, #2
 1135 00e8 E360     		str	r3, [r4, #12]
 1136              	.LVL89:
ARM GAS  /var/folders/0d/93p3r6493yg7p0rvl_4r983m0000gn/T//cc4yon9B.s 			page 44


 817:Drivers/STM32F4xx_HAL_Driver/Src/stm32f4xx_hal_hcd.c ****     __HAL_HCD_CLEAR_HC_INT(chnum, USB_OTG_HCINT_NAK);
 1137              		.loc 1 817 0
 1138 00ea 01EB8102 		add	r2, r1, r1, lsl #2
 1139 00ee D300     		lsls	r3, r2, #3
 1140 00f0 0344     		add	r3, r3, r0
 1141 00f2 0522     		movs	r2, #5
 1142 00f4 83F85D20 		strb	r2, [r3, #93]
 818:Drivers/STM32F4xx_HAL_Driver/Src/stm32f4xx_hal_hcd.c ****     __HAL_HCD_CLEAR_HC_INT(chnum, USB_OTG_HCINT_STALL);    
 1143              		.loc 1 818 0
 1144 00f8 1023     		movs	r3, #16
 1145 00fa A360     		str	r3, [r4, #8]
 819:Drivers/STM32F4xx_HAL_Driver/Src/stm32f4xx_hal_hcd.c ****     USB_HC_Halt(hhcd->Instance, chnum);    
 1146              		.loc 1 819 0
 1147 00fc 0823     		movs	r3, #8
 1148 00fe A360     		str	r3, [r4, #8]
 820:Drivers/STM32F4xx_HAL_Driver/Src/stm32f4xx_hal_hcd.c ****   }
 1149              		.loc 1 820 0
 1150 0100 0068     		ldr	r0, [r0]
 1151              	.LVL90:
 1152 0102 FFF7FEFF 		bl	USB_HC_Halt
 1153              	.LVL91:
 1154 0106 8DE7     		b	.L74
 1155              	.L95:
 833:Drivers/STM32F4xx_HAL_Driver/Src/stm32f4xx_hal_hcd.c ****     USB_HC_Halt(hhcd->Instance, chnum);  
 1156              		.loc 1 833 0
 1157 0108 E368     		ldr	r3, [r4, #12]
 1158 010a 43F00203 		orr	r3, r3, #2
 1159 010e E360     		str	r3, [r4, #12]
 834:Drivers/STM32F4xx_HAL_Driver/Src/stm32f4xx_hal_hcd.c ****     __HAL_HCD_CLEAR_HC_INT(chnum, USB_OTG_HCINT_FRMOR);
 1160              		.loc 1 834 0
 1161 0110 2946     		mov	r1, r5
 1162 0112 3068     		ldr	r0, [r6]
 1163 0114 FFF7FEFF 		bl	USB_HC_Halt
 1164              	.LVL92:
 835:Drivers/STM32F4xx_HAL_Driver/Src/stm32f4xx_hal_hcd.c ****   }
 1165              		.loc 1 835 0
 1166 0118 4FF40073 		mov	r3, #512
 1167 011c A360     		str	r3, [r4, #8]
 1168 011e 13E0     		b	.L72
 1169              	.L81:
 855:Drivers/STM32F4xx_HAL_Driver/Src/stm32f4xx_hal_hcd.c ****       USB_HC_Halt(hhcd->Instance, chnum); 
 1170              		.loc 1 855 0
 1171 0120 E368     		ldr	r3, [r4, #12]
 1172 0122 43F00203 		orr	r3, r3, #2
 1173 0126 E360     		str	r3, [r4, #12]
 856:Drivers/STM32F4xx_HAL_Driver/Src/stm32f4xx_hal_hcd.c ****       __HAL_HCD_CLEAR_HC_INT(chnum, USB_OTG_HCINT_NAK);
 1174              		.loc 1 856 0
 1175 0128 2946     		mov	r1, r5
 1176 012a 3068     		ldr	r0, [r6]
 1177 012c FFF7FEFF 		bl	USB_HC_Halt
 1178              	.LVL93:
 857:Drivers/STM32F4xx_HAL_Driver/Src/stm32f4xx_hal_hcd.c ****       
 1179              		.loc 1 857 0
 1180 0130 1023     		movs	r3, #16
 1181 0132 A360     		str	r3, [r4, #8]
 1182              	.L83:
 866:Drivers/STM32F4xx_HAL_Driver/Src/stm32f4xx_hal_hcd.c ****     
ARM GAS  /var/folders/0d/93p3r6493yg7p0rvl_4r983m0000gn/T//cc4yon9B.s 			page 45


 1183              		.loc 1 866 0
 1184 0134 AB00     		lsls	r3, r5, #2
 1185 0136 5919     		adds	r1, r3, r5
 1186 0138 CA00     		lsls	r2, r1, #3
 1187 013a 3244     		add	r2, r2, r6
 1188 013c 92F85030 		ldrb	r3, [r2, #80]	@ zero_extendqisi2
 1189 0140 83F00103 		eor	r3, r3, #1
 1190 0144 82F85030 		strb	r3, [r2, #80]
 1191              	.LVL94:
 1192              	.L72:
 936:Drivers/STM32F4xx_HAL_Driver/Src/stm32f4xx_hal_hcd.c **** 
 1193              		.loc 1 936 0
 1194 0148 F8BD     		pop	{r3, r4, r5, r6, r7, pc}
 1195              	.LVL95:
 1196              	.L79:
 869:Drivers/STM32F4xx_HAL_Driver/Src/stm32f4xx_hal_hcd.c ****   {
 1197              		.loc 1 869 0
 1198 014a A368     		ldr	r3, [r4, #8]
 1199 014c 13F0020F 		tst	r3, #2
 1200 0150 50D0     		beq	.L84
 871:Drivers/STM32F4xx_HAL_Driver/Src/stm32f4xx_hal_hcd.c ****     
 1201              		.loc 1 871 0
 1202 0152 E368     		ldr	r3, [r4, #12]
 1203 0154 23F00203 		bic	r3, r3, #2
 1204 0158 E360     		str	r3, [r4, #12]
 873:Drivers/STM32F4xx_HAL_Driver/Src/stm32f4xx_hal_hcd.c ****     {
 1205              		.loc 1 873 0
 1206 015a 05EB8502 		add	r2, r5, r5, lsl #2
 1207 015e D300     		lsls	r3, r2, #3
 1208 0160 3344     		add	r3, r3, r6
 1209 0162 93F85D30 		ldrb	r3, [r3, #93]	@ zero_extendqisi2
 1210 0166 012B     		cmp	r3, #1
 1211 0168 20D0     		beq	.L97
 878:Drivers/STM32F4xx_HAL_Driver/Src/stm32f4xx_hal_hcd.c ****     {
 1212              		.loc 1 878 0
 1213 016a 052B     		cmp	r3, #5
 1214 016c 32D0     		beq	.L98
 883:Drivers/STM32F4xx_HAL_Driver/Src/stm32f4xx_hal_hcd.c ****             (hhcd->hc[chnum].state == HC_DATATGLERR))
 1215              		.loc 1 883 0
 1216 016e 062B     		cmp	r3, #6
 1217 0170 01D0     		beq	.L88
 883:Drivers/STM32F4xx_HAL_Driver/Src/stm32f4xx_hal_hcd.c ****             (hhcd->hc[chnum].state == HC_DATATGLERR))
 1218              		.loc 1 883 0 is_stmt 0 discriminator 1
 1219 0172 082B     		cmp	r3, #8
 1220 0174 21D1     		bne	.L86
 1221              	.L88:
 886:Drivers/STM32F4xx_HAL_Driver/Src/stm32f4xx_hal_hcd.c ****       {      
 1222              		.loc 1 886 0 is_stmt 1
 1223 0176 AA00     		lsls	r2, r5, #2
 1224 0178 2A44     		add	r2, r2, r5
 1225 017a D300     		lsls	r3, r2, #3
 1226 017c 3344     		add	r3, r3, r6
 1227 017e 9A6D     		ldr	r2, [r3, #88]
 1228 0180 511C     		adds	r1, r2, #1
 1229 0182 9965     		str	r1, [r3, #88]
 1230 0184 032A     		cmp	r2, #3
 1231 0186 2DD9     		bls	.L89
ARM GAS  /var/folders/0d/93p3r6493yg7p0rvl_4r983m0000gn/T//cc4yon9B.s 			page 46


 888:Drivers/STM32F4xx_HAL_Driver/Src/stm32f4xx_hal_hcd.c ****         hhcd->hc[chnum].urb_state = URB_ERROR;
 1232              		.loc 1 888 0
 1233 0188 AA00     		lsls	r2, r5, #2
 1234 018a 2A44     		add	r2, r2, r5
 1235 018c D300     		lsls	r3, r2, #3
 1236 018e 3344     		add	r3, r3, r6
 1237 0190 0022     		movs	r2, #0
 1238 0192 9A65     		str	r2, [r3, #88]
 889:Drivers/STM32F4xx_HAL_Driver/Src/stm32f4xx_hal_hcd.c ****       }
 1239              		.loc 1 889 0
 1240 0194 0422     		movs	r2, #4
 1241 0196 83F85C20 		strb	r2, [r3, #92]
 1242              	.L90:
 897:Drivers/STM32F4xx_HAL_Driver/Src/stm32f4xx_hal_hcd.c ****       tmpreg &= ~USB_OTG_HCCHAR_CHDIS;
 1243              		.loc 1 897 0
 1244 019a D7F80035 		ldr	r3, [r7, #1280]
 1245              	.LVL96:
 898:Drivers/STM32F4xx_HAL_Driver/Src/stm32f4xx_hal_hcd.c ****       tmpreg |= USB_OTG_HCCHAR_CHENA;
 1246              		.loc 1 898 0
 1247 019e 23F08043 		bic	r3, r3, #1073741824
 1248              	.LVL97:
 899:Drivers/STM32F4xx_HAL_Driver/Src/stm32f4xx_hal_hcd.c ****       USBx_HC(chnum)->HCCHAR = tmpreg;
 1249              		.loc 1 899 0
 1250 01a2 43F00043 		orr	r3, r3, #-2147483648
 1251              	.LVL98:
 900:Drivers/STM32F4xx_HAL_Driver/Src/stm32f4xx_hal_hcd.c ****     }
 1252              		.loc 1 900 0
 1253 01a6 C7F80035 		str	r3, [r7, #1280]
 1254 01aa 06E0     		b	.L86
 1255              	.LVL99:
 1256              	.L97:
 875:Drivers/STM32F4xx_HAL_Driver/Src/stm32f4xx_hal_hcd.c ****     }
 1257              		.loc 1 875 0
 1258 01ac 05EB8502 		add	r2, r5, r5, lsl #2
 1259 01b0 D300     		lsls	r3, r2, #3
 1260 01b2 3344     		add	r3, r3, r6
 1261 01b4 0122     		movs	r2, #1
 1262 01b6 83F85C20 		strb	r2, [r3, #92]
 1263              	.LVL100:
 1264              	.L86:
 902:Drivers/STM32F4xx_HAL_Driver/Src/stm32f4xx_hal_hcd.c ****     HAL_HCD_HC_NotifyURBChange_Callback(hhcd, chnum, hhcd->hc[chnum].urb_state);
 1265              		.loc 1 902 0
 1266 01ba 0223     		movs	r3, #2
 1267 01bc A360     		str	r3, [r4, #8]
 903:Drivers/STM32F4xx_HAL_Driver/Src/stm32f4xx_hal_hcd.c ****   }  
 1268              		.loc 1 903 0
 1269 01be 05EB8502 		add	r2, r5, r5, lsl #2
 1270 01c2 D300     		lsls	r3, r2, #3
 1271 01c4 3344     		add	r3, r3, r6
 1272 01c6 93F85C20 		ldrb	r2, [r3, #92]	@ zero_extendqisi2
 1273 01ca 2946     		mov	r1, r5
 1274 01cc 3046     		mov	r0, r6
 1275 01ce FFF7FEFF 		bl	HAL_HCD_HC_NotifyURBChange_Callback
 1276              	.LVL101:
 1277 01d2 B9E7     		b	.L72
 1278              	.LVL102:
 1279              	.L98:
ARM GAS  /var/folders/0d/93p3r6493yg7p0rvl_4r983m0000gn/T//cc4yon9B.s 			page 47


 880:Drivers/STM32F4xx_HAL_Driver/Src/stm32f4xx_hal_hcd.c ****     }   
 1280              		.loc 1 880 0
 1281 01d4 05EB8502 		add	r2, r5, r5, lsl #2
 1282 01d8 D300     		lsls	r3, r2, #3
 1283 01da 3344     		add	r3, r3, r6
 1284 01dc 0522     		movs	r2, #5
 1285 01de 83F85C20 		strb	r2, [r3, #92]
 1286 01e2 EAE7     		b	.L86
 1287              	.L89:
 893:Drivers/STM32F4xx_HAL_Driver/Src/stm32f4xx_hal_hcd.c ****       }
 1288              		.loc 1 893 0
 1289 01e4 05EB8502 		add	r2, r5, r5, lsl #2
 1290 01e8 D300     		lsls	r3, r2, #3
 1291 01ea 3344     		add	r3, r3, r6
 1292 01ec 0222     		movs	r2, #2
 1293 01ee 83F85C20 		strb	r2, [r3, #92]
 1294 01f2 D2E7     		b	.L90
 1295              	.L84:
 906:Drivers/STM32F4xx_HAL_Driver/Src/stm32f4xx_hal_hcd.c ****   {
 1296              		.loc 1 906 0
 1297 01f4 A368     		ldr	r3, [r4, #8]
 1298 01f6 13F0800F 		tst	r3, #128
 1299 01fa 26D1     		bne	.L99
 914:Drivers/STM32F4xx_HAL_Driver/Src/stm32f4xx_hal_hcd.c ****   {  
 1300              		.loc 1 914 0
 1301 01fc A368     		ldr	r3, [r4, #8]
 1302 01fe 13F0100F 		tst	r3, #16
 1303 0202 A1D0     		beq	.L72
 916:Drivers/STM32F4xx_HAL_Driver/Src/stm32f4xx_hal_hcd.c ****     {
 1304              		.loc 1 916 0
 1305 0204 05EB8502 		add	r2, r5, r5, lsl #2
 1306 0208 D300     		lsls	r3, r2, #3
 1307 020a 3344     		add	r3, r3, r6
 1308 020c 93F83F30 		ldrb	r3, [r3, #63]	@ zero_extendqisi2
 1309 0210 032B     		cmp	r3, #3
 1310 0212 32D0     		beq	.L100
 1311              	.L92:
 923:Drivers/STM32F4xx_HAL_Driver/Src/stm32f4xx_hal_hcd.c ****     __HAL_HCD_CLEAR_HC_INT(chnum, USB_OTG_HCINT_NAK);
 1312              		.loc 1 923 0
 1313 0214 AB00     		lsls	r3, r5, #2
 1314 0216 5919     		adds	r1, r3, r5
 1315 0218 CA00     		lsls	r2, r1, #3
 1316 021a 3244     		add	r2, r2, r6
 1317 021c 0321     		movs	r1, #3
 1318 021e 82F85D10 		strb	r1, [r2, #93]
 924:Drivers/STM32F4xx_HAL_Driver/Src/stm32f4xx_hal_hcd.c ****     
 1319              		.loc 1 924 0
 1320 0222 1022     		movs	r2, #16
 1321 0224 A260     		str	r2, [r4, #8]
 926:Drivers/STM32F4xx_HAL_Driver/Src/stm32f4xx_hal_hcd.c ****               (hhcd->hc[chnum].ep_type == EP_TYPE_BULK))
 1322              		.loc 1 926 0
 1323 0226 1D44     		add	r5, r5, r3
 1324 0228 05FA01F3 		lsl	r3, r5, r1
 1325 022c 1E44     		add	r6, r6, r3
 1326              	.LVL103:
 1327 022e 96F83F30 		ldrb	r3, [r6, #63]	@ zero_extendqisi2
 1328 0232 0BB1     		cbz	r3, .L93
ARM GAS  /var/folders/0d/93p3r6493yg7p0rvl_4r983m0000gn/T//cc4yon9B.s 			page 48


 926:Drivers/STM32F4xx_HAL_Driver/Src/stm32f4xx_hal_hcd.c ****               (hhcd->hc[chnum].ep_type == EP_TYPE_BULK))
 1329              		.loc 1 926 0 is_stmt 0 discriminator 1
 1330 0234 022B     		cmp	r3, #2
 1331 0236 87D1     		bne	.L72
 1332              	.L93:
 930:Drivers/STM32F4xx_HAL_Driver/Src/stm32f4xx_hal_hcd.c ****       tmpreg &= ~USB_OTG_HCCHAR_CHDIS;
 1333              		.loc 1 930 0 is_stmt 1
 1334 0238 D7F80035 		ldr	r3, [r7, #1280]
 1335              	.LVL104:
 931:Drivers/STM32F4xx_HAL_Driver/Src/stm32f4xx_hal_hcd.c ****       tmpreg |= USB_OTG_HCCHAR_CHENA;
 1336              		.loc 1 931 0
 1337 023c 23F08043 		bic	r3, r3, #1073741824
 1338              	.LVL105:
 932:Drivers/STM32F4xx_HAL_Driver/Src/stm32f4xx_hal_hcd.c ****       USBx_HC(chnum)->HCCHAR = tmpreg;
 1339              		.loc 1 932 0
 1340 0240 43F00043 		orr	r3, r3, #-2147483648
 1341              	.LVL106:
 933:Drivers/STM32F4xx_HAL_Driver/Src/stm32f4xx_hal_hcd.c ****     }
 1342              		.loc 1 933 0
 1343 0244 C7F80035 		str	r3, [r7, #1280]
 936:Drivers/STM32F4xx_HAL_Driver/Src/stm32f4xx_hal_hcd.c **** 
 1344              		.loc 1 936 0
 1345 0248 7EE7     		b	.L72
 1346              	.LVL107:
 1347              	.L99:
 908:Drivers/STM32F4xx_HAL_Driver/Src/stm32f4xx_hal_hcd.c ****     hhcd->hc[chnum].ErrCnt++;
 1348              		.loc 1 908 0
 1349 024a E368     		ldr	r3, [r4, #12]
 1350 024c 43F00203 		orr	r3, r3, #2
 1351 0250 E360     		str	r3, [r4, #12]
 909:Drivers/STM32F4xx_HAL_Driver/Src/stm32f4xx_hal_hcd.c ****     hhcd->hc[chnum].state = HC_XACTERR;
 1352              		.loc 1 909 0
 1353 0252 AB00     		lsls	r3, r5, #2
 1354 0254 5919     		adds	r1, r3, r5
 1355 0256 CA00     		lsls	r2, r1, #3
 1356 0258 3244     		add	r2, r2, r6
 1357 025a 916D     		ldr	r1, [r2, #88]
 1358 025c 0131     		adds	r1, r1, #1
 1359 025e 9165     		str	r1, [r2, #88]
 910:Drivers/STM32F4xx_HAL_Driver/Src/stm32f4xx_hal_hcd.c ****     USB_HC_Halt(hhcd->Instance, chnum);     
 1360              		.loc 1 910 0
 1361 0260 2B44     		add	r3, r3, r5
 1362 0262 DA00     		lsls	r2, r3, #3
 1363 0264 3244     		add	r2, r2, r6
 1364 0266 0623     		movs	r3, #6
 1365 0268 82F85D30 		strb	r3, [r2, #93]
 911:Drivers/STM32F4xx_HAL_Driver/Src/stm32f4xx_hal_hcd.c ****     __HAL_HCD_CLEAR_HC_INT(chnum, USB_OTG_HCINT_TXERR);
 1366              		.loc 1 911 0
 1367 026c 2946     		mov	r1, r5
 1368 026e 3068     		ldr	r0, [r6]
 1369 0270 FFF7FEFF 		bl	USB_HC_Halt
 1370              	.LVL108:
 912:Drivers/STM32F4xx_HAL_Driver/Src/stm32f4xx_hal_hcd.c ****   }
 1371              		.loc 1 912 0
 1372 0274 8023     		movs	r3, #128
 1373 0276 A360     		str	r3, [r4, #8]
 1374 0278 66E7     		b	.L72
ARM GAS  /var/folders/0d/93p3r6493yg7p0rvl_4r983m0000gn/T//cc4yon9B.s 			page 49


 1375              	.L100:
 918:Drivers/STM32F4xx_HAL_Driver/Src/stm32f4xx_hal_hcd.c ****       USB_HC_Halt(hhcd->Instance, chnum);  
 1376              		.loc 1 918 0
 1377 027a E368     		ldr	r3, [r4, #12]
 1378 027c 43F00203 		orr	r3, r3, #2
 1379 0280 E360     		str	r3, [r4, #12]
 919:Drivers/STM32F4xx_HAL_Driver/Src/stm32f4xx_hal_hcd.c ****     }
 1380              		.loc 1 919 0
 1381 0282 2946     		mov	r1, r5
 1382 0284 3068     		ldr	r0, [r6]
 1383 0286 FFF7FEFF 		bl	USB_HC_Halt
 1384              	.LVL109:
 1385 028a C3E7     		b	.L92
 1386              		.cfi_endproc
 1387              	.LFE147:
 1389              		.section	.text.HCD_HC_OUT_IRQHandler,"ax",%progbits
 1390              		.align	1
 1391              		.syntax unified
 1392              		.thumb
 1393              		.thumb_func
 1394              		.fpu fpv4-sp-d16
 1396              	HCD_HC_OUT_IRQHandler:
 1397              	.LFB148:
 946:Drivers/STM32F4xx_HAL_Driver/Src/stm32f4xx_hal_hcd.c ****   USB_OTG_GlobalTypeDef *USBx = hhcd->Instance;
 1398              		.loc 1 946 0
 1399              		.cfi_startproc
 1400              		@ args = 0, pretend = 0, frame = 0
 1401              		@ frame_needed = 0, uses_anonymous_args = 0
 1402              	.LVL110:
 1403 0000 F8B5     		push	{r3, r4, r5, r6, r7, lr}
 1404              	.LCFI19:
 1405              		.cfi_def_cfa_offset 24
 1406              		.cfi_offset 3, -24
 1407              		.cfi_offset 4, -20
 1408              		.cfi_offset 5, -16
 1409              		.cfi_offset 6, -12
 1410              		.cfi_offset 7, -8
 1411              		.cfi_offset 14, -4
 947:Drivers/STM32F4xx_HAL_Driver/Src/stm32f4xx_hal_hcd.c ****   
 1412              		.loc 1 947 0
 1413 0002 0468     		ldr	r4, [r0]
 1414              	.LVL111:
 949:Drivers/STM32F4xx_HAL_Driver/Src/stm32f4xx_hal_hcd.c ****   {
 1415              		.loc 1 949 0
 1416 0004 04EB4114 		add	r4, r4, r1, lsl #5
 1417              	.LVL112:
 1418 0008 04F5A064 		add	r4, r4, #1280
 1419 000c A368     		ldr	r3, [r4, #8]
 1420 000e 13F0040F 		tst	r3, #4
 1421 0012 24D1     		bne	.L120
 1422 0014 0E46     		mov	r6, r1
 1423 0016 0546     		mov	r5, r0
 954:Drivers/STM32F4xx_HAL_Driver/Src/stm32f4xx_hal_hcd.c ****   {
 1424              		.loc 1 954 0
 1425 0018 A368     		ldr	r3, [r4, #8]
 1426 001a 13F0200F 		tst	r3, #32
 1427 001e 25D0     		beq	.L104
ARM GAS  /var/folders/0d/93p3r6493yg7p0rvl_4r983m0000gn/T//cc4yon9B.s 			page 50


 956:Drivers/STM32F4xx_HAL_Driver/Src/stm32f4xx_hal_hcd.c ****     
 1428              		.loc 1 956 0
 1429 0020 2023     		movs	r3, #32
 1430 0022 A360     		str	r3, [r4, #8]
 1431              	.LVL113:
 958:Drivers/STM32F4xx_HAL_Driver/Src/stm32f4xx_hal_hcd.c ****     {
 1432              		.loc 1 958 0
 1433 0024 01EB8102 		add	r2, r1, r1, lsl #2
 1434 0028 D300     		lsls	r3, r2, #3
 1435 002a 0344     		add	r3, r3, r0
 1436 002c 93F83D30 		ldrb	r3, [r3, #61]	@ zero_extendqisi2
 1437 0030 012B     		cmp	r3, #1
 1438 0032 1AD1     		bne	.L101
 960:Drivers/STM32F4xx_HAL_Driver/Src/stm32f4xx_hal_hcd.c ****       __HAL_HCD_UNMASK_HALT_HC_INT(chnum); 
 1439              		.loc 1 960 0
 1440 0034 8F00     		lsls	r7, r1, #2
 1441 0036 7A18     		adds	r2, r7, r1
 1442 0038 D300     		lsls	r3, r2, #3
 1443 003a 0344     		add	r3, r3, r0
 1444 003c 0422     		movs	r2, #4
 1445 003e 83F85D20 		strb	r2, [r3, #93]
 961:Drivers/STM32F4xx_HAL_Driver/Src/stm32f4xx_hal_hcd.c ****       USB_HC_Halt(hhcd->Instance, chnum); 
 1446              		.loc 1 961 0
 1447 0042 E368     		ldr	r3, [r4, #12]
 1448 0044 43F00203 		orr	r3, r3, #2
 1449 0048 E360     		str	r3, [r4, #12]
 962:Drivers/STM32F4xx_HAL_Driver/Src/stm32f4xx_hal_hcd.c ****       hhcd->hc[chnum].urb_state  = URB_NOTREADY;
 1450              		.loc 1 962 0
 1451 004a 0068     		ldr	r0, [r0]
 1452              	.LVL114:
 1453 004c FFF7FEFF 		bl	USB_HC_Halt
 1454              	.LVL115:
 963:Drivers/STM32F4xx_HAL_Driver/Src/stm32f4xx_hal_hcd.c ****     }
 1455              		.loc 1 963 0
 1456 0050 B919     		adds	r1, r7, r6
 1457 0052 C800     		lsls	r0, r1, #3
 1458 0054 2844     		add	r0, r0, r5
 1459 0056 0223     		movs	r3, #2
 1460 0058 80F85C30 		strb	r3, [r0, #92]
 1461 005c 05E0     		b	.L101
 1462              	.LVL116:
 1463              	.L120:
 951:Drivers/STM32F4xx_HAL_Driver/Src/stm32f4xx_hal_hcd.c ****     __HAL_HCD_UNMASK_HALT_HC_INT(chnum);
 1464              		.loc 1 951 0
 1465 005e 0423     		movs	r3, #4
 1466 0060 A360     		str	r3, [r4, #8]
 1467              	.LVL117:
 952:Drivers/STM32F4xx_HAL_Driver/Src/stm32f4xx_hal_hcd.c ****   }  
 1468              		.loc 1 952 0
 1469 0062 E368     		ldr	r3, [r4, #12]
 1470 0064 43F00203 		orr	r3, r3, #2
 1471 0068 E360     		str	r3, [r4, #12]
 1472              	.LVL118:
 1473              	.L101:
1074:Drivers/STM32F4xx_HAL_Driver/Src/stm32f4xx_hal_hcd.c **** 
 1474              		.loc 1 1074 0
 1475 006a F8BD     		pop	{r3, r4, r5, r6, r7, pc}
ARM GAS  /var/folders/0d/93p3r6493yg7p0rvl_4r983m0000gn/T//cc4yon9B.s 			page 51


 1476              	.LVL119:
 1477              	.L104:
 967:Drivers/STM32F4xx_HAL_Driver/Src/stm32f4xx_hal_hcd.c ****   {
 1478              		.loc 1 967 0
 1479 006c A368     		ldr	r3, [r4, #8]
 1480 006e 13F0400F 		tst	r3, #64
 1481 0072 4CD1     		bne	.L121
 977:Drivers/STM32F4xx_HAL_Driver/Src/stm32f4xx_hal_hcd.c ****   {
 1482              		.loc 1 977 0
 1483 0074 A368     		ldr	r3, [r4, #8]
 1484 0076 13F4007F 		tst	r3, #512
 1485 007a 5FD1     		bne	.L122
 984:Drivers/STM32F4xx_HAL_Driver/Src/stm32f4xx_hal_hcd.c ****   {
 1486              		.loc 1 984 0
 1487 007c A368     		ldr	r3, [r4, #8]
 1488 007e 13F0010F 		tst	r3, #1
 1489 0082 66D1     		bne	.L123
 994:Drivers/STM32F4xx_HAL_Driver/Src/stm32f4xx_hal_hcd.c ****   {
 1490              		.loc 1 994 0
 1491 0084 A368     		ldr	r3, [r4, #8]
 1492 0086 13F0080F 		tst	r3, #8
 1493 008a 77D1     		bne	.L124
1002:Drivers/STM32F4xx_HAL_Driver/Src/stm32f4xx_hal_hcd.c ****   {  
 1494              		.loc 1 1002 0
 1495 008c A368     		ldr	r3, [r4, #8]
 1496 008e 13F0100F 		tst	r3, #16
 1497 0092 40F08480 		bne	.L125
1011:Drivers/STM32F4xx_HAL_Driver/Src/stm32f4xx_hal_hcd.c ****   {
 1498              		.loc 1 1011 0
 1499 0096 A368     		ldr	r3, [r4, #8]
 1500 0098 13F0800F 		tst	r3, #128
 1501 009c 40F09580 		bne	.L126
1019:Drivers/STM32F4xx_HAL_Driver/Src/stm32f4xx_hal_hcd.c ****   {
 1502              		.loc 1 1019 0
 1503 00a0 A368     		ldr	r3, [r4, #8]
 1504 00a2 13F4806F 		tst	r3, #1024
 1505 00a6 40F0A180 		bne	.L127
1029:Drivers/STM32F4xx_HAL_Driver/Src/stm32f4xx_hal_hcd.c ****   {
 1506              		.loc 1 1029 0
 1507 00aa A368     		ldr	r3, [r4, #8]
 1508 00ac 13F0020F 		tst	r3, #2
 1509 00b0 DBD0     		beq	.L101
1031:Drivers/STM32F4xx_HAL_Driver/Src/stm32f4xx_hal_hcd.c ****     
 1510              		.loc 1 1031 0
 1511 00b2 E368     		ldr	r3, [r4, #12]
 1512 00b4 23F00203 		bic	r3, r3, #2
 1513 00b8 E360     		str	r3, [r4, #12]
 1514              	.LVL120:
1033:Drivers/STM32F4xx_HAL_Driver/Src/stm32f4xx_hal_hcd.c ****     {
 1515              		.loc 1 1033 0
 1516 00ba 01EB8102 		add	r2, r1, r1, lsl #2
 1517 00be D300     		lsls	r3, r2, #3
 1518 00c0 0344     		add	r3, r3, r0
 1519 00c2 93F85D30 		ldrb	r3, [r3, #93]	@ zero_extendqisi2
 1520 00c6 012B     		cmp	r3, #1
 1521 00c8 00F0A480 		beq	.L128
1041:Drivers/STM32F4xx_HAL_Driver/Src/stm32f4xx_hal_hcd.c ****     {
ARM GAS  /var/folders/0d/93p3r6493yg7p0rvl_4r983m0000gn/T//cc4yon9B.s 			page 52


 1522              		.loc 1 1041 0
 1523 00cc 032B     		cmp	r3, #3
 1524 00ce 00F0C480 		beq	.L129
1046:Drivers/STM32F4xx_HAL_Driver/Src/stm32f4xx_hal_hcd.c ****     {
 1525              		.loc 1 1046 0
 1526 00d2 042B     		cmp	r3, #4
 1527 00d4 00F0C980 		beq	.L130
1052:Drivers/STM32F4xx_HAL_Driver/Src/stm32f4xx_hal_hcd.c ****     {
 1528              		.loc 1 1052 0
 1529 00d8 052B     		cmp	r3, #5
 1530 00da 00F0D180 		beq	.L131
1057:Drivers/STM32F4xx_HAL_Driver/Src/stm32f4xx_hal_hcd.c ****             (hhcd->hc[chnum].state == HC_DATATGLERR))
 1531              		.loc 1 1057 0
 1532 00de 062B     		cmp	r3, #6
 1533 00e0 02D0     		beq	.L117
1057:Drivers/STM32F4xx_HAL_Driver/Src/stm32f4xx_hal_hcd.c ****             (hhcd->hc[chnum].state == HC_DATATGLERR))
 1534              		.loc 1 1057 0 is_stmt 0 discriminator 1
 1535 00e2 082B     		cmp	r3, #8
 1536 00e4 40F0A180 		bne	.L113
 1537              	.L117:
1060:Drivers/STM32F4xx_HAL_Driver/Src/stm32f4xx_hal_hcd.c ****       {      
 1538              		.loc 1 1060 0 is_stmt 1
 1539 00e8 B200     		lsls	r2, r6, #2
 1540 00ea 3244     		add	r2, r2, r6
 1541 00ec D300     		lsls	r3, r2, #3
 1542 00ee 2B44     		add	r3, r3, r5
 1543 00f0 9A6D     		ldr	r2, [r3, #88]
 1544 00f2 511C     		adds	r1, r2, #1
 1545              	.LVL121:
 1546 00f4 9965     		str	r1, [r3, #88]
 1547 00f6 032A     		cmp	r2, #3
 1548 00f8 40F2CA80 		bls	.L118
1062:Drivers/STM32F4xx_HAL_Driver/Src/stm32f4xx_hal_hcd.c ****         hhcd->hc[chnum].urb_state = URB_ERROR;
 1549              		.loc 1 1062 0
 1550 00fc 2823     		movs	r3, #40
 1551 00fe 03FB0653 		mla	r3, r3, r6, r5
 1552 0102 0022     		movs	r2, #0
 1553 0104 9A65     		str	r2, [r3, #88]
1063:Drivers/STM32F4xx_HAL_Driver/Src/stm32f4xx_hal_hcd.c ****       }
 1554              		.loc 1 1063 0
 1555 0106 0422     		movs	r2, #4
 1556 0108 83F85C20 		strb	r2, [r3, #92]
 1557 010c 8DE0     		b	.L113
 1558              	.LVL122:
 1559              	.L121:
 969:Drivers/STM32F4xx_HAL_Driver/Src/stm32f4xx_hal_hcd.c ****     hhcd->hc[chnum].ErrCnt= 0U;    
 1560              		.loc 1 969 0
 1561 010e 8B00     		lsls	r3, r1, #2
 1562 0110 5918     		adds	r1, r3, r1
 1563              	.LVL123:
 1564 0112 CA00     		lsls	r2, r1, #3
 1565 0114 0244     		add	r2, r2, r0
 1566 0116 0421     		movs	r1, #4
 1567 0118 82F85D10 		strb	r1, [r2, #93]
 1568              	.LVL124:
 970:Drivers/STM32F4xx_HAL_Driver/Src/stm32f4xx_hal_hcd.c ****     __HAL_HCD_UNMASK_HALT_HC_INT(chnum); 
 1569              		.loc 1 970 0
ARM GAS  /var/folders/0d/93p3r6493yg7p0rvl_4r983m0000gn/T//cc4yon9B.s 			page 53


 1570 011c 3344     		add	r3, r3, r6
 1571 011e DA00     		lsls	r2, r3, #3
 1572 0120 0244     		add	r2, r2, r0
 1573 0122 0023     		movs	r3, #0
 1574 0124 9365     		str	r3, [r2, #88]
 971:Drivers/STM32F4xx_HAL_Driver/Src/stm32f4xx_hal_hcd.c ****     USB_HC_Halt(hhcd->Instance, chnum);      
 1575              		.loc 1 971 0
 1576 0126 E368     		ldr	r3, [r4, #12]
 1577 0128 43F00203 		orr	r3, r3, #2
 1578 012c E360     		str	r3, [r4, #12]
 972:Drivers/STM32F4xx_HAL_Driver/Src/stm32f4xx_hal_hcd.c ****     __HAL_HCD_CLEAR_HC_INT(chnum, USB_OTG_HCINT_NYET);
 1579              		.loc 1 972 0
 1580 012e 3146     		mov	r1, r6
 1581 0130 0068     		ldr	r0, [r0]
 1582              	.LVL125:
 1583 0132 FFF7FEFF 		bl	USB_HC_Halt
 1584              	.LVL126:
 973:Drivers/STM32F4xx_HAL_Driver/Src/stm32f4xx_hal_hcd.c ****     
 1585              		.loc 1 973 0
 1586 0136 4023     		movs	r3, #64
 1587 0138 A360     		str	r3, [r4, #8]
 1588 013a 96E7     		b	.L101
 1589              	.LVL127:
 1590              	.L122:
 979:Drivers/STM32F4xx_HAL_Driver/Src/stm32f4xx_hal_hcd.c ****     USB_HC_Halt(hhcd->Instance, chnum);  
 1591              		.loc 1 979 0
 1592 013c E368     		ldr	r3, [r4, #12]
 1593 013e 43F00203 		orr	r3, r3, #2
 1594 0142 E360     		str	r3, [r4, #12]
 1595              	.LVL128:
 980:Drivers/STM32F4xx_HAL_Driver/Src/stm32f4xx_hal_hcd.c ****     __HAL_HCD_CLEAR_HC_INT(chnum, USB_OTG_HCINT_FRMOR);
 1596              		.loc 1 980 0
 1597 0144 0068     		ldr	r0, [r0]
 1598              	.LVL129:
 1599 0146 FFF7FEFF 		bl	USB_HC_Halt
 1600              	.LVL130:
 981:Drivers/STM32F4xx_HAL_Driver/Src/stm32f4xx_hal_hcd.c ****   }
 1601              		.loc 1 981 0
 1602 014a 4FF40073 		mov	r3, #512
 1603 014e A360     		str	r3, [r4, #8]
 1604 0150 8BE7     		b	.L101
 1605              	.LVL131:
 1606              	.L123:
 986:Drivers/STM32F4xx_HAL_Driver/Src/stm32f4xx_hal_hcd.c ****     __HAL_HCD_UNMASK_HALT_HC_INT(chnum);
 1607              		.loc 1 986 0
 1608 0152 8F00     		lsls	r7, r1, #2
 1609 0154 7A18     		adds	r2, r7, r1
 1610 0156 D300     		lsls	r3, r2, #3
 1611 0158 0344     		add	r3, r3, r0
 1612 015a 0022     		movs	r2, #0
 1613 015c 9A65     		str	r2, [r3, #88]
 1614              	.LVL132:
 987:Drivers/STM32F4xx_HAL_Driver/Src/stm32f4xx_hal_hcd.c ****     USB_HC_Halt(hhcd->Instance, chnum);   
 1615              		.loc 1 987 0
 1616 015e E368     		ldr	r3, [r4, #12]
 1617 0160 43F00203 		orr	r3, r3, #2
 1618 0164 E360     		str	r3, [r4, #12]
ARM GAS  /var/folders/0d/93p3r6493yg7p0rvl_4r983m0000gn/T//cc4yon9B.s 			page 54


 988:Drivers/STM32F4xx_HAL_Driver/Src/stm32f4xx_hal_hcd.c ****     __HAL_HCD_CLEAR_HC_INT(chnum, USB_OTG_HCINT_XFRC);
 1619              		.loc 1 988 0
 1620 0166 0068     		ldr	r0, [r0]
 1621              	.LVL133:
 1622 0168 FFF7FEFF 		bl	USB_HC_Halt
 1623              	.LVL134:
 989:Drivers/STM32F4xx_HAL_Driver/Src/stm32f4xx_hal_hcd.c ****     hhcd->hc[chnum].state = HC_XFRC;
 1624              		.loc 1 989 0
 1625 016c 0123     		movs	r3, #1
 1626 016e A360     		str	r3, [r4, #8]
 990:Drivers/STM32F4xx_HAL_Driver/Src/stm32f4xx_hal_hcd.c **** 
 1627              		.loc 1 990 0
 1628 0170 B919     		adds	r1, r7, r6
 1629 0172 C800     		lsls	r0, r1, #3
 1630 0174 2844     		add	r0, r0, r5
 1631 0176 80F85D30 		strb	r3, [r0, #93]
 1632 017a 76E7     		b	.L101
 1633              	.LVL135:
 1634              	.L124:
 996:Drivers/STM32F4xx_HAL_Driver/Src/stm32f4xx_hal_hcd.c ****     __HAL_HCD_UNMASK_HALT_HC_INT(chnum);
 1635              		.loc 1 996 0
 1636 017c 0823     		movs	r3, #8
 1637 017e A360     		str	r3, [r4, #8]
 1638              	.LVL136:
 997:Drivers/STM32F4xx_HAL_Driver/Src/stm32f4xx_hal_hcd.c ****     USB_HC_Halt(hhcd->Instance, chnum);   
 1639              		.loc 1 997 0
 1640 0180 E368     		ldr	r3, [r4, #12]
 1641 0182 43F00203 		orr	r3, r3, #2
 1642 0186 E360     		str	r3, [r4, #12]
 998:Drivers/STM32F4xx_HAL_Driver/Src/stm32f4xx_hal_hcd.c ****     hhcd->hc[chnum].state = HC_STALL;    
 1643              		.loc 1 998 0
 1644 0188 0068     		ldr	r0, [r0]
 1645              	.LVL137:
 1646 018a FFF7FEFF 		bl	USB_HC_Halt
 1647              	.LVL138:
 999:Drivers/STM32F4xx_HAL_Driver/Src/stm32f4xx_hal_hcd.c ****   }
 1648              		.loc 1 999 0
 1649 018e 06EB8601 		add	r1, r6, r6, lsl #2
 1650 0192 C800     		lsls	r0, r1, #3
 1651 0194 2844     		add	r0, r0, r5
 1652 0196 0523     		movs	r3, #5
 1653 0198 80F85D30 		strb	r3, [r0, #93]
 1654 019c 65E7     		b	.L101
 1655              	.LVL139:
 1656              	.L125:
1004:Drivers/STM32F4xx_HAL_Driver/Src/stm32f4xx_hal_hcd.c ****     __HAL_HCD_UNMASK_HALT_HC_INT(chnum); 
 1657              		.loc 1 1004 0
 1658 019e 8F00     		lsls	r7, r1, #2
 1659 01a0 7A18     		adds	r2, r7, r1
 1660 01a2 D300     		lsls	r3, r2, #3
 1661 01a4 0344     		add	r3, r3, r0
 1662 01a6 0022     		movs	r2, #0
 1663 01a8 9A65     		str	r2, [r3, #88]
 1664              	.LVL140:
1005:Drivers/STM32F4xx_HAL_Driver/Src/stm32f4xx_hal_hcd.c ****     USB_HC_Halt(hhcd->Instance, chnum);   
 1665              		.loc 1 1005 0
 1666 01aa E368     		ldr	r3, [r4, #12]
ARM GAS  /var/folders/0d/93p3r6493yg7p0rvl_4r983m0000gn/T//cc4yon9B.s 			page 55


 1667 01ac 43F00203 		orr	r3, r3, #2
 1668 01b0 E360     		str	r3, [r4, #12]
1006:Drivers/STM32F4xx_HAL_Driver/Src/stm32f4xx_hal_hcd.c ****     hhcd->hc[chnum].state = HC_NAK;
 1669              		.loc 1 1006 0
 1670 01b2 0068     		ldr	r0, [r0]
 1671              	.LVL141:
 1672 01b4 FFF7FEFF 		bl	USB_HC_Halt
 1673              	.LVL142:
1007:Drivers/STM32F4xx_HAL_Driver/Src/stm32f4xx_hal_hcd.c ****     __HAL_HCD_CLEAR_HC_INT(chnum, USB_OTG_HCINT_NAK);
 1674              		.loc 1 1007 0
 1675 01b8 B919     		adds	r1, r7, r6
 1676 01ba C800     		lsls	r0, r1, #3
 1677 01bc 2844     		add	r0, r0, r5
 1678 01be 0323     		movs	r3, #3
 1679 01c0 80F85D30 		strb	r3, [r0, #93]
1008:Drivers/STM32F4xx_HAL_Driver/Src/stm32f4xx_hal_hcd.c ****   }
 1680              		.loc 1 1008 0
 1681 01c4 1023     		movs	r3, #16
 1682 01c6 A360     		str	r3, [r4, #8]
 1683 01c8 4FE7     		b	.L101
 1684              	.LVL143:
 1685              	.L126:
1013:Drivers/STM32F4xx_HAL_Driver/Src/stm32f4xx_hal_hcd.c ****     USB_HC_Halt(hhcd->Instance, chnum);      
 1686              		.loc 1 1013 0
 1687 01ca E368     		ldr	r3, [r4, #12]
 1688 01cc 43F00203 		orr	r3, r3, #2
 1689 01d0 E360     		str	r3, [r4, #12]
 1690              	.LVL144:
1014:Drivers/STM32F4xx_HAL_Driver/Src/stm32f4xx_hal_hcd.c ****     hhcd->hc[chnum].state = HC_XACTERR;  
 1691              		.loc 1 1014 0
 1692 01d2 0068     		ldr	r0, [r0]
 1693              	.LVL145:
 1694 01d4 FFF7FEFF 		bl	USB_HC_Halt
 1695              	.LVL146:
1015:Drivers/STM32F4xx_HAL_Driver/Src/stm32f4xx_hal_hcd.c ****      __HAL_HCD_CLEAR_HC_INT(chnum, USB_OTG_HCINT_TXERR);
 1696              		.loc 1 1015 0
 1697 01d8 06EB8601 		add	r1, r6, r6, lsl #2
 1698 01dc CB00     		lsls	r3, r1, #3
 1699 01de 2B44     		add	r3, r3, r5
 1700 01e0 0622     		movs	r2, #6
 1701 01e2 83F85D20 		strb	r2, [r3, #93]
1016:Drivers/STM32F4xx_HAL_Driver/Src/stm32f4xx_hal_hcd.c ****   }
 1702              		.loc 1 1016 0
 1703 01e6 8023     		movs	r3, #128
 1704 01e8 A360     		str	r3, [r4, #8]
 1705 01ea 3EE7     		b	.L101
 1706              	.LVL147:
 1707              	.L127:
1021:Drivers/STM32F4xx_HAL_Driver/Src/stm32f4xx_hal_hcd.c ****     USB_HC_Halt(hhcd->Instance, chnum);      
 1708              		.loc 1 1021 0
 1709 01ec E368     		ldr	r3, [r4, #12]
 1710 01ee 43F00203 		orr	r3, r3, #2
 1711 01f2 E360     		str	r3, [r4, #12]
 1712              	.LVL148:
1022:Drivers/STM32F4xx_HAL_Driver/Src/stm32f4xx_hal_hcd.c ****     __HAL_HCD_CLEAR_HC_INT(chnum, USB_OTG_HCINT_NAK);
 1713              		.loc 1 1022 0
 1714 01f4 0068     		ldr	r0, [r0]
ARM GAS  /var/folders/0d/93p3r6493yg7p0rvl_4r983m0000gn/T//cc4yon9B.s 			page 56


 1715              	.LVL149:
 1716 01f6 FFF7FEFF 		bl	USB_HC_Halt
 1717              	.LVL150:
1023:Drivers/STM32F4xx_HAL_Driver/Src/stm32f4xx_hal_hcd.c ****     __HAL_HCD_CLEAR_HC_INT(chnum, USB_OTG_HCINT_DTERR);    
 1718              		.loc 1 1023 0
 1719 01fa 1023     		movs	r3, #16
 1720 01fc A360     		str	r3, [r4, #8]
1024:Drivers/STM32F4xx_HAL_Driver/Src/stm32f4xx_hal_hcd.c ****     hhcd->hc[chnum].state = HC_DATATGLERR;
 1721              		.loc 1 1024 0
 1722 01fe 4FF48063 		mov	r3, #1024
 1723 0202 A360     		str	r3, [r4, #8]
1025:Drivers/STM32F4xx_HAL_Driver/Src/stm32f4xx_hal_hcd.c ****   }
 1724              		.loc 1 1025 0
 1725 0204 06EB8601 		add	r1, r6, r6, lsl #2
 1726 0208 CB00     		lsls	r3, r1, #3
 1727 020a 2B44     		add	r3, r3, r5
 1728 020c 0822     		movs	r2, #8
 1729 020e 83F85D20 		strb	r2, [r3, #93]
 1730 0212 2AE7     		b	.L101
 1731              	.LVL151:
 1732              	.L128:
1035:Drivers/STM32F4xx_HAL_Driver/Src/stm32f4xx_hal_hcd.c ****       if (hhcd->hc[chnum].ep_type == EP_TYPE_BULK)
 1733              		.loc 1 1035 0
 1734 0214 8A00     		lsls	r2, r1, #2
 1735 0216 0A44     		add	r2, r2, r1
 1736 0218 D300     		lsls	r3, r2, #3
 1737 021a 0344     		add	r3, r3, r0
 1738 021c 0122     		movs	r2, #1
 1739 021e 83F85C20 		strb	r2, [r3, #92]
1036:Drivers/STM32F4xx_HAL_Driver/Src/stm32f4xx_hal_hcd.c ****       {
 1740              		.loc 1 1036 0
 1741 0222 93F83F30 		ldrb	r3, [r3, #63]	@ zero_extendqisi2
 1742 0226 022B     		cmp	r3, #2
 1743 0228 0CD0     		beq	.L132
 1744              	.LVL152:
 1745              	.L113:
1071:Drivers/STM32F4xx_HAL_Driver/Src/stm32f4xx_hal_hcd.c ****     HAL_HCD_HC_NotifyURBChange_Callback(hhcd, chnum, hhcd->hc[chnum].urb_state);  
 1746              		.loc 1 1071 0
 1747 022a 0223     		movs	r3, #2
 1748 022c A360     		str	r3, [r4, #8]
1072:Drivers/STM32F4xx_HAL_Driver/Src/stm32f4xx_hal_hcd.c ****   }
 1749              		.loc 1 1072 0
 1750 022e 06EB8602 		add	r2, r6, r6, lsl #2
 1751 0232 D300     		lsls	r3, r2, #3
 1752 0234 2B44     		add	r3, r3, r5
 1753 0236 93F85C20 		ldrb	r2, [r3, #92]	@ zero_extendqisi2
 1754 023a 3146     		mov	r1, r6
 1755 023c 2846     		mov	r0, r5
 1756              	.LVL153:
 1757 023e FFF7FEFF 		bl	HAL_HCD_HC_NotifyURBChange_Callback
 1758              	.LVL154:
1074:Drivers/STM32F4xx_HAL_Driver/Src/stm32f4xx_hal_hcd.c **** 
 1759              		.loc 1 1074 0
 1760 0242 12E7     		b	.L101
 1761              	.LVL155:
 1762              	.L132:
1038:Drivers/STM32F4xx_HAL_Driver/Src/stm32f4xx_hal_hcd.c ****       }      
ARM GAS  /var/folders/0d/93p3r6493yg7p0rvl_4r983m0000gn/T//cc4yon9B.s 			page 57


 1763              		.loc 1 1038 0
 1764 0244 8A00     		lsls	r2, r1, #2
 1765 0246 0A44     		add	r2, r2, r1
 1766 0248 D300     		lsls	r3, r2, #3
 1767 024a 0344     		add	r3, r3, r0
 1768 024c 93F85120 		ldrb	r2, [r3, #81]	@ zero_extendqisi2
 1769 0250 82F00102 		eor	r2, r2, #1
 1770 0254 83F85120 		strb	r2, [r3, #81]
 1771 0258 E7E7     		b	.L113
 1772              	.L129:
1043:Drivers/STM32F4xx_HAL_Driver/Src/stm32f4xx_hal_hcd.c ****     }  
 1773              		.loc 1 1043 0
 1774 025a 01EB8102 		add	r2, r1, r1, lsl #2
 1775 025e D300     		lsls	r3, r2, #3
 1776 0260 0344     		add	r3, r3, r0
 1777 0262 0222     		movs	r2, #2
 1778 0264 83F85C20 		strb	r2, [r3, #92]
 1779 0268 DFE7     		b	.L113
 1780              	.L130:
1048:Drivers/STM32F4xx_HAL_Driver/Src/stm32f4xx_hal_hcd.c ****       hhcd->hc[chnum].do_ping = 0U;
 1781              		.loc 1 1048 0
 1782 026a 8A00     		lsls	r2, r1, #2
 1783 026c 0A44     		add	r2, r2, r1
 1784 026e D300     		lsls	r3, r2, #3
 1785 0270 0344     		add	r3, r3, r0
 1786 0272 0222     		movs	r2, #2
 1787 0274 83F85C20 		strb	r2, [r3, #92]
1049:Drivers/STM32F4xx_HAL_Driver/Src/stm32f4xx_hal_hcd.c ****     }   
 1788              		.loc 1 1049 0
 1789 0278 0022     		movs	r2, #0
 1790 027a 83F83D20 		strb	r2, [r3, #61]
 1791 027e D4E7     		b	.L113
 1792              	.L131:
1054:Drivers/STM32F4xx_HAL_Driver/Src/stm32f4xx_hal_hcd.c ****     } 
 1793              		.loc 1 1054 0
 1794 0280 01EB8102 		add	r2, r1, r1, lsl #2
 1795 0284 D300     		lsls	r3, r2, #3
 1796 0286 0344     		add	r3, r3, r0
 1797 0288 0522     		movs	r2, #5
 1798 028a 83F85C20 		strb	r2, [r3, #92]
 1799 028e CCE7     		b	.L113
 1800              	.LVL156:
 1801              	.L118:
1067:Drivers/STM32F4xx_HAL_Driver/Src/stm32f4xx_hal_hcd.c ****       }
 1802              		.loc 1 1067 0
 1803 0290 2823     		movs	r3, #40
 1804 0292 03FB0653 		mla	r3, r3, r6, r5
 1805 0296 0222     		movs	r2, #2
 1806 0298 83F85C20 		strb	r2, [r3, #92]
 1807 029c C5E7     		b	.L113
 1808              		.cfi_endproc
 1809              	.LFE148:
 1811              		.section	.text.HAL_HCD_IRQHandler,"ax",%progbits
 1812              		.align	1
 1813              		.global	HAL_HCD_IRQHandler
 1814              		.syntax unified
 1815              		.thumb
ARM GAS  /var/folders/0d/93p3r6493yg7p0rvl_4r983m0000gn/T//cc4yon9B.s 			page 58


 1816              		.thumb_func
 1817              		.fpu fpv4-sp-d16
 1819              	HAL_HCD_IRQHandler:
 1820              	.LFB133:
 456:Drivers/STM32F4xx_HAL_Driver/Src/stm32f4xx_hal_hcd.c ****   USB_OTG_GlobalTypeDef *USBx = hhcd->Instance;
 1821              		.loc 1 456 0
 1822              		.cfi_startproc
 1823              		@ args = 0, pretend = 0, frame = 0
 1824              		@ frame_needed = 0, uses_anonymous_args = 0
 1825              	.LVL157:
 1826 0000 F8B5     		push	{r3, r4, r5, r6, r7, lr}
 1827              	.LCFI20:
 1828              		.cfi_def_cfa_offset 24
 1829              		.cfi_offset 3, -24
 1830              		.cfi_offset 4, -20
 1831              		.cfi_offset 5, -16
 1832              		.cfi_offset 6, -12
 1833              		.cfi_offset 7, -8
 1834              		.cfi_offset 14, -4
 1835 0002 0446     		mov	r4, r0
 457:Drivers/STM32F4xx_HAL_Driver/Src/stm32f4xx_hal_hcd.c ****   uint32_t i = 0U , interrupt = 0U;
 1836              		.loc 1 457 0
 1837 0004 0568     		ldr	r5, [r0]
 1838              	.LVL158:
 461:Drivers/STM32F4xx_HAL_Driver/Src/stm32f4xx_hal_hcd.c ****   {
 1839              		.loc 1 461 0
 1840 0006 2846     		mov	r0, r5
 1841              	.LVL159:
 1842 0008 FFF7FEFF 		bl	USB_GetMode
 1843              	.LVL160:
 1844 000c 0128     		cmp	r0, #1
 1845 000e 00D0     		beq	.L148
 1846              	.LVL161:
 1847              	.L133:
 551:Drivers/STM32F4xx_HAL_Driver/Src/stm32f4xx_hal_hcd.c **** 
 1848              		.loc 1 551 0
 1849 0010 F8BD     		pop	{r3, r4, r5, r6, r7, pc}
 1850              	.LVL162:
 1851              	.L148:
 464:Drivers/STM32F4xx_HAL_Driver/Src/stm32f4xx_hal_hcd.c ****     {
 1852              		.loc 1 464 0
 1853 0012 2068     		ldr	r0, [r4]
 1854 0014 FFF7FEFF 		bl	USB_ReadInterrupts
 1855              	.LVL163:
 1856 0018 0028     		cmp	r0, #0
 1857 001a F9D0     		beq	.L133
 469:Drivers/STM32F4xx_HAL_Driver/Src/stm32f4xx_hal_hcd.c ****     {
 1858              		.loc 1 469 0
 1859 001c 2068     		ldr	r0, [r4]
 1860 001e FFF7FEFF 		bl	USB_ReadInterrupts
 1861              	.LVL164:
 1862 0022 10F4001F 		tst	r0, #2097152
 1863 0026 03D0     		beq	.L135
 472:Drivers/STM32F4xx_HAL_Driver/Src/stm32f4xx_hal_hcd.c ****     }
 1864              		.loc 1 472 0
 1865 0028 2368     		ldr	r3, [r4]
 1866 002a 4FF40012 		mov	r2, #2097152
ARM GAS  /var/folders/0d/93p3r6493yg7p0rvl_4r983m0000gn/T//cc4yon9B.s 			page 59


 1867 002e 5A61     		str	r2, [r3, #20]
 1868              	.L135:
 475:Drivers/STM32F4xx_HAL_Driver/Src/stm32f4xx_hal_hcd.c ****     {
 1869              		.loc 1 475 0
 1870 0030 2068     		ldr	r0, [r4]
 1871 0032 FFF7FEFF 		bl	USB_ReadInterrupts
 1872              	.LVL165:
 1873 0036 10F4801F 		tst	r0, #1048576
 1874 003a 03D0     		beq	.L136
 478:Drivers/STM32F4xx_HAL_Driver/Src/stm32f4xx_hal_hcd.c ****     }
 1875              		.loc 1 478 0
 1876 003c 2368     		ldr	r3, [r4]
 1877 003e 4FF48012 		mov	r2, #1048576
 1878 0042 5A61     		str	r2, [r3, #20]
 1879              	.L136:
 481:Drivers/STM32F4xx_HAL_Driver/Src/stm32f4xx_hal_hcd.c ****     {
 1880              		.loc 1 481 0
 1881 0044 2068     		ldr	r0, [r4]
 1882 0046 FFF7FEFF 		bl	USB_ReadInterrupts
 1883              	.LVL166:
 1884 004a 10F0806F 		tst	r0, #67108864
 1885 004e 03D0     		beq	.L137
 484:Drivers/STM32F4xx_HAL_Driver/Src/stm32f4xx_hal_hcd.c ****     }   
 1886              		.loc 1 484 0
 1887 0050 2368     		ldr	r3, [r4]
 1888 0052 4FF08062 		mov	r2, #67108864
 1889 0056 5A61     		str	r2, [r3, #20]
 1890              	.L137:
 487:Drivers/STM32F4xx_HAL_Driver/Src/stm32f4xx_hal_hcd.c ****     {
 1891              		.loc 1 487 0
 1892 0058 2068     		ldr	r0, [r4]
 1893 005a FFF7FEFF 		bl	USB_ReadInterrupts
 1894              	.LVL167:
 1895 005e 10F0020F 		tst	r0, #2
 1896 0062 02D0     		beq	.L138
 490:Drivers/STM32F4xx_HAL_Driver/Src/stm32f4xx_hal_hcd.c ****     }     
 1897              		.loc 1 490 0
 1898 0064 2368     		ldr	r3, [r4]
 1899 0066 0222     		movs	r2, #2
 1900 0068 5A61     		str	r2, [r3, #20]
 1901              	.L138:
 494:Drivers/STM32F4xx_HAL_Driver/Src/stm32f4xx_hal_hcd.c ****     {
 1902              		.loc 1 494 0
 1903 006a 2068     		ldr	r0, [r4]
 1904 006c FFF7FEFF 		bl	USB_ReadInterrupts
 1905              	.LVL168:
 1906 0070 10F0005F 		tst	r0, #536870912
 1907 0074 25D1     		bne	.L149
 1908              	.L139:
 508:Drivers/STM32F4xx_HAL_Driver/Src/stm32f4xx_hal_hcd.c ****     {
 1909              		.loc 1 508 0
 1910 0076 2068     		ldr	r0, [r4]
 1911 0078 FFF7FEFF 		bl	USB_ReadInterrupts
 1912              	.LVL169:
 1913 007c 10F0807F 		tst	r0, #16777216
 1914 0080 31D1     		bne	.L150
 1915              	.L140:
ARM GAS  /var/folders/0d/93p3r6493yg7p0rvl_4r983m0000gn/T//cc4yon9B.s 			page 60


 514:Drivers/STM32F4xx_HAL_Driver/Src/stm32f4xx_hal_hcd.c ****     {
 1916              		.loc 1 514 0
 1917 0082 2068     		ldr	r0, [r4]
 1918 0084 FFF7FEFF 		bl	USB_ReadInterrupts
 1919              	.LVL170:
 1920 0088 10F0080F 		tst	r0, #8
 1921 008c 2FD1     		bne	.L151
 1922              	.L141:
 521:Drivers/STM32F4xx_HAL_Driver/Src/stm32f4xx_hal_hcd.c ****     {
 1923              		.loc 1 521 0
 1924 008e 2068     		ldr	r0, [r4]
 1925 0090 FFF7FEFF 		bl	USB_ReadInterrupts
 1926              	.LVL171:
 1927 0094 10F0007F 		tst	r0, #33554432
 1928 0098 30D1     		bne	.L152
 1929              	.LVL172:
 1930              	.L142:
 542:Drivers/STM32F4xx_HAL_Driver/Src/stm32f4xx_hal_hcd.c ****     {
 1931              		.loc 1 542 0
 1932 009a 2068     		ldr	r0, [r4]
 1933 009c FFF7FEFF 		bl	USB_ReadInterrupts
 1934              	.LVL173:
 1935 00a0 10F0100F 		tst	r0, #16
 1936 00a4 B4D0     		beq	.L133
 544:Drivers/STM32F4xx_HAL_Driver/Src/stm32f4xx_hal_hcd.c ****       
 1937              		.loc 1 544 0
 1938 00a6 2268     		ldr	r2, [r4]
 1939 00a8 9369     		ldr	r3, [r2, #24]
 1940 00aa 23F01003 		bic	r3, r3, #16
 1941 00ae 9361     		str	r3, [r2, #24]
 546:Drivers/STM32F4xx_HAL_Driver/Src/stm32f4xx_hal_hcd.c ****       
 1942              		.loc 1 546 0
 1943 00b0 2046     		mov	r0, r4
 1944 00b2 FFF7FEFF 		bl	HCD_RXQLVL_IRQHandler
 1945              	.LVL174:
 548:Drivers/STM32F4xx_HAL_Driver/Src/stm32f4xx_hal_hcd.c ****     }
 1946              		.loc 1 548 0
 1947 00b6 2268     		ldr	r2, [r4]
 1948 00b8 9369     		ldr	r3, [r2, #24]
 1949 00ba 43F01003 		orr	r3, r3, #16
 1950 00be 9361     		str	r3, [r2, #24]
 1951 00c0 A6E7     		b	.L133
 1952              	.LVL175:
 1953              	.L149:
 498:Drivers/STM32F4xx_HAL_Driver/Src/stm32f4xx_hal_hcd.c ****         USB_OTG_HPRT_PENCHNG | USB_OTG_HPRT_POCCHNG );
 1954              		.loc 1 498 0
 1955 00c2 D5F84034 		ldr	r3, [r5, #1088]
 1956 00c6 23F02E03 		bic	r3, r3, #46
 1957 00ca C5F84034 		str	r3, [r5, #1088]
 502:Drivers/STM32F4xx_HAL_Driver/Src/stm32f4xx_hal_hcd.c ****       USB_InitFSLSPClkSel(hhcd->Instance ,HCFG_48_MHZ );
 1958              		.loc 1 502 0
 1959 00ce 2046     		mov	r0, r4
 1960 00d0 FFF7FEFF 		bl	HAL_HCD_Disconnect_Callback
 1961              	.LVL176:
 503:Drivers/STM32F4xx_HAL_Driver/Src/stm32f4xx_hal_hcd.c ****       __HAL_HCD_CLEAR_FLAG(hhcd, USB_OTG_GINTSTS_DISCINT);
 1962              		.loc 1 503 0
 1963 00d4 0121     		movs	r1, #1
ARM GAS  /var/folders/0d/93p3r6493yg7p0rvl_4r983m0000gn/T//cc4yon9B.s 			page 61


 1964 00d6 2068     		ldr	r0, [r4]
 1965 00d8 FFF7FEFF 		bl	USB_InitFSLSPClkSel
 1966              	.LVL177:
 504:Drivers/STM32F4xx_HAL_Driver/Src/stm32f4xx_hal_hcd.c ****     }
 1967              		.loc 1 504 0
 1968 00dc 2368     		ldr	r3, [r4]
 1969 00de 4FF00052 		mov	r2, #536870912
 1970 00e2 5A61     		str	r2, [r3, #20]
 1971 00e4 C7E7     		b	.L139
 1972              	.L150:
 510:Drivers/STM32F4xx_HAL_Driver/Src/stm32f4xx_hal_hcd.c ****     }
 1973              		.loc 1 510 0
 1974 00e6 2046     		mov	r0, r4
 1975 00e8 FFF7FEFF 		bl	HCD_Port_IRQHandler
 1976              	.LVL178:
 1977 00ec C9E7     		b	.L140
 1978              	.L151:
 516:Drivers/STM32F4xx_HAL_Driver/Src/stm32f4xx_hal_hcd.c ****       __HAL_HCD_CLEAR_FLAG(hhcd, USB_OTG_GINTSTS_SOF);
 1979              		.loc 1 516 0
 1980 00ee 2046     		mov	r0, r4
 1981 00f0 FFF7FEFF 		bl	HAL_HCD_SOF_Callback
 1982              	.LVL179:
 517:Drivers/STM32F4xx_HAL_Driver/Src/stm32f4xx_hal_hcd.c ****     }
 1983              		.loc 1 517 0
 1984 00f4 2368     		ldr	r3, [r4]
 1985 00f6 0822     		movs	r2, #8
 1986 00f8 5A61     		str	r2, [r3, #20]
 1987 00fa C8E7     		b	.L141
 1988              	.L152:
 523:Drivers/STM32F4xx_HAL_Driver/Src/stm32f4xx_hal_hcd.c ****       for (i = 0U; i < hhcd->Init.Host_channels; i++)
 1989              		.loc 1 523 0
 1990 00fc 2068     		ldr	r0, [r4]
 1991 00fe FFF7FEFF 		bl	USB_HC_ReadInterrupt
 1992              	.LVL180:
 1993 0102 0746     		mov	r7, r0
 1994              	.LVL181:
 524:Drivers/STM32F4xx_HAL_Driver/Src/stm32f4xx_hal_hcd.c ****       {
 1995              		.loc 1 524 0
 1996 0104 0026     		movs	r6, #0
 1997 0106 04E0     		b	.L143
 1998              	.LVL182:
 1999              	.L145:
 534:Drivers/STM32F4xx_HAL_Driver/Src/stm32f4xx_hal_hcd.c ****           }
 2000              		.loc 1 534 0
 2001 0108 F1B2     		uxtb	r1, r6
 2002 010a 2046     		mov	r0, r4
 2003 010c FFF7FEFF 		bl	HCD_HC_OUT_IRQHandler
 2004              	.LVL183:
 2005              	.L144:
 524:Drivers/STM32F4xx_HAL_Driver/Src/stm32f4xx_hal_hcd.c ****       {
 2006              		.loc 1 524 0 discriminator 2
 2007 0110 0136     		adds	r6, r6, #1
 2008              	.LVL184:
 2009              	.L143:
 524:Drivers/STM32F4xx_HAL_Driver/Src/stm32f4xx_hal_hcd.c ****       {
 2010              		.loc 1 524 0 is_stmt 0 discriminator 1
 2011 0112 A368     		ldr	r3, [r4, #8]
ARM GAS  /var/folders/0d/93p3r6493yg7p0rvl_4r983m0000gn/T//cc4yon9B.s 			page 62


 2012 0114 B342     		cmp	r3, r6
 2013 0116 0FD9     		bls	.L153
 526:Drivers/STM32F4xx_HAL_Driver/Src/stm32f4xx_hal_hcd.c ****         {
 2014              		.loc 1 526 0 is_stmt 1
 2015 0118 0123     		movs	r3, #1
 2016 011a B340     		lsls	r3, r3, r6
 2017 011c 3B42     		tst	r3, r7
 2018 011e F7D0     		beq	.L144
 528:Drivers/STM32F4xx_HAL_Driver/Src/stm32f4xx_hal_hcd.c ****           {
 2019              		.loc 1 528 0
 2020 0120 05EB4613 		add	r3, r5, r6, lsl #5
 2021 0124 D3F80035 		ldr	r3, [r3, #1280]
 2022 0128 13F4004F 		tst	r3, #32768
 2023 012c ECD0     		beq	.L145
 530:Drivers/STM32F4xx_HAL_Driver/Src/stm32f4xx_hal_hcd.c ****           }
 2024              		.loc 1 530 0
 2025 012e F1B2     		uxtb	r1, r6
 2026 0130 2046     		mov	r0, r4
 2027 0132 FFF7FEFF 		bl	HCD_HC_IN_IRQHandler
 2028              	.LVL185:
 2029 0136 EBE7     		b	.L144
 2030              	.L153:
 538:Drivers/STM32F4xx_HAL_Driver/Src/stm32f4xx_hal_hcd.c ****     } 
 2031              		.loc 1 538 0
 2032 0138 2368     		ldr	r3, [r4]
 2033 013a 4FF00072 		mov	r2, #33554432
 2034 013e 5A61     		str	r2, [r3, #20]
 2035 0140 ABE7     		b	.L142
 2036              		.cfi_endproc
 2037              	.LFE133:
 2039              		.section	.text.HAL_HCD_Start,"ax",%progbits
 2040              		.align	1
 2041              		.global	HAL_HCD_Start
 2042              		.syntax unified
 2043              		.thumb
 2044              		.thumb_func
 2045              		.fpu fpv4-sp-d16
 2047              	HAL_HCD_Start:
 2048              	.LFB138:
 646:Drivers/STM32F4xx_HAL_Driver/Src/stm32f4xx_hal_hcd.c ****   __HAL_LOCK(hhcd); 
 2049              		.loc 1 646 0
 2050              		.cfi_startproc
 2051              		@ args = 0, pretend = 0, frame = 0
 2052              		@ frame_needed = 0, uses_anonymous_args = 0
 2053              	.LVL186:
 2054 0000 38B5     		push	{r3, r4, r5, lr}
 2055              	.LCFI21:
 2056              		.cfi_def_cfa_offset 16
 2057              		.cfi_offset 3, -16
 2058              		.cfi_offset 4, -12
 2059              		.cfi_offset 5, -8
 2060              		.cfi_offset 14, -4
 647:Drivers/STM32F4xx_HAL_Driver/Src/stm32f4xx_hal_hcd.c ****   __HAL_HCD_ENABLE(hhcd);
 2061              		.loc 1 647 0
 2062 0002 90F89032 		ldrb	r3, [r0, #656]	@ zero_extendqisi2
 2063 0006 012B     		cmp	r3, #1
 2064 0008 0ED0     		beq	.L156
ARM GAS  /var/folders/0d/93p3r6493yg7p0rvl_4r983m0000gn/T//cc4yon9B.s 			page 63


 2065 000a 0446     		mov	r4, r0
 647:Drivers/STM32F4xx_HAL_Driver/Src/stm32f4xx_hal_hcd.c ****   __HAL_HCD_ENABLE(hhcd);
 2066              		.loc 1 647 0 is_stmt 0 discriminator 2
 2067 000c 0125     		movs	r5, #1
 2068 000e 80F89052 		strb	r5, [r0, #656]
 648:Drivers/STM32F4xx_HAL_Driver/Src/stm32f4xx_hal_hcd.c ****   USB_DriveVbus(hhcd->Instance, 1U);  
 2069              		.loc 1 648 0 is_stmt 1 discriminator 2
 2070 0012 0068     		ldr	r0, [r0]
 2071              	.LVL187:
 2072 0014 FFF7FEFF 		bl	USB_EnableGlobalInt
 2073              	.LVL188:
 649:Drivers/STM32F4xx_HAL_Driver/Src/stm32f4xx_hal_hcd.c ****   __HAL_UNLOCK(hhcd); 
 2074              		.loc 1 649 0 discriminator 2
 2075 0018 2946     		mov	r1, r5
 2076 001a 2068     		ldr	r0, [r4]
 2077 001c FFF7FEFF 		bl	USB_DriveVbus
 2078              	.LVL189:
 650:Drivers/STM32F4xx_HAL_Driver/Src/stm32f4xx_hal_hcd.c ****   return HAL_OK;
 2079              		.loc 1 650 0 discriminator 2
 2080 0020 0020     		movs	r0, #0
 2081 0022 84F89002 		strb	r0, [r4, #656]
 2082              	.LVL190:
 2083              	.L155:
 652:Drivers/STM32F4xx_HAL_Driver/Src/stm32f4xx_hal_hcd.c **** 
 2084              		.loc 1 652 0
 2085 0026 38BD     		pop	{r3, r4, r5, pc}
 2086              	.LVL191:
 2087              	.L156:
 647:Drivers/STM32F4xx_HAL_Driver/Src/stm32f4xx_hal_hcd.c ****   __HAL_HCD_ENABLE(hhcd);
 2088              		.loc 1 647 0
 2089 0028 0220     		movs	r0, #2
 2090              	.LVL192:
 2091 002a FCE7     		b	.L155
 2092              		.cfi_endproc
 2093              	.LFE138:
 2095              		.section	.text.HAL_HCD_Stop,"ax",%progbits
 2096              		.align	1
 2097              		.global	HAL_HCD_Stop
 2098              		.syntax unified
 2099              		.thumb
 2100              		.thumb_func
 2101              		.fpu fpv4-sp-d16
 2103              	HAL_HCD_Stop:
 2104              	.LFB139:
 661:Drivers/STM32F4xx_HAL_Driver/Src/stm32f4xx_hal_hcd.c ****   __HAL_LOCK(hhcd); 
 2105              		.loc 1 661 0
 2106              		.cfi_startproc
 2107              		@ args = 0, pretend = 0, frame = 0
 2108              		@ frame_needed = 0, uses_anonymous_args = 0
 2109              	.LVL193:
 662:Drivers/STM32F4xx_HAL_Driver/Src/stm32f4xx_hal_hcd.c ****   USB_StopHost(hhcd->Instance);
 2110              		.loc 1 662 0
 2111 0000 90F89032 		ldrb	r3, [r0, #656]	@ zero_extendqisi2
 2112 0004 012B     		cmp	r3, #1
 2113 0006 0BD0     		beq	.L160
 661:Drivers/STM32F4xx_HAL_Driver/Src/stm32f4xx_hal_hcd.c ****   __HAL_LOCK(hhcd); 
 2114              		.loc 1 661 0 discriminator 2
ARM GAS  /var/folders/0d/93p3r6493yg7p0rvl_4r983m0000gn/T//cc4yon9B.s 			page 64


 2115 0008 10B5     		push	{r4, lr}
 2116              	.LCFI22:
 2117              		.cfi_def_cfa_offset 8
 2118              		.cfi_offset 4, -8
 2119              		.cfi_offset 14, -4
 2120 000a 0446     		mov	r4, r0
 662:Drivers/STM32F4xx_HAL_Driver/Src/stm32f4xx_hal_hcd.c ****   USB_StopHost(hhcd->Instance);
 2121              		.loc 1 662 0 discriminator 2
 2122 000c 0123     		movs	r3, #1
 2123 000e 80F89032 		strb	r3, [r0, #656]
 663:Drivers/STM32F4xx_HAL_Driver/Src/stm32f4xx_hal_hcd.c ****   __HAL_UNLOCK(hhcd); 
 2124              		.loc 1 663 0 discriminator 2
 2125 0012 0068     		ldr	r0, [r0]
 2126              	.LVL194:
 2127 0014 FFF7FEFF 		bl	USB_StopHost
 2128              	.LVL195:
 664:Drivers/STM32F4xx_HAL_Driver/Src/stm32f4xx_hal_hcd.c ****   return HAL_OK;
 2129              		.loc 1 664 0 discriminator 2
 2130 0018 0020     		movs	r0, #0
 2131 001a 84F89002 		strb	r0, [r4, #656]
 666:Drivers/STM32F4xx_HAL_Driver/Src/stm32f4xx_hal_hcd.c **** 
 2132              		.loc 1 666 0 discriminator 2
 2133 001e 10BD     		pop	{r4, pc}
 2134              	.LVL196:
 2135              	.L160:
 2136              	.LCFI23:
 2137              		.cfi_def_cfa_offset 0
 2138              		.cfi_restore 4
 2139              		.cfi_restore 14
 662:Drivers/STM32F4xx_HAL_Driver/Src/stm32f4xx_hal_hcd.c ****   USB_StopHost(hhcd->Instance);
 2140              		.loc 1 662 0
 2141 0020 0220     		movs	r0, #2
 2142              	.LVL197:
 666:Drivers/STM32F4xx_HAL_Driver/Src/stm32f4xx_hal_hcd.c **** 
 2143              		.loc 1 666 0
 2144 0022 7047     		bx	lr
 2145              		.cfi_endproc
 2146              	.LFE139:
 2148              		.section	.text.HAL_HCD_ResetPort,"ax",%progbits
 2149              		.align	1
 2150              		.global	HAL_HCD_ResetPort
 2151              		.syntax unified
 2152              		.thumb
 2153              		.thumb_func
 2154              		.fpu fpv4-sp-d16
 2156              	HAL_HCD_ResetPort:
 2157              	.LFB140:
 674:Drivers/STM32F4xx_HAL_Driver/Src/stm32f4xx_hal_hcd.c ****   return (USB_ResetPort(hhcd->Instance));
 2158              		.loc 1 674 0
 2159              		.cfi_startproc
 2160              		@ args = 0, pretend = 0, frame = 0
 2161              		@ frame_needed = 0, uses_anonymous_args = 0
 2162              	.LVL198:
 2163 0000 08B5     		push	{r3, lr}
 2164              	.LCFI24:
 2165              		.cfi_def_cfa_offset 8
 2166              		.cfi_offset 3, -8
ARM GAS  /var/folders/0d/93p3r6493yg7p0rvl_4r983m0000gn/T//cc4yon9B.s 			page 65


 2167              		.cfi_offset 14, -4
 675:Drivers/STM32F4xx_HAL_Driver/Src/stm32f4xx_hal_hcd.c **** }
 2168              		.loc 1 675 0
 2169 0002 0068     		ldr	r0, [r0]
 2170              	.LVL199:
 2171 0004 FFF7FEFF 		bl	USB_ResetPort
 2172              	.LVL200:
 676:Drivers/STM32F4xx_HAL_Driver/Src/stm32f4xx_hal_hcd.c **** 
 2173              		.loc 1 676 0
 2174 0008 08BD     		pop	{r3, pc}
 2175              		.cfi_endproc
 2176              	.LFE140:
 2178              		.section	.text.HAL_HCD_GetState,"ax",%progbits
 2179              		.align	1
 2180              		.global	HAL_HCD_GetState
 2181              		.syntax unified
 2182              		.thumb
 2183              		.thumb_func
 2184              		.fpu fpv4-sp-d16
 2186              	HAL_HCD_GetState:
 2187              	.LFB141:
 703:Drivers/STM32F4xx_HAL_Driver/Src/stm32f4xx_hal_hcd.c ****   return hhcd->State;
 2188              		.loc 1 703 0
 2189              		.cfi_startproc
 2190              		@ args = 0, pretend = 0, frame = 0
 2191              		@ frame_needed = 0, uses_anonymous_args = 0
 2192              		@ link register save eliminated.
 2193              	.LVL201:
 704:Drivers/STM32F4xx_HAL_Driver/Src/stm32f4xx_hal_hcd.c **** }
 2194              		.loc 1 704 0
 2195 0000 90F89102 		ldrb	r0, [r0, #657]	@ zero_extendqisi2
 2196              	.LVL202:
 705:Drivers/STM32F4xx_HAL_Driver/Src/stm32f4xx_hal_hcd.c **** 
 2197              		.loc 1 705 0
 2198 0004 7047     		bx	lr
 2199              		.cfi_endproc
 2200              	.LFE141:
 2202              		.section	.text.HAL_HCD_HC_GetURBState,"ax",%progbits
 2203              		.align	1
 2204              		.global	HAL_HCD_HC_GetURBState
 2205              		.syntax unified
 2206              		.thumb
 2207              		.thumb_func
 2208              		.fpu fpv4-sp-d16
 2210              	HAL_HCD_HC_GetURBState:
 2211              	.LFB142:
 722:Drivers/STM32F4xx_HAL_Driver/Src/stm32f4xx_hal_hcd.c ****   return hhcd->hc[chnum].urb_state;
 2212              		.loc 1 722 0
 2213              		.cfi_startproc
 2214              		@ args = 0, pretend = 0, frame = 0
 2215              		@ frame_needed = 0, uses_anonymous_args = 0
 2216              		@ link register save eliminated.
 2217              	.LVL203:
 723:Drivers/STM32F4xx_HAL_Driver/Src/stm32f4xx_hal_hcd.c **** }
 2218              		.loc 1 723 0
 2219 0000 01EB8101 		add	r1, r1, r1, lsl #2
 2220              	.LVL204:
ARM GAS  /var/folders/0d/93p3r6493yg7p0rvl_4r983m0000gn/T//cc4yon9B.s 			page 66


 2221 0004 CB00     		lsls	r3, r1, #3
 2222 0006 1844     		add	r0, r0, r3
 2223              	.LVL205:
 724:Drivers/STM32F4xx_HAL_Driver/Src/stm32f4xx_hal_hcd.c **** 
 2224              		.loc 1 724 0
 2225 0008 90F85C00 		ldrb	r0, [r0, #92]	@ zero_extendqisi2
 2226 000c 7047     		bx	lr
 2227              		.cfi_endproc
 2228              	.LFE142:
 2230              		.section	.text.HAL_HCD_HC_GetXferCount,"ax",%progbits
 2231              		.align	1
 2232              		.global	HAL_HCD_HC_GetXferCount
 2233              		.syntax unified
 2234              		.thumb
 2235              		.thumb_func
 2236              		.fpu fpv4-sp-d16
 2238              	HAL_HCD_HC_GetXferCount:
 2239              	.LFB143:
 735:Drivers/STM32F4xx_HAL_Driver/Src/stm32f4xx_hal_hcd.c ****   return hhcd->hc[chnum].xfer_count; 
 2240              		.loc 1 735 0
 2241              		.cfi_startproc
 2242              		@ args = 0, pretend = 0, frame = 0
 2243              		@ frame_needed = 0, uses_anonymous_args = 0
 2244              		@ link register save eliminated.
 2245              	.LVL206:
 736:Drivers/STM32F4xx_HAL_Driver/Src/stm32f4xx_hal_hcd.c **** }
 2246              		.loc 1 736 0
 2247 0000 01EB8101 		add	r1, r1, r1, lsl #2
 2248              	.LVL207:
 2249 0004 CB00     		lsls	r3, r1, #3
 2250 0006 1844     		add	r0, r0, r3
 2251              	.LVL208:
 737:Drivers/STM32F4xx_HAL_Driver/Src/stm32f4xx_hal_hcd.c ****   
 2252              		.loc 1 737 0
 2253 0008 C06C     		ldr	r0, [r0, #76]
 2254 000a 7047     		bx	lr
 2255              		.cfi_endproc
 2256              	.LFE143:
 2258              		.section	.text.HAL_HCD_HC_GetState,"ax",%progbits
 2259              		.align	1
 2260              		.global	HAL_HCD_HC_GetState
 2261              		.syntax unified
 2262              		.thumb
 2263              		.thumb_func
 2264              		.fpu fpv4-sp-d16
 2266              	HAL_HCD_HC_GetState:
 2267              	.LFB144:
 757:Drivers/STM32F4xx_HAL_Driver/Src/stm32f4xx_hal_hcd.c ****   return hhcd->hc[chnum].state;
 2268              		.loc 1 757 0
 2269              		.cfi_startproc
 2270              		@ args = 0, pretend = 0, frame = 0
 2271              		@ frame_needed = 0, uses_anonymous_args = 0
 2272              		@ link register save eliminated.
 2273              	.LVL209:
 758:Drivers/STM32F4xx_HAL_Driver/Src/stm32f4xx_hal_hcd.c **** }
 2274              		.loc 1 758 0
 2275 0000 01EB8101 		add	r1, r1, r1, lsl #2
ARM GAS  /var/folders/0d/93p3r6493yg7p0rvl_4r983m0000gn/T//cc4yon9B.s 			page 67


 2276              	.LVL210:
 2277 0004 CB00     		lsls	r3, r1, #3
 2278 0006 1844     		add	r0, r0, r3
 2279              	.LVL211:
 759:Drivers/STM32F4xx_HAL_Driver/Src/stm32f4xx_hal_hcd.c **** 
 2280              		.loc 1 759 0
 2281 0008 90F85D00 		ldrb	r0, [r0, #93]	@ zero_extendqisi2
 2282 000c 7047     		bx	lr
 2283              		.cfi_endproc
 2284              	.LFE144:
 2286              		.section	.text.HAL_HCD_GetCurrentFrame,"ax",%progbits
 2287              		.align	1
 2288              		.global	HAL_HCD_GetCurrentFrame
 2289              		.syntax unified
 2290              		.thumb
 2291              		.thumb_func
 2292              		.fpu fpv4-sp-d16
 2294              	HAL_HCD_GetCurrentFrame:
 2295              	.LFB145:
 767:Drivers/STM32F4xx_HAL_Driver/Src/stm32f4xx_hal_hcd.c ****   return (USB_GetCurrentFrame(hhcd->Instance));
 2296              		.loc 1 767 0
 2297              		.cfi_startproc
 2298              		@ args = 0, pretend = 0, frame = 0
 2299              		@ frame_needed = 0, uses_anonymous_args = 0
 2300              	.LVL212:
 2301 0000 08B5     		push	{r3, lr}
 2302              	.LCFI25:
 2303              		.cfi_def_cfa_offset 8
 2304              		.cfi_offset 3, -8
 2305              		.cfi_offset 14, -4
 768:Drivers/STM32F4xx_HAL_Driver/Src/stm32f4xx_hal_hcd.c **** }
 2306              		.loc 1 768 0
 2307 0002 0068     		ldr	r0, [r0]
 2308              	.LVL213:
 2309 0004 FFF7FEFF 		bl	USB_GetCurrentFrame
 2310              	.LVL214:
 769:Drivers/STM32F4xx_HAL_Driver/Src/stm32f4xx_hal_hcd.c **** 
 2311              		.loc 1 769 0
 2312 0008 08BD     		pop	{r3, pc}
 2313              		.cfi_endproc
 2314              	.LFE145:
 2316              		.section	.text.HAL_HCD_GetCurrentSpeed,"ax",%progbits
 2317              		.align	1
 2318              		.global	HAL_HCD_GetCurrentSpeed
 2319              		.syntax unified
 2320              		.thumb
 2321              		.thumb_func
 2322              		.fpu fpv4-sp-d16
 2324              	HAL_HCD_GetCurrentSpeed:
 2325              	.LFB146:
 777:Drivers/STM32F4xx_HAL_Driver/Src/stm32f4xx_hal_hcd.c ****   return (USB_GetHostSpeed(hhcd->Instance));
 2326              		.loc 1 777 0
 2327              		.cfi_startproc
 2328              		@ args = 0, pretend = 0, frame = 0
 2329              		@ frame_needed = 0, uses_anonymous_args = 0
 2330              	.LVL215:
 2331 0000 08B5     		push	{r3, lr}
ARM GAS  /var/folders/0d/93p3r6493yg7p0rvl_4r983m0000gn/T//cc4yon9B.s 			page 68


 2332              	.LCFI26:
 2333              		.cfi_def_cfa_offset 8
 2334              		.cfi_offset 3, -8
 2335              		.cfi_offset 14, -4
 778:Drivers/STM32F4xx_HAL_Driver/Src/stm32f4xx_hal_hcd.c **** }
 2336              		.loc 1 778 0
 2337 0002 0068     		ldr	r0, [r0]
 2338              	.LVL216:
 2339 0004 FFF7FEFF 		bl	USB_GetHostSpeed
 2340              	.LVL217:
 779:Drivers/STM32F4xx_HAL_Driver/Src/stm32f4xx_hal_hcd.c **** 
 2341              		.loc 1 779 0
 2342 0008 08BD     		pop	{r3, pc}
 2343              		.cfi_endproc
 2344              	.LFE146:
 2346              		.text
 2347              	.Letext0:
 2348              		.file 2 "/usr/local/gcc_arm/gcc-arm-none-eabi-7-2017-q4-major/arm-none-eabi/include/machine/_defau
 2349              		.file 3 "/usr/local/gcc_arm/gcc-arm-none-eabi-7-2017-q4-major/arm-none-eabi/include/sys/_stdint.h"
 2350              		.file 4 "Drivers/CMSIS/Include/core_cm4.h"
 2351              		.file 5 "Drivers/CMSIS/Device/ST/STM32F4xx/Include/system_stm32f4xx.h"
 2352              		.file 6 "Drivers/CMSIS/Device/ST/STM32F4xx/Include/stm32f429xx.h"
 2353              		.file 7 "/usr/local/gcc_arm/gcc-arm-none-eabi-7-2017-q4-major/arm-none-eabi/include/sys/lock.h"
 2354              		.file 8 "/usr/local/gcc_arm/gcc-arm-none-eabi-7-2017-q4-major/arm-none-eabi/include/sys/_types.h"
 2355              		.file 9 "/usr/local/gcc_arm/gcc-arm-none-eabi-7-2017-q4-major/lib/gcc/arm-none-eabi/7.2.1/include/
 2356              		.file 10 "/usr/local/gcc_arm/gcc-arm-none-eabi-7-2017-q4-major/arm-none-eabi/include/sys/reent.h"
 2357              		.file 11 "Drivers/STM32F4xx_HAL_Driver/Inc/stm32f4xx_hal_def.h"
 2358              		.file 12 "Drivers/STM32F4xx_HAL_Driver/Inc/stm32f4xx_ll_usb.h"
 2359              		.file 13 "Drivers/STM32F4xx_HAL_Driver/Inc/stm32f4xx_hal_hcd.h"
ARM GAS  /var/folders/0d/93p3r6493yg7p0rvl_4r983m0000gn/T//cc4yon9B.s 			page 69


DEFINED SYMBOLS
                            *ABS*:0000000000000000 stm32f4xx_hal_hcd.c
/var/folders/0d/93p3r6493yg7p0rvl_4r983m0000gn/T//cc4yon9B.s:18     .text.HCD_RXQLVL_IRQHandler:0000000000000000 $t
/var/folders/0d/93p3r6493yg7p0rvl_4r983m0000gn/T//cc4yon9B.s:24     .text.HCD_RXQLVL_IRQHandler:0000000000000000 HCD_RXQLVL_IRQHandler
/var/folders/0d/93p3r6493yg7p0rvl_4r983m0000gn/T//cc4yon9B.s:121    .text.HCD_RXQLVL_IRQHandler:0000000000000078 $d
/var/folders/0d/93p3r6493yg7p0rvl_4r983m0000gn/T//cc4yon9B.s:126    .text.HAL_HCD_HC_Init:0000000000000000 $t
/var/folders/0d/93p3r6493yg7p0rvl_4r983m0000gn/T//cc4yon9B.s:133    .text.HAL_HCD_HC_Init:0000000000000000 HAL_HCD_HC_Init
/var/folders/0d/93p3r6493yg7p0rvl_4r983m0000gn/T//cc4yon9B.s:218    .text.HAL_HCD_HC_Halt:0000000000000000 $t
/var/folders/0d/93p3r6493yg7p0rvl_4r983m0000gn/T//cc4yon9B.s:225    .text.HAL_HCD_HC_Halt:0000000000000000 HAL_HCD_HC_Halt
/var/folders/0d/93p3r6493yg7p0rvl_4r983m0000gn/T//cc4yon9B.s:271    .text.HAL_HCD_MspInit:0000000000000000 $t
/var/folders/0d/93p3r6493yg7p0rvl_4r983m0000gn/T//cc4yon9B.s:278    .text.HAL_HCD_MspInit:0000000000000000 HAL_HCD_MspInit
/var/folders/0d/93p3r6493yg7p0rvl_4r983m0000gn/T//cc4yon9B.s:292    .text.HAL_HCD_Init:0000000000000000 $t
/var/folders/0d/93p3r6493yg7p0rvl_4r983m0000gn/T//cc4yon9B.s:299    .text.HAL_HCD_Init:0000000000000000 HAL_HCD_Init
/var/folders/0d/93p3r6493yg7p0rvl_4r983m0000gn/T//cc4yon9B.s:395    .text.HAL_HCD_MspDeInit:0000000000000000 $t
/var/folders/0d/93p3r6493yg7p0rvl_4r983m0000gn/T//cc4yon9B.s:402    .text.HAL_HCD_MspDeInit:0000000000000000 HAL_HCD_MspDeInit
/var/folders/0d/93p3r6493yg7p0rvl_4r983m0000gn/T//cc4yon9B.s:416    .text.HAL_HCD_DeInit:0000000000000000 $t
/var/folders/0d/93p3r6493yg7p0rvl_4r983m0000gn/T//cc4yon9B.s:423    .text.HAL_HCD_DeInit:0000000000000000 HAL_HCD_DeInit
/var/folders/0d/93p3r6493yg7p0rvl_4r983m0000gn/T//cc4yon9B.s:469    .text.HAL_HCD_HC_SubmitRequest:0000000000000000 $t
/var/folders/0d/93p3r6493yg7p0rvl_4r983m0000gn/T//cc4yon9B.s:476    .text.HAL_HCD_HC_SubmitRequest:0000000000000000 HAL_HCD_HC_SubmitRequest
/var/folders/0d/93p3r6493yg7p0rvl_4r983m0000gn/T//cc4yon9B.s:517    .text.HAL_HCD_HC_SubmitRequest:0000000000000038 $d
/var/folders/0d/93p3r6493yg7p0rvl_4r983m0000gn/T//cc4yon9B.s:521    .text.HAL_HCD_HC_SubmitRequest:000000000000003c $t
/var/folders/0d/93p3r6493yg7p0rvl_4r983m0000gn/T//cc4yon9B.s:746    .text.HAL_HCD_SOF_Callback:0000000000000000 $t
/var/folders/0d/93p3r6493yg7p0rvl_4r983m0000gn/T//cc4yon9B.s:753    .text.HAL_HCD_SOF_Callback:0000000000000000 HAL_HCD_SOF_Callback
/var/folders/0d/93p3r6493yg7p0rvl_4r983m0000gn/T//cc4yon9B.s:767    .text.HAL_HCD_Connect_Callback:0000000000000000 $t
/var/folders/0d/93p3r6493yg7p0rvl_4r983m0000gn/T//cc4yon9B.s:774    .text.HAL_HCD_Connect_Callback:0000000000000000 HAL_HCD_Connect_Callback
/var/folders/0d/93p3r6493yg7p0rvl_4r983m0000gn/T//cc4yon9B.s:788    .text.HCD_Port_IRQHandler:0000000000000000 $t
/var/folders/0d/93p3r6493yg7p0rvl_4r983m0000gn/T//cc4yon9B.s:794    .text.HCD_Port_IRQHandler:0000000000000000 HCD_Port_IRQHandler
/var/folders/0d/93p3r6493yg7p0rvl_4r983m0000gn/T//cc4yon9B.s:935    .text.HAL_HCD_Disconnect_Callback:0000000000000000 $t
/var/folders/0d/93p3r6493yg7p0rvl_4r983m0000gn/T//cc4yon9B.s:942    .text.HAL_HCD_Disconnect_Callback:0000000000000000 HAL_HCD_Disconnect_Callback
/var/folders/0d/93p3r6493yg7p0rvl_4r983m0000gn/T//cc4yon9B.s:956    .text.HAL_HCD_HC_NotifyURBChange_Callback:0000000000000000 $t
/var/folders/0d/93p3r6493yg7p0rvl_4r983m0000gn/T//cc4yon9B.s:963    .text.HAL_HCD_HC_NotifyURBChange_Callback:0000000000000000 HAL_HCD_HC_NotifyURBChange_Callback
/var/folders/0d/93p3r6493yg7p0rvl_4r983m0000gn/T//cc4yon9B.s:977    .text.HCD_HC_IN_IRQHandler:0000000000000000 $t
/var/folders/0d/93p3r6493yg7p0rvl_4r983m0000gn/T//cc4yon9B.s:983    .text.HCD_HC_IN_IRQHandler:0000000000000000 HCD_HC_IN_IRQHandler
/var/folders/0d/93p3r6493yg7p0rvl_4r983m0000gn/T//cc4yon9B.s:1390   .text.HCD_HC_OUT_IRQHandler:0000000000000000 $t
/var/folders/0d/93p3r6493yg7p0rvl_4r983m0000gn/T//cc4yon9B.s:1396   .text.HCD_HC_OUT_IRQHandler:0000000000000000 HCD_HC_OUT_IRQHandler
/var/folders/0d/93p3r6493yg7p0rvl_4r983m0000gn/T//cc4yon9B.s:1812   .text.HAL_HCD_IRQHandler:0000000000000000 $t
/var/folders/0d/93p3r6493yg7p0rvl_4r983m0000gn/T//cc4yon9B.s:1819   .text.HAL_HCD_IRQHandler:0000000000000000 HAL_HCD_IRQHandler
/var/folders/0d/93p3r6493yg7p0rvl_4r983m0000gn/T//cc4yon9B.s:2040   .text.HAL_HCD_Start:0000000000000000 $t
/var/folders/0d/93p3r6493yg7p0rvl_4r983m0000gn/T//cc4yon9B.s:2047   .text.HAL_HCD_Start:0000000000000000 HAL_HCD_Start
/var/folders/0d/93p3r6493yg7p0rvl_4r983m0000gn/T//cc4yon9B.s:2096   .text.HAL_HCD_Stop:0000000000000000 $t
/var/folders/0d/93p3r6493yg7p0rvl_4r983m0000gn/T//cc4yon9B.s:2103   .text.HAL_HCD_Stop:0000000000000000 HAL_HCD_Stop
/var/folders/0d/93p3r6493yg7p0rvl_4r983m0000gn/T//cc4yon9B.s:2149   .text.HAL_HCD_ResetPort:0000000000000000 $t
/var/folders/0d/93p3r6493yg7p0rvl_4r983m0000gn/T//cc4yon9B.s:2156   .text.HAL_HCD_ResetPort:0000000000000000 HAL_HCD_ResetPort
/var/folders/0d/93p3r6493yg7p0rvl_4r983m0000gn/T//cc4yon9B.s:2179   .text.HAL_HCD_GetState:0000000000000000 $t
/var/folders/0d/93p3r6493yg7p0rvl_4r983m0000gn/T//cc4yon9B.s:2186   .text.HAL_HCD_GetState:0000000000000000 HAL_HCD_GetState
/var/folders/0d/93p3r6493yg7p0rvl_4r983m0000gn/T//cc4yon9B.s:2203   .text.HAL_HCD_HC_GetURBState:0000000000000000 $t
/var/folders/0d/93p3r6493yg7p0rvl_4r983m0000gn/T//cc4yon9B.s:2210   .text.HAL_HCD_HC_GetURBState:0000000000000000 HAL_HCD_HC_GetURBState
/var/folders/0d/93p3r6493yg7p0rvl_4r983m0000gn/T//cc4yon9B.s:2231   .text.HAL_HCD_HC_GetXferCount:0000000000000000 $t
/var/folders/0d/93p3r6493yg7p0rvl_4r983m0000gn/T//cc4yon9B.s:2238   .text.HAL_HCD_HC_GetXferCount:0000000000000000 HAL_HCD_HC_GetXferCount
/var/folders/0d/93p3r6493yg7p0rvl_4r983m0000gn/T//cc4yon9B.s:2259   .text.HAL_HCD_HC_GetState:0000000000000000 $t
/var/folders/0d/93p3r6493yg7p0rvl_4r983m0000gn/T//cc4yon9B.s:2266   .text.HAL_HCD_HC_GetState:0000000000000000 HAL_HCD_HC_GetState
/var/folders/0d/93p3r6493yg7p0rvl_4r983m0000gn/T//cc4yon9B.s:2287   .text.HAL_HCD_GetCurrentFrame:0000000000000000 $t
/var/folders/0d/93p3r6493yg7p0rvl_4r983m0000gn/T//cc4yon9B.s:2294   .text.HAL_HCD_GetCurrentFrame:0000000000000000 HAL_HCD_GetCurrentFrame
/var/folders/0d/93p3r6493yg7p0rvl_4r983m0000gn/T//cc4yon9B.s:2317   .text.HAL_HCD_GetCurrentSpeed:0000000000000000 $t
/var/folders/0d/93p3r6493yg7p0rvl_4r983m0000gn/T//cc4yon9B.s:2324   .text.HAL_HCD_GetCurrentSpeed:0000000000000000 HAL_HCD_GetCurrentSpeed

UNDEFINED SYMBOLS
ARM GAS  /var/folders/0d/93p3r6493yg7p0rvl_4r983m0000gn/T//cc4yon9B.s 			page 70


USB_ReadPacket
USB_HC_Init
USB_HC_Halt
USB_DisableGlobalInt
USB_CoreInit
USB_SetCurrentMode
USB_HostInit
USB_HC_StartXfer
USB_InitFSLSPClkSel
USB_GetMode
USB_ReadInterrupts
USB_HC_ReadInterrupt
USB_EnableGlobalInt
USB_DriveVbus
USB_StopHost
USB_ResetPort
USB_GetCurrentFrame
USB_GetHostSpeed
