ARM GAS  /var/folders/0d/93p3r6493yg7p0rvl_4r983m0000gn/T//ccIusu9n.s 			page 1


   1              		.cpu cortex-m4
   2              		.eabi_attribute 27, 1
   3              		.eabi_attribute 28, 1
   4              		.eabi_attribute 20, 1
   5              		.eabi_attribute 21, 1
   6              		.eabi_attribute 23, 3
   7              		.eabi_attribute 24, 1
   8              		.eabi_attribute 25, 1
   9              		.eabi_attribute 26, 1
  10              		.eabi_attribute 30, 1
  11              		.eabi_attribute 34, 1
  12              		.eabi_attribute 18, 4
  13              		.file	"tcp.c"
  14              		.text
  15              	.Ltext0:
  16              		.cfi_sections	.debug_frame
  17              		.section	.text.tcp_remove_listener,"ax",%progbits
  18              		.align	1
  19              		.syntax unified
  20              		.thumb
  21              		.thumb_func
  22              		.fpu fpv4-sp-d16
  24              	tcp_remove_listener:
  25              	.LFB144:
  26              		.file 1 "Middlewares/Third_Party/LwIP/src/core/tcp.c"
   1:Middlewares/Third_Party/LwIP/src/core/tcp.c **** /**
   2:Middlewares/Third_Party/LwIP/src/core/tcp.c ****  * @file 
   3:Middlewares/Third_Party/LwIP/src/core/tcp.c ****  * Transmission Control Protocol for IP
   4:Middlewares/Third_Party/LwIP/src/core/tcp.c ****  * See also @ref tcp_raw
   5:Middlewares/Third_Party/LwIP/src/core/tcp.c ****  *
   6:Middlewares/Third_Party/LwIP/src/core/tcp.c ****  * @defgroup tcp_raw TCP
   7:Middlewares/Third_Party/LwIP/src/core/tcp.c ****  * @ingroup callbackstyle_api
   8:Middlewares/Third_Party/LwIP/src/core/tcp.c ****  * Transmission Control Protocol for IP\n
   9:Middlewares/Third_Party/LwIP/src/core/tcp.c ****  * @see @ref raw_api and @ref netconn
  10:Middlewares/Third_Party/LwIP/src/core/tcp.c ****  *
  11:Middlewares/Third_Party/LwIP/src/core/tcp.c ****  * Common functions for the TCP implementation, such as functinos
  12:Middlewares/Third_Party/LwIP/src/core/tcp.c ****  * for manipulating the data structures and the TCP timer functions. TCP functions
  13:Middlewares/Third_Party/LwIP/src/core/tcp.c ****  * related to input and output is found in tcp_in.c and tcp_out.c respectively.\n
  14:Middlewares/Third_Party/LwIP/src/core/tcp.c ****  */
  15:Middlewares/Third_Party/LwIP/src/core/tcp.c **** 
  16:Middlewares/Third_Party/LwIP/src/core/tcp.c **** /*
  17:Middlewares/Third_Party/LwIP/src/core/tcp.c ****  * Copyright (c) 2001-2004 Swedish Institute of Computer Science.
  18:Middlewares/Third_Party/LwIP/src/core/tcp.c ****  * All rights reserved.
  19:Middlewares/Third_Party/LwIP/src/core/tcp.c ****  *
  20:Middlewares/Third_Party/LwIP/src/core/tcp.c ****  * Redistribution and use in source and binary forms, with or without modification,
  21:Middlewares/Third_Party/LwIP/src/core/tcp.c ****  * are permitted provided that the following conditions are met:
  22:Middlewares/Third_Party/LwIP/src/core/tcp.c ****  *
  23:Middlewares/Third_Party/LwIP/src/core/tcp.c ****  * 1. Redistributions of source code must retain the above copyright notice,
  24:Middlewares/Third_Party/LwIP/src/core/tcp.c ****  *    this list of conditions and the following disclaimer.
  25:Middlewares/Third_Party/LwIP/src/core/tcp.c ****  * 2. Redistributions in binary form must reproduce the above copyright notice,
  26:Middlewares/Third_Party/LwIP/src/core/tcp.c ****  *    this list of conditions and the following disclaimer in the documentation
  27:Middlewares/Third_Party/LwIP/src/core/tcp.c ****  *    and/or other materials provided with the distribution.
  28:Middlewares/Third_Party/LwIP/src/core/tcp.c ****  * 3. The name of the author may not be used to endorse or promote products
  29:Middlewares/Third_Party/LwIP/src/core/tcp.c ****  *    derived from this software without specific prior written permission.
  30:Middlewares/Third_Party/LwIP/src/core/tcp.c ****  *
  31:Middlewares/Third_Party/LwIP/src/core/tcp.c ****  * THIS SOFTWARE IS PROVIDED BY THE AUTHOR ``AS IS'' AND ANY EXPRESS OR IMPLIED
  32:Middlewares/Third_Party/LwIP/src/core/tcp.c ****  * WARRANTIES, INCLUDING, BUT NOT LIMITED TO, THE IMPLIED WARRANTIES OF
ARM GAS  /var/folders/0d/93p3r6493yg7p0rvl_4r983m0000gn/T//ccIusu9n.s 			page 2


  33:Middlewares/Third_Party/LwIP/src/core/tcp.c ****  * MERCHANTABILITY AND FITNESS FOR A PARTICULAR PURPOSE ARE DISCLAIMED. IN NO EVENT
  34:Middlewares/Third_Party/LwIP/src/core/tcp.c ****  * SHALL THE AUTHOR BE LIABLE FOR ANY DIRECT, INDIRECT, INCIDENTAL, SPECIAL,
  35:Middlewares/Third_Party/LwIP/src/core/tcp.c ****  * EXEMPLARY, OR CONSEQUENTIAL DAMAGES (INCLUDING, BUT NOT LIMITED TO, PROCUREMENT
  36:Middlewares/Third_Party/LwIP/src/core/tcp.c ****  * OF SUBSTITUTE GOODS OR SERVICES; LOSS OF USE, DATA, OR PROFITS; OR BUSINESS
  37:Middlewares/Third_Party/LwIP/src/core/tcp.c ****  * INTERRUPTION) HOWEVER CAUSED AND ON ANY THEORY OF LIABILITY, WHETHER IN
  38:Middlewares/Third_Party/LwIP/src/core/tcp.c ****  * CONTRACT, STRICT LIABILITY, OR TORT (INCLUDING NEGLIGENCE OR OTHERWISE) ARISING
  39:Middlewares/Third_Party/LwIP/src/core/tcp.c ****  * IN ANY WAY OUT OF THE USE OF THIS SOFTWARE, EVEN IF ADVISED OF THE POSSIBILITY
  40:Middlewares/Third_Party/LwIP/src/core/tcp.c ****  * OF SUCH DAMAGE.
  41:Middlewares/Third_Party/LwIP/src/core/tcp.c ****  *
  42:Middlewares/Third_Party/LwIP/src/core/tcp.c ****  * This file is part of the lwIP TCP/IP stack.
  43:Middlewares/Third_Party/LwIP/src/core/tcp.c ****  *
  44:Middlewares/Third_Party/LwIP/src/core/tcp.c ****  * Author: Adam Dunkels <adam@sics.se>
  45:Middlewares/Third_Party/LwIP/src/core/tcp.c ****  *
  46:Middlewares/Third_Party/LwIP/src/core/tcp.c ****  */
  47:Middlewares/Third_Party/LwIP/src/core/tcp.c **** 
  48:Middlewares/Third_Party/LwIP/src/core/tcp.c **** #include "lwip/opt.h"
  49:Middlewares/Third_Party/LwIP/src/core/tcp.c **** 
  50:Middlewares/Third_Party/LwIP/src/core/tcp.c **** #if LWIP_TCP /* don't build if not configured for use in lwipopts.h */
  51:Middlewares/Third_Party/LwIP/src/core/tcp.c **** 
  52:Middlewares/Third_Party/LwIP/src/core/tcp.c **** #include "lwip/def.h"
  53:Middlewares/Third_Party/LwIP/src/core/tcp.c **** #include "lwip/mem.h"
  54:Middlewares/Third_Party/LwIP/src/core/tcp.c **** #include "lwip/memp.h"
  55:Middlewares/Third_Party/LwIP/src/core/tcp.c **** #include "lwip/tcp.h"
  56:Middlewares/Third_Party/LwIP/src/core/tcp.c **** #include "lwip/priv/tcp_priv.h"
  57:Middlewares/Third_Party/LwIP/src/core/tcp.c **** #include "lwip/debug.h"
  58:Middlewares/Third_Party/LwIP/src/core/tcp.c **** #include "lwip/stats.h"
  59:Middlewares/Third_Party/LwIP/src/core/tcp.c **** #include "lwip/ip6.h"
  60:Middlewares/Third_Party/LwIP/src/core/tcp.c **** #include "lwip/ip6_addr.h"
  61:Middlewares/Third_Party/LwIP/src/core/tcp.c **** #include "lwip/nd6.h"
  62:Middlewares/Third_Party/LwIP/src/core/tcp.c **** 
  63:Middlewares/Third_Party/LwIP/src/core/tcp.c **** #include <string.h>
  64:Middlewares/Third_Party/LwIP/src/core/tcp.c **** 
  65:Middlewares/Third_Party/LwIP/src/core/tcp.c **** #ifdef LWIP_HOOK_FILENAME
  66:Middlewares/Third_Party/LwIP/src/core/tcp.c **** #include LWIP_HOOK_FILENAME
  67:Middlewares/Third_Party/LwIP/src/core/tcp.c **** #endif
  68:Middlewares/Third_Party/LwIP/src/core/tcp.c **** 
  69:Middlewares/Third_Party/LwIP/src/core/tcp.c **** #ifndef TCP_LOCAL_PORT_RANGE_START
  70:Middlewares/Third_Party/LwIP/src/core/tcp.c **** /* From http://www.iana.org/assignments/port-numbers:
  71:Middlewares/Third_Party/LwIP/src/core/tcp.c ****    "The Dynamic and/or Private Ports are those from 49152 through 65535" */
  72:Middlewares/Third_Party/LwIP/src/core/tcp.c **** #define TCP_LOCAL_PORT_RANGE_START        0xc000
  73:Middlewares/Third_Party/LwIP/src/core/tcp.c **** #define TCP_LOCAL_PORT_RANGE_END          0xffff
  74:Middlewares/Third_Party/LwIP/src/core/tcp.c **** #define TCP_ENSURE_LOCAL_PORT_RANGE(port) ((u16_t)(((port) & ~TCP_LOCAL_PORT_RANGE_START) + TCP_LOC
  75:Middlewares/Third_Party/LwIP/src/core/tcp.c **** #endif
  76:Middlewares/Third_Party/LwIP/src/core/tcp.c **** 
  77:Middlewares/Third_Party/LwIP/src/core/tcp.c **** #if LWIP_TCP_KEEPALIVE
  78:Middlewares/Third_Party/LwIP/src/core/tcp.c **** #define TCP_KEEP_DUR(pcb)   ((pcb)->keep_cnt * (pcb)->keep_intvl)
  79:Middlewares/Third_Party/LwIP/src/core/tcp.c **** #define TCP_KEEP_INTVL(pcb) ((pcb)->keep_intvl)
  80:Middlewares/Third_Party/LwIP/src/core/tcp.c **** #else /* LWIP_TCP_KEEPALIVE */
  81:Middlewares/Third_Party/LwIP/src/core/tcp.c **** #define TCP_KEEP_DUR(pcb)   TCP_MAXIDLE
  82:Middlewares/Third_Party/LwIP/src/core/tcp.c **** #define TCP_KEEP_INTVL(pcb) TCP_KEEPINTVL_DEFAULT
  83:Middlewares/Third_Party/LwIP/src/core/tcp.c **** #endif /* LWIP_TCP_KEEPALIVE */
  84:Middlewares/Third_Party/LwIP/src/core/tcp.c **** 
  85:Middlewares/Third_Party/LwIP/src/core/tcp.c **** /* As initial send MSS, we use TCP_MSS but limit it to 536. */
  86:Middlewares/Third_Party/LwIP/src/core/tcp.c **** #if TCP_MSS > 536
  87:Middlewares/Third_Party/LwIP/src/core/tcp.c **** #define INITIAL_MSS 536
  88:Middlewares/Third_Party/LwIP/src/core/tcp.c **** #else
  89:Middlewares/Third_Party/LwIP/src/core/tcp.c **** #define INITIAL_MSS TCP_MSS
ARM GAS  /var/folders/0d/93p3r6493yg7p0rvl_4r983m0000gn/T//ccIusu9n.s 			page 3


  90:Middlewares/Third_Party/LwIP/src/core/tcp.c **** #endif
  91:Middlewares/Third_Party/LwIP/src/core/tcp.c **** 
  92:Middlewares/Third_Party/LwIP/src/core/tcp.c **** static const char * const tcp_state_str[] = {
  93:Middlewares/Third_Party/LwIP/src/core/tcp.c ****   "CLOSED",
  94:Middlewares/Third_Party/LwIP/src/core/tcp.c ****   "LISTEN",
  95:Middlewares/Third_Party/LwIP/src/core/tcp.c ****   "SYN_SENT",
  96:Middlewares/Third_Party/LwIP/src/core/tcp.c ****   "SYN_RCVD",
  97:Middlewares/Third_Party/LwIP/src/core/tcp.c ****   "ESTABLISHED",
  98:Middlewares/Third_Party/LwIP/src/core/tcp.c ****   "FIN_WAIT_1",
  99:Middlewares/Third_Party/LwIP/src/core/tcp.c ****   "FIN_WAIT_2",
 100:Middlewares/Third_Party/LwIP/src/core/tcp.c ****   "CLOSE_WAIT",
 101:Middlewares/Third_Party/LwIP/src/core/tcp.c ****   "CLOSING",
 102:Middlewares/Third_Party/LwIP/src/core/tcp.c ****   "LAST_ACK",
 103:Middlewares/Third_Party/LwIP/src/core/tcp.c ****   "TIME_WAIT"
 104:Middlewares/Third_Party/LwIP/src/core/tcp.c **** };
 105:Middlewares/Third_Party/LwIP/src/core/tcp.c **** 
 106:Middlewares/Third_Party/LwIP/src/core/tcp.c **** /* last local TCP port */
 107:Middlewares/Third_Party/LwIP/src/core/tcp.c **** static u16_t tcp_port = TCP_LOCAL_PORT_RANGE_START;
 108:Middlewares/Third_Party/LwIP/src/core/tcp.c **** 
 109:Middlewares/Third_Party/LwIP/src/core/tcp.c **** /* Incremented every coarse grained timer shot (typically every 500 ms). */
 110:Middlewares/Third_Party/LwIP/src/core/tcp.c **** u32_t tcp_ticks;
 111:Middlewares/Third_Party/LwIP/src/core/tcp.c **** static const u8_t tcp_backoff[13] =
 112:Middlewares/Third_Party/LwIP/src/core/tcp.c ****     { 1, 2, 3, 4, 5, 6, 7, 7, 7, 7, 7, 7, 7};
 113:Middlewares/Third_Party/LwIP/src/core/tcp.c ****  /* Times per slowtmr hits */
 114:Middlewares/Third_Party/LwIP/src/core/tcp.c **** static const u8_t tcp_persist_backoff[7] = { 3, 6, 12, 24, 48, 96, 120 };
 115:Middlewares/Third_Party/LwIP/src/core/tcp.c **** 
 116:Middlewares/Third_Party/LwIP/src/core/tcp.c **** /* The TCP PCB lists. */
 117:Middlewares/Third_Party/LwIP/src/core/tcp.c **** 
 118:Middlewares/Third_Party/LwIP/src/core/tcp.c **** /** List of all TCP PCBs bound but not yet (connected || listening) */
 119:Middlewares/Third_Party/LwIP/src/core/tcp.c **** struct tcp_pcb *tcp_bound_pcbs;
 120:Middlewares/Third_Party/LwIP/src/core/tcp.c **** /** List of all TCP PCBs in LISTEN state */
 121:Middlewares/Third_Party/LwIP/src/core/tcp.c **** union tcp_listen_pcbs_t tcp_listen_pcbs;
 122:Middlewares/Third_Party/LwIP/src/core/tcp.c **** /** List of all TCP PCBs that are in a state in which
 123:Middlewares/Third_Party/LwIP/src/core/tcp.c ****  * they accept or send data. */
 124:Middlewares/Third_Party/LwIP/src/core/tcp.c **** struct tcp_pcb *tcp_active_pcbs;
 125:Middlewares/Third_Party/LwIP/src/core/tcp.c **** /** List of all TCP PCBs in TIME-WAIT state */
 126:Middlewares/Third_Party/LwIP/src/core/tcp.c **** struct tcp_pcb *tcp_tw_pcbs;
 127:Middlewares/Third_Party/LwIP/src/core/tcp.c **** 
 128:Middlewares/Third_Party/LwIP/src/core/tcp.c **** /** An array with all (non-temporary) PCB lists, mainly used for smaller code size */
 129:Middlewares/Third_Party/LwIP/src/core/tcp.c **** struct tcp_pcb ** const tcp_pcb_lists[] = {&tcp_listen_pcbs.pcbs, &tcp_bound_pcbs,
 130:Middlewares/Third_Party/LwIP/src/core/tcp.c ****   &tcp_active_pcbs, &tcp_tw_pcbs};
 131:Middlewares/Third_Party/LwIP/src/core/tcp.c **** 
 132:Middlewares/Third_Party/LwIP/src/core/tcp.c **** u8_t tcp_active_pcbs_changed;
 133:Middlewares/Third_Party/LwIP/src/core/tcp.c **** 
 134:Middlewares/Third_Party/LwIP/src/core/tcp.c **** /** Timer counter to handle calling slow-timer from tcp_tmr() */
 135:Middlewares/Third_Party/LwIP/src/core/tcp.c **** static u8_t tcp_timer;
 136:Middlewares/Third_Party/LwIP/src/core/tcp.c **** static u8_t tcp_timer_ctr;
 137:Middlewares/Third_Party/LwIP/src/core/tcp.c **** static u16_t tcp_new_port(void);
 138:Middlewares/Third_Party/LwIP/src/core/tcp.c **** 
 139:Middlewares/Third_Party/LwIP/src/core/tcp.c **** static err_t tcp_close_shutdown_fin(struct tcp_pcb *pcb);
 140:Middlewares/Third_Party/LwIP/src/core/tcp.c **** 
 141:Middlewares/Third_Party/LwIP/src/core/tcp.c **** /**
 142:Middlewares/Third_Party/LwIP/src/core/tcp.c ****  * Initialize this module.
 143:Middlewares/Third_Party/LwIP/src/core/tcp.c ****  */
 144:Middlewares/Third_Party/LwIP/src/core/tcp.c **** void
 145:Middlewares/Third_Party/LwIP/src/core/tcp.c **** tcp_init(void)
 146:Middlewares/Third_Party/LwIP/src/core/tcp.c **** {
ARM GAS  /var/folders/0d/93p3r6493yg7p0rvl_4r983m0000gn/T//ccIusu9n.s 			page 4


 147:Middlewares/Third_Party/LwIP/src/core/tcp.c **** #if LWIP_RANDOMIZE_INITIAL_LOCAL_PORTS && defined(LWIP_RAND)
 148:Middlewares/Third_Party/LwIP/src/core/tcp.c ****   tcp_port = TCP_ENSURE_LOCAL_PORT_RANGE(LWIP_RAND());
 149:Middlewares/Third_Party/LwIP/src/core/tcp.c **** #endif /* LWIP_RANDOMIZE_INITIAL_LOCAL_PORTS && defined(LWIP_RAND) */
 150:Middlewares/Third_Party/LwIP/src/core/tcp.c **** }
 151:Middlewares/Third_Party/LwIP/src/core/tcp.c **** 
 152:Middlewares/Third_Party/LwIP/src/core/tcp.c **** /**
 153:Middlewares/Third_Party/LwIP/src/core/tcp.c ****  * Called periodically to dispatch TCP timers.
 154:Middlewares/Third_Party/LwIP/src/core/tcp.c ****  */
 155:Middlewares/Third_Party/LwIP/src/core/tcp.c **** void
 156:Middlewares/Third_Party/LwIP/src/core/tcp.c **** tcp_tmr(void)
 157:Middlewares/Third_Party/LwIP/src/core/tcp.c **** {
 158:Middlewares/Third_Party/LwIP/src/core/tcp.c ****   /* Call tcp_fasttmr() every 250 ms */
 159:Middlewares/Third_Party/LwIP/src/core/tcp.c ****   tcp_fasttmr();
 160:Middlewares/Third_Party/LwIP/src/core/tcp.c **** 
 161:Middlewares/Third_Party/LwIP/src/core/tcp.c ****   if (++tcp_timer & 1) {
 162:Middlewares/Third_Party/LwIP/src/core/tcp.c ****     /* Call tcp_slowtmr() every 500 ms, i.e., every other timer
 163:Middlewares/Third_Party/LwIP/src/core/tcp.c ****        tcp_tmr() is called. */
 164:Middlewares/Third_Party/LwIP/src/core/tcp.c ****     tcp_slowtmr();
 165:Middlewares/Third_Party/LwIP/src/core/tcp.c ****   }
 166:Middlewares/Third_Party/LwIP/src/core/tcp.c **** }
 167:Middlewares/Third_Party/LwIP/src/core/tcp.c **** 
 168:Middlewares/Third_Party/LwIP/src/core/tcp.c **** #if LWIP_CALLBACK_API || TCP_LISTEN_BACKLOG
 169:Middlewares/Third_Party/LwIP/src/core/tcp.c **** /** Called when a listen pcb is closed. Iterates one pcb list and removes the
 170:Middlewares/Third_Party/LwIP/src/core/tcp.c ****  * closed listener pcb from pcb->listener if matching.
 171:Middlewares/Third_Party/LwIP/src/core/tcp.c ****  */
 172:Middlewares/Third_Party/LwIP/src/core/tcp.c **** static void
 173:Middlewares/Third_Party/LwIP/src/core/tcp.c **** tcp_remove_listener(struct tcp_pcb *list, struct tcp_pcb_listen *lpcb)
 174:Middlewares/Third_Party/LwIP/src/core/tcp.c **** {
  27              		.loc 1 174 0
  28              		.cfi_startproc
  29              		@ args = 0, pretend = 0, frame = 0
  30              		@ frame_needed = 0, uses_anonymous_args = 0
  31              		@ link register save eliminated.
  32              	.LVL0:
 175:Middlewares/Third_Party/LwIP/src/core/tcp.c ****    struct tcp_pcb *pcb;
 176:Middlewares/Third_Party/LwIP/src/core/tcp.c ****    for (pcb = list; pcb != NULL; pcb = pcb->next) {
  33              		.loc 1 176 0
  34 0000 00E0     		b	.L2
  35              	.LVL1:
  36              	.L3:
  37              		.loc 1 176 0 is_stmt 0 discriminator 2
  38 0002 C068     		ldr	r0, [r0, #12]
  39              	.LVL2:
  40              	.L2:
  41              		.loc 1 176 0 discriminator 1
  42 0004 28B1     		cbz	r0, .L5
 177:Middlewares/Third_Party/LwIP/src/core/tcp.c ****       if (pcb->listener == lpcb) {
  43              		.loc 1 177 0 is_stmt 1
  44 0006 836F     		ldr	r3, [r0, #120]
  45 0008 8B42     		cmp	r3, r1
  46 000a FAD1     		bne	.L3
 178:Middlewares/Third_Party/LwIP/src/core/tcp.c ****          pcb->listener = NULL;
  47              		.loc 1 178 0
  48 000c 0023     		movs	r3, #0
  49 000e 8367     		str	r3, [r0, #120]
  50 0010 F7E7     		b	.L3
  51              	.L5:
ARM GAS  /var/folders/0d/93p3r6493yg7p0rvl_4r983m0000gn/T//ccIusu9n.s 			page 5


 179:Middlewares/Third_Party/LwIP/src/core/tcp.c ****       }
 180:Middlewares/Third_Party/LwIP/src/core/tcp.c ****    }
 181:Middlewares/Third_Party/LwIP/src/core/tcp.c **** }
  52              		.loc 1 181 0
  53 0012 7047     		bx	lr
  54              		.cfi_endproc
  55              	.LFE144:
  57              		.section	.text.tcp_new_port,"ax",%progbits
  58              		.align	1
  59              		.syntax unified
  60              		.thumb
  61              		.thumb_func
  62              		.fpu fpv4-sp-d16
  64              	tcp_new_port:
  65              	.LFB158:
 182:Middlewares/Third_Party/LwIP/src/core/tcp.c **** #endif
 183:Middlewares/Third_Party/LwIP/src/core/tcp.c **** 
 184:Middlewares/Third_Party/LwIP/src/core/tcp.c **** /** Called when a listen pcb is closed. Iterates all pcb lists and removes the
 185:Middlewares/Third_Party/LwIP/src/core/tcp.c ****  * closed listener pcb from pcb->listener if matching.
 186:Middlewares/Third_Party/LwIP/src/core/tcp.c ****  */
 187:Middlewares/Third_Party/LwIP/src/core/tcp.c **** static void
 188:Middlewares/Third_Party/LwIP/src/core/tcp.c **** tcp_listen_closed(struct tcp_pcb *pcb)
 189:Middlewares/Third_Party/LwIP/src/core/tcp.c **** {
 190:Middlewares/Third_Party/LwIP/src/core/tcp.c **** #if LWIP_CALLBACK_API || TCP_LISTEN_BACKLOG
 191:Middlewares/Third_Party/LwIP/src/core/tcp.c ****   size_t i;
 192:Middlewares/Third_Party/LwIP/src/core/tcp.c ****   LWIP_ASSERT("pcb != NULL", pcb != NULL);
 193:Middlewares/Third_Party/LwIP/src/core/tcp.c ****   LWIP_ASSERT("pcb->state == LISTEN", pcb->state == LISTEN);
 194:Middlewares/Third_Party/LwIP/src/core/tcp.c ****   for (i = 1; i < LWIP_ARRAYSIZE(tcp_pcb_lists); i++) {
 195:Middlewares/Third_Party/LwIP/src/core/tcp.c ****     tcp_remove_listener(*tcp_pcb_lists[i], (struct tcp_pcb_listen*)pcb);
 196:Middlewares/Third_Party/LwIP/src/core/tcp.c ****   }
 197:Middlewares/Third_Party/LwIP/src/core/tcp.c **** #endif
 198:Middlewares/Third_Party/LwIP/src/core/tcp.c ****   LWIP_UNUSED_ARG(pcb);
 199:Middlewares/Third_Party/LwIP/src/core/tcp.c **** }
 200:Middlewares/Third_Party/LwIP/src/core/tcp.c **** 
 201:Middlewares/Third_Party/LwIP/src/core/tcp.c **** #if TCP_LISTEN_BACKLOG
 202:Middlewares/Third_Party/LwIP/src/core/tcp.c **** /** @ingroup tcp_raw
 203:Middlewares/Third_Party/LwIP/src/core/tcp.c ****  * Delay accepting a connection in respect to the listen backlog:
 204:Middlewares/Third_Party/LwIP/src/core/tcp.c ****  * the number of outstanding connections is increased until
 205:Middlewares/Third_Party/LwIP/src/core/tcp.c ****  * tcp_backlog_accepted() is called.
 206:Middlewares/Third_Party/LwIP/src/core/tcp.c ****  *
 207:Middlewares/Third_Party/LwIP/src/core/tcp.c ****  * ATTENTION: the caller is responsible for calling tcp_backlog_accepted()
 208:Middlewares/Third_Party/LwIP/src/core/tcp.c ****  * or else the backlog feature will get out of sync!
 209:Middlewares/Third_Party/LwIP/src/core/tcp.c ****  *
 210:Middlewares/Third_Party/LwIP/src/core/tcp.c ****  * @param pcb the connection pcb which is not fully accepted yet
 211:Middlewares/Third_Party/LwIP/src/core/tcp.c ****  */
 212:Middlewares/Third_Party/LwIP/src/core/tcp.c **** void
 213:Middlewares/Third_Party/LwIP/src/core/tcp.c **** tcp_backlog_delayed(struct tcp_pcb* pcb)
 214:Middlewares/Third_Party/LwIP/src/core/tcp.c **** {
 215:Middlewares/Third_Party/LwIP/src/core/tcp.c ****   LWIP_ASSERT("pcb != NULL", pcb != NULL);
 216:Middlewares/Third_Party/LwIP/src/core/tcp.c ****   if ((pcb->flags & TF_BACKLOGPEND) == 0) {
 217:Middlewares/Third_Party/LwIP/src/core/tcp.c ****     if (pcb->listener != NULL) {
 218:Middlewares/Third_Party/LwIP/src/core/tcp.c ****       pcb->listener->accepts_pending++;
 219:Middlewares/Third_Party/LwIP/src/core/tcp.c ****       LWIP_ASSERT("accepts_pending != 0", pcb->listener->accepts_pending != 0);
 220:Middlewares/Third_Party/LwIP/src/core/tcp.c ****       pcb->flags |= TF_BACKLOGPEND;
 221:Middlewares/Third_Party/LwIP/src/core/tcp.c ****     }
 222:Middlewares/Third_Party/LwIP/src/core/tcp.c ****   }
 223:Middlewares/Third_Party/LwIP/src/core/tcp.c **** }
ARM GAS  /var/folders/0d/93p3r6493yg7p0rvl_4r983m0000gn/T//ccIusu9n.s 			page 6


 224:Middlewares/Third_Party/LwIP/src/core/tcp.c **** 
 225:Middlewares/Third_Party/LwIP/src/core/tcp.c **** /** @ingroup tcp_raw
 226:Middlewares/Third_Party/LwIP/src/core/tcp.c ****  * A delayed-accept a connection is accepted (or closed/aborted): decreases
 227:Middlewares/Third_Party/LwIP/src/core/tcp.c ****  * the number of outstanding connections after calling tcp_backlog_delayed().
 228:Middlewares/Third_Party/LwIP/src/core/tcp.c ****  *
 229:Middlewares/Third_Party/LwIP/src/core/tcp.c ****  * ATTENTION: the caller is responsible for calling tcp_backlog_accepted()
 230:Middlewares/Third_Party/LwIP/src/core/tcp.c ****  * or else the backlog feature will get out of sync!
 231:Middlewares/Third_Party/LwIP/src/core/tcp.c ****  *
 232:Middlewares/Third_Party/LwIP/src/core/tcp.c ****  * @param pcb the connection pcb which is now fully accepted (or closed/aborted)
 233:Middlewares/Third_Party/LwIP/src/core/tcp.c ****  */
 234:Middlewares/Third_Party/LwIP/src/core/tcp.c **** void
 235:Middlewares/Third_Party/LwIP/src/core/tcp.c **** tcp_backlog_accepted(struct tcp_pcb* pcb)
 236:Middlewares/Third_Party/LwIP/src/core/tcp.c **** {
 237:Middlewares/Third_Party/LwIP/src/core/tcp.c ****   LWIP_ASSERT("pcb != NULL", pcb != NULL);
 238:Middlewares/Third_Party/LwIP/src/core/tcp.c ****   if ((pcb->flags & TF_BACKLOGPEND) != 0) {
 239:Middlewares/Third_Party/LwIP/src/core/tcp.c ****     if (pcb->listener != NULL) {
 240:Middlewares/Third_Party/LwIP/src/core/tcp.c ****       LWIP_ASSERT("accepts_pending != 0", pcb->listener->accepts_pending != 0);
 241:Middlewares/Third_Party/LwIP/src/core/tcp.c ****       pcb->listener->accepts_pending--;
 242:Middlewares/Third_Party/LwIP/src/core/tcp.c ****       pcb->flags &= ~TF_BACKLOGPEND;
 243:Middlewares/Third_Party/LwIP/src/core/tcp.c ****     }
 244:Middlewares/Third_Party/LwIP/src/core/tcp.c ****   }
 245:Middlewares/Third_Party/LwIP/src/core/tcp.c **** }
 246:Middlewares/Third_Party/LwIP/src/core/tcp.c **** #endif /* TCP_LISTEN_BACKLOG */
 247:Middlewares/Third_Party/LwIP/src/core/tcp.c **** 
 248:Middlewares/Third_Party/LwIP/src/core/tcp.c **** /**
 249:Middlewares/Third_Party/LwIP/src/core/tcp.c ****  * Closes the TX side of a connection held by the PCB.
 250:Middlewares/Third_Party/LwIP/src/core/tcp.c ****  * For tcp_close(), a RST is sent if the application didn't receive all data
 251:Middlewares/Third_Party/LwIP/src/core/tcp.c ****  * (tcp_recved() not called for all data passed to recv callback).
 252:Middlewares/Third_Party/LwIP/src/core/tcp.c ****  *
 253:Middlewares/Third_Party/LwIP/src/core/tcp.c ****  * Listening pcbs are freed and may not be referenced any more.
 254:Middlewares/Third_Party/LwIP/src/core/tcp.c ****  * Connection pcbs are freed if not yet connected and may not be referenced
 255:Middlewares/Third_Party/LwIP/src/core/tcp.c ****  * any more. If a connection is established (at least SYN received or in
 256:Middlewares/Third_Party/LwIP/src/core/tcp.c ****  * a closing state), the connection is closed, and put in a closing state.
 257:Middlewares/Third_Party/LwIP/src/core/tcp.c ****  * The pcb is then automatically freed in tcp_slowtmr(). It is therefore
 258:Middlewares/Third_Party/LwIP/src/core/tcp.c ****  * unsafe to reference it.
 259:Middlewares/Third_Party/LwIP/src/core/tcp.c ****  *
 260:Middlewares/Third_Party/LwIP/src/core/tcp.c ****  * @param pcb the tcp_pcb to close
 261:Middlewares/Third_Party/LwIP/src/core/tcp.c ****  * @return ERR_OK if connection has been closed
 262:Middlewares/Third_Party/LwIP/src/core/tcp.c ****  *         another err_t if closing failed and pcb is not freed
 263:Middlewares/Third_Party/LwIP/src/core/tcp.c ****  */
 264:Middlewares/Third_Party/LwIP/src/core/tcp.c **** static err_t
 265:Middlewares/Third_Party/LwIP/src/core/tcp.c **** tcp_close_shutdown(struct tcp_pcb *pcb, u8_t rst_on_unacked_data)
 266:Middlewares/Third_Party/LwIP/src/core/tcp.c **** {
 267:Middlewares/Third_Party/LwIP/src/core/tcp.c ****   if (rst_on_unacked_data && ((pcb->state == ESTABLISHED) || (pcb->state == CLOSE_WAIT))) {
 268:Middlewares/Third_Party/LwIP/src/core/tcp.c ****     if ((pcb->refused_data != NULL) || (pcb->rcv_wnd != TCP_WND_MAX(pcb))) {
 269:Middlewares/Third_Party/LwIP/src/core/tcp.c ****       /* Not all data received by application, send RST to tell the remote
 270:Middlewares/Third_Party/LwIP/src/core/tcp.c ****          side about this. */
 271:Middlewares/Third_Party/LwIP/src/core/tcp.c ****       LWIP_ASSERT("pcb->flags & TF_RXCLOSED", pcb->flags & TF_RXCLOSED);
 272:Middlewares/Third_Party/LwIP/src/core/tcp.c **** 
 273:Middlewares/Third_Party/LwIP/src/core/tcp.c ****       /* don't call tcp_abort here: we must not deallocate the pcb since
 274:Middlewares/Third_Party/LwIP/src/core/tcp.c ****          that might not be expected when calling tcp_close */
 275:Middlewares/Third_Party/LwIP/src/core/tcp.c ****       tcp_rst(pcb->snd_nxt, pcb->rcv_nxt, &pcb->local_ip, &pcb->remote_ip,
 276:Middlewares/Third_Party/LwIP/src/core/tcp.c ****                pcb->local_port, pcb->remote_port);
 277:Middlewares/Third_Party/LwIP/src/core/tcp.c **** 
 278:Middlewares/Third_Party/LwIP/src/core/tcp.c ****       tcp_pcb_purge(pcb);
 279:Middlewares/Third_Party/LwIP/src/core/tcp.c ****       TCP_RMV_ACTIVE(pcb);
 280:Middlewares/Third_Party/LwIP/src/core/tcp.c ****       if (pcb->state == ESTABLISHED) {
ARM GAS  /var/folders/0d/93p3r6493yg7p0rvl_4r983m0000gn/T//ccIusu9n.s 			page 7


 281:Middlewares/Third_Party/LwIP/src/core/tcp.c ****         /* move to TIME_WAIT since we close actively */
 282:Middlewares/Third_Party/LwIP/src/core/tcp.c ****         pcb->state = TIME_WAIT;
 283:Middlewares/Third_Party/LwIP/src/core/tcp.c ****         TCP_REG(&tcp_tw_pcbs, pcb);
 284:Middlewares/Third_Party/LwIP/src/core/tcp.c ****       } else {
 285:Middlewares/Third_Party/LwIP/src/core/tcp.c ****         /* CLOSE_WAIT: deallocate the pcb since we already sent a RST for it */
 286:Middlewares/Third_Party/LwIP/src/core/tcp.c ****         if (tcp_input_pcb == pcb) {
 287:Middlewares/Third_Party/LwIP/src/core/tcp.c ****           /* prevent using a deallocated pcb: free it from tcp_input later */
 288:Middlewares/Third_Party/LwIP/src/core/tcp.c ****           tcp_trigger_input_pcb_close();
 289:Middlewares/Third_Party/LwIP/src/core/tcp.c ****         } else {
 290:Middlewares/Third_Party/LwIP/src/core/tcp.c ****           memp_free(MEMP_TCP_PCB, pcb);
 291:Middlewares/Third_Party/LwIP/src/core/tcp.c ****         }
 292:Middlewares/Third_Party/LwIP/src/core/tcp.c ****       }
 293:Middlewares/Third_Party/LwIP/src/core/tcp.c ****       return ERR_OK;
 294:Middlewares/Third_Party/LwIP/src/core/tcp.c ****     }
 295:Middlewares/Third_Party/LwIP/src/core/tcp.c ****   }
 296:Middlewares/Third_Party/LwIP/src/core/tcp.c **** 
 297:Middlewares/Third_Party/LwIP/src/core/tcp.c ****   /* - states which free the pcb are handled here,
 298:Middlewares/Third_Party/LwIP/src/core/tcp.c ****      - states which send FIN and change state are handled in tcp_close_shutdown_fin() */
 299:Middlewares/Third_Party/LwIP/src/core/tcp.c ****   switch (pcb->state) {
 300:Middlewares/Third_Party/LwIP/src/core/tcp.c ****   case CLOSED:
 301:Middlewares/Third_Party/LwIP/src/core/tcp.c ****     /* Closing a pcb in the CLOSED state might seem erroneous,
 302:Middlewares/Third_Party/LwIP/src/core/tcp.c ****      * however, it is in this state once allocated and as yet unused
 303:Middlewares/Third_Party/LwIP/src/core/tcp.c ****      * and the user needs some way to free it should the need arise.
 304:Middlewares/Third_Party/LwIP/src/core/tcp.c ****      * Calling tcp_close() with a pcb that has already been closed, (i.e. twice)
 305:Middlewares/Third_Party/LwIP/src/core/tcp.c ****      * or for a pcb that has been used and then entered the CLOSED state
 306:Middlewares/Third_Party/LwIP/src/core/tcp.c ****      * is erroneous, but this should never happen as the pcb has in those cases
 307:Middlewares/Third_Party/LwIP/src/core/tcp.c ****      * been freed, and so any remaining handles are bogus. */
 308:Middlewares/Third_Party/LwIP/src/core/tcp.c ****     if (pcb->local_port != 0) {
 309:Middlewares/Third_Party/LwIP/src/core/tcp.c ****       TCP_RMV(&tcp_bound_pcbs, pcb);
 310:Middlewares/Third_Party/LwIP/src/core/tcp.c ****     }
 311:Middlewares/Third_Party/LwIP/src/core/tcp.c ****     memp_free(MEMP_TCP_PCB, pcb);
 312:Middlewares/Third_Party/LwIP/src/core/tcp.c ****     break;
 313:Middlewares/Third_Party/LwIP/src/core/tcp.c ****   case LISTEN:
 314:Middlewares/Third_Party/LwIP/src/core/tcp.c ****     tcp_listen_closed(pcb);
 315:Middlewares/Third_Party/LwIP/src/core/tcp.c ****     tcp_pcb_remove(&tcp_listen_pcbs.pcbs, pcb);
 316:Middlewares/Third_Party/LwIP/src/core/tcp.c ****     memp_free(MEMP_TCP_PCB_LISTEN, pcb);
 317:Middlewares/Third_Party/LwIP/src/core/tcp.c ****     break;
 318:Middlewares/Third_Party/LwIP/src/core/tcp.c ****   case SYN_SENT:
 319:Middlewares/Third_Party/LwIP/src/core/tcp.c ****     TCP_PCB_REMOVE_ACTIVE(pcb);
 320:Middlewares/Third_Party/LwIP/src/core/tcp.c ****     memp_free(MEMP_TCP_PCB, pcb);
 321:Middlewares/Third_Party/LwIP/src/core/tcp.c ****     MIB2_STATS_INC(mib2.tcpattemptfails);
 322:Middlewares/Third_Party/LwIP/src/core/tcp.c ****     break;
 323:Middlewares/Third_Party/LwIP/src/core/tcp.c ****   default:
 324:Middlewares/Third_Party/LwIP/src/core/tcp.c ****     return tcp_close_shutdown_fin(pcb);
 325:Middlewares/Third_Party/LwIP/src/core/tcp.c ****   }
 326:Middlewares/Third_Party/LwIP/src/core/tcp.c ****   return ERR_OK;
 327:Middlewares/Third_Party/LwIP/src/core/tcp.c **** }
 328:Middlewares/Third_Party/LwIP/src/core/tcp.c **** 
 329:Middlewares/Third_Party/LwIP/src/core/tcp.c **** static err_t
 330:Middlewares/Third_Party/LwIP/src/core/tcp.c **** tcp_close_shutdown_fin(struct tcp_pcb *pcb)
 331:Middlewares/Third_Party/LwIP/src/core/tcp.c **** {
 332:Middlewares/Third_Party/LwIP/src/core/tcp.c ****   err_t err;
 333:Middlewares/Third_Party/LwIP/src/core/tcp.c ****   LWIP_ASSERT("pcb != NULL", pcb != NULL);
 334:Middlewares/Third_Party/LwIP/src/core/tcp.c **** 
 335:Middlewares/Third_Party/LwIP/src/core/tcp.c ****   switch (pcb->state) {
 336:Middlewares/Third_Party/LwIP/src/core/tcp.c ****   case SYN_RCVD:
 337:Middlewares/Third_Party/LwIP/src/core/tcp.c ****     err = tcp_send_fin(pcb);
ARM GAS  /var/folders/0d/93p3r6493yg7p0rvl_4r983m0000gn/T//ccIusu9n.s 			page 8


 338:Middlewares/Third_Party/LwIP/src/core/tcp.c ****     if (err == ERR_OK) {
 339:Middlewares/Third_Party/LwIP/src/core/tcp.c ****       tcp_backlog_accepted(pcb);
 340:Middlewares/Third_Party/LwIP/src/core/tcp.c ****       MIB2_STATS_INC(mib2.tcpattemptfails);
 341:Middlewares/Third_Party/LwIP/src/core/tcp.c ****       pcb->state = FIN_WAIT_1;
 342:Middlewares/Third_Party/LwIP/src/core/tcp.c ****     }
 343:Middlewares/Third_Party/LwIP/src/core/tcp.c ****     break;
 344:Middlewares/Third_Party/LwIP/src/core/tcp.c ****   case ESTABLISHED:
 345:Middlewares/Third_Party/LwIP/src/core/tcp.c ****     err = tcp_send_fin(pcb);
 346:Middlewares/Third_Party/LwIP/src/core/tcp.c ****     if (err == ERR_OK) {
 347:Middlewares/Third_Party/LwIP/src/core/tcp.c ****       MIB2_STATS_INC(mib2.tcpestabresets);
 348:Middlewares/Third_Party/LwIP/src/core/tcp.c ****       pcb->state = FIN_WAIT_1;
 349:Middlewares/Third_Party/LwIP/src/core/tcp.c ****     }
 350:Middlewares/Third_Party/LwIP/src/core/tcp.c ****     break;
 351:Middlewares/Third_Party/LwIP/src/core/tcp.c ****   case CLOSE_WAIT:
 352:Middlewares/Third_Party/LwIP/src/core/tcp.c ****     err = tcp_send_fin(pcb);
 353:Middlewares/Third_Party/LwIP/src/core/tcp.c ****     if (err == ERR_OK) {
 354:Middlewares/Third_Party/LwIP/src/core/tcp.c ****       MIB2_STATS_INC(mib2.tcpestabresets);
 355:Middlewares/Third_Party/LwIP/src/core/tcp.c ****       pcb->state = LAST_ACK;
 356:Middlewares/Third_Party/LwIP/src/core/tcp.c ****     }
 357:Middlewares/Third_Party/LwIP/src/core/tcp.c ****     break;
 358:Middlewares/Third_Party/LwIP/src/core/tcp.c ****   default:
 359:Middlewares/Third_Party/LwIP/src/core/tcp.c ****     /* Has already been closed, do nothing. */
 360:Middlewares/Third_Party/LwIP/src/core/tcp.c ****     return ERR_OK;
 361:Middlewares/Third_Party/LwIP/src/core/tcp.c ****   }
 362:Middlewares/Third_Party/LwIP/src/core/tcp.c **** 
 363:Middlewares/Third_Party/LwIP/src/core/tcp.c ****   if (err == ERR_OK) {
 364:Middlewares/Third_Party/LwIP/src/core/tcp.c ****     /* To ensure all data has been sent when tcp_close returns, we have
 365:Middlewares/Third_Party/LwIP/src/core/tcp.c ****        to make sure tcp_output doesn't fail.
 366:Middlewares/Third_Party/LwIP/src/core/tcp.c ****        Since we don't really have to ensure all data has been sent when tcp_close
 367:Middlewares/Third_Party/LwIP/src/core/tcp.c ****        returns (unsent data is sent from tcp timer functions, also), we don't care
 368:Middlewares/Third_Party/LwIP/src/core/tcp.c ****        for the return value of tcp_output for now. */
 369:Middlewares/Third_Party/LwIP/src/core/tcp.c ****     tcp_output(pcb);
 370:Middlewares/Third_Party/LwIP/src/core/tcp.c ****   } else if (err == ERR_MEM) {
 371:Middlewares/Third_Party/LwIP/src/core/tcp.c ****     /* Mark this pcb for closing. Closing is retried from tcp_tmr. */
 372:Middlewares/Third_Party/LwIP/src/core/tcp.c ****     pcb->flags |= TF_CLOSEPEND;
 373:Middlewares/Third_Party/LwIP/src/core/tcp.c ****     /* We have to return ERR_OK from here to indicate to the callers that this
 374:Middlewares/Third_Party/LwIP/src/core/tcp.c ****        pcb should not be used any more as it will be freed soon via tcp_tmr.
 375:Middlewares/Third_Party/LwIP/src/core/tcp.c ****        This is OK here since sending FIN does not guarantee a time frime for
 376:Middlewares/Third_Party/LwIP/src/core/tcp.c ****        actually freeing the pcb, either (it is left in closure states for
 377:Middlewares/Third_Party/LwIP/src/core/tcp.c ****        remote ACK or timeout) */
 378:Middlewares/Third_Party/LwIP/src/core/tcp.c ****     return ERR_OK;
 379:Middlewares/Third_Party/LwIP/src/core/tcp.c ****   }
 380:Middlewares/Third_Party/LwIP/src/core/tcp.c ****   return err;
 381:Middlewares/Third_Party/LwIP/src/core/tcp.c **** }
 382:Middlewares/Third_Party/LwIP/src/core/tcp.c **** 
 383:Middlewares/Third_Party/LwIP/src/core/tcp.c **** /**
 384:Middlewares/Third_Party/LwIP/src/core/tcp.c ****  * @ingroup tcp_raw
 385:Middlewares/Third_Party/LwIP/src/core/tcp.c ****  * Closes the connection held by the PCB.
 386:Middlewares/Third_Party/LwIP/src/core/tcp.c ****  *
 387:Middlewares/Third_Party/LwIP/src/core/tcp.c ****  * Listening pcbs are freed and may not be referenced any more.
 388:Middlewares/Third_Party/LwIP/src/core/tcp.c ****  * Connection pcbs are freed if not yet connected and may not be referenced
 389:Middlewares/Third_Party/LwIP/src/core/tcp.c ****  * any more. If a connection is established (at least SYN received or in
 390:Middlewares/Third_Party/LwIP/src/core/tcp.c ****  * a closing state), the connection is closed, and put in a closing state.
 391:Middlewares/Third_Party/LwIP/src/core/tcp.c ****  * The pcb is then automatically freed in tcp_slowtmr(). It is therefore
 392:Middlewares/Third_Party/LwIP/src/core/tcp.c ****  * unsafe to reference it (unless an error is returned).
 393:Middlewares/Third_Party/LwIP/src/core/tcp.c ****  *
 394:Middlewares/Third_Party/LwIP/src/core/tcp.c ****  * @param pcb the tcp_pcb to close
ARM GAS  /var/folders/0d/93p3r6493yg7p0rvl_4r983m0000gn/T//ccIusu9n.s 			page 9


 395:Middlewares/Third_Party/LwIP/src/core/tcp.c ****  * @return ERR_OK if connection has been closed
 396:Middlewares/Third_Party/LwIP/src/core/tcp.c ****  *         another err_t if closing failed and pcb is not freed
 397:Middlewares/Third_Party/LwIP/src/core/tcp.c ****  */
 398:Middlewares/Third_Party/LwIP/src/core/tcp.c **** err_t
 399:Middlewares/Third_Party/LwIP/src/core/tcp.c **** tcp_close(struct tcp_pcb *pcb)
 400:Middlewares/Third_Party/LwIP/src/core/tcp.c **** {
 401:Middlewares/Third_Party/LwIP/src/core/tcp.c ****   LWIP_DEBUGF(TCP_DEBUG, ("tcp_close: closing in "));
 402:Middlewares/Third_Party/LwIP/src/core/tcp.c ****   tcp_debug_print_state(pcb->state);
 403:Middlewares/Third_Party/LwIP/src/core/tcp.c **** 
 404:Middlewares/Third_Party/LwIP/src/core/tcp.c ****   if (pcb->state != LISTEN) {
 405:Middlewares/Third_Party/LwIP/src/core/tcp.c ****     /* Set a flag not to receive any more data... */
 406:Middlewares/Third_Party/LwIP/src/core/tcp.c ****     pcb->flags |= TF_RXCLOSED;
 407:Middlewares/Third_Party/LwIP/src/core/tcp.c ****   }
 408:Middlewares/Third_Party/LwIP/src/core/tcp.c ****   /* ... and close */
 409:Middlewares/Third_Party/LwIP/src/core/tcp.c ****   return tcp_close_shutdown(pcb, 1);
 410:Middlewares/Third_Party/LwIP/src/core/tcp.c **** }
 411:Middlewares/Third_Party/LwIP/src/core/tcp.c **** 
 412:Middlewares/Third_Party/LwIP/src/core/tcp.c **** /**
 413:Middlewares/Third_Party/LwIP/src/core/tcp.c ****  * @ingroup tcp_raw
 414:Middlewares/Third_Party/LwIP/src/core/tcp.c ****  * Causes all or part of a full-duplex connection of this PCB to be shut down.
 415:Middlewares/Third_Party/LwIP/src/core/tcp.c ****  * This doesn't deallocate the PCB unless shutting down both sides!
 416:Middlewares/Third_Party/LwIP/src/core/tcp.c ****  * Shutting down both sides is the same as calling tcp_close, so if it succeds
 417:Middlewares/Third_Party/LwIP/src/core/tcp.c ****  * (i.e. returns ER_OK), the PCB must not be referenced any more!
 418:Middlewares/Third_Party/LwIP/src/core/tcp.c ****  *
 419:Middlewares/Third_Party/LwIP/src/core/tcp.c ****  * @param pcb PCB to shutdown
 420:Middlewares/Third_Party/LwIP/src/core/tcp.c ****  * @param shut_rx shut down receive side if this is != 0
 421:Middlewares/Third_Party/LwIP/src/core/tcp.c ****  * @param shut_tx shut down send side if this is != 0
 422:Middlewares/Third_Party/LwIP/src/core/tcp.c ****  * @return ERR_OK if shutdown succeeded (or the PCB has already been shut down)
 423:Middlewares/Third_Party/LwIP/src/core/tcp.c ****  *         another err_t on error.
 424:Middlewares/Third_Party/LwIP/src/core/tcp.c ****  */
 425:Middlewares/Third_Party/LwIP/src/core/tcp.c **** err_t
 426:Middlewares/Third_Party/LwIP/src/core/tcp.c **** tcp_shutdown(struct tcp_pcb *pcb, int shut_rx, int shut_tx)
 427:Middlewares/Third_Party/LwIP/src/core/tcp.c **** {
 428:Middlewares/Third_Party/LwIP/src/core/tcp.c ****   if (pcb->state == LISTEN) {
 429:Middlewares/Third_Party/LwIP/src/core/tcp.c ****     return ERR_CONN;
 430:Middlewares/Third_Party/LwIP/src/core/tcp.c ****   }
 431:Middlewares/Third_Party/LwIP/src/core/tcp.c ****   if (shut_rx) {
 432:Middlewares/Third_Party/LwIP/src/core/tcp.c ****     /* shut down the receive side: set a flag not to receive any more data... */
 433:Middlewares/Third_Party/LwIP/src/core/tcp.c ****     pcb->flags |= TF_RXCLOSED;
 434:Middlewares/Third_Party/LwIP/src/core/tcp.c ****     if (shut_tx) {
 435:Middlewares/Third_Party/LwIP/src/core/tcp.c ****       /* shutting down the tx AND rx side is the same as closing for the raw API */
 436:Middlewares/Third_Party/LwIP/src/core/tcp.c ****       return tcp_close_shutdown(pcb, 1);
 437:Middlewares/Third_Party/LwIP/src/core/tcp.c ****     }
 438:Middlewares/Third_Party/LwIP/src/core/tcp.c ****     /* ... and free buffered data */
 439:Middlewares/Third_Party/LwIP/src/core/tcp.c ****     if (pcb->refused_data != NULL) {
 440:Middlewares/Third_Party/LwIP/src/core/tcp.c ****       pbuf_free(pcb->refused_data);
 441:Middlewares/Third_Party/LwIP/src/core/tcp.c ****       pcb->refused_data = NULL;
 442:Middlewares/Third_Party/LwIP/src/core/tcp.c ****     }
 443:Middlewares/Third_Party/LwIP/src/core/tcp.c ****   }
 444:Middlewares/Third_Party/LwIP/src/core/tcp.c ****   if (shut_tx) {
 445:Middlewares/Third_Party/LwIP/src/core/tcp.c ****     /* This can't happen twice since if it succeeds, the pcb's state is changed.
 446:Middlewares/Third_Party/LwIP/src/core/tcp.c ****        Only close in these states as the others directly deallocate the PCB */
 447:Middlewares/Third_Party/LwIP/src/core/tcp.c ****     switch (pcb->state) {
 448:Middlewares/Third_Party/LwIP/src/core/tcp.c ****     case SYN_RCVD:
 449:Middlewares/Third_Party/LwIP/src/core/tcp.c ****     case ESTABLISHED:
 450:Middlewares/Third_Party/LwIP/src/core/tcp.c ****     case CLOSE_WAIT:
 451:Middlewares/Third_Party/LwIP/src/core/tcp.c ****       return tcp_close_shutdown(pcb, (u8_t)shut_rx);
ARM GAS  /var/folders/0d/93p3r6493yg7p0rvl_4r983m0000gn/T//ccIusu9n.s 			page 10


 452:Middlewares/Third_Party/LwIP/src/core/tcp.c ****     default:
 453:Middlewares/Third_Party/LwIP/src/core/tcp.c ****       /* Not (yet?) connected, cannot shutdown the TX side as that would bring us
 454:Middlewares/Third_Party/LwIP/src/core/tcp.c ****         into CLOSED state, where the PCB is deallocated. */
 455:Middlewares/Third_Party/LwIP/src/core/tcp.c ****       return ERR_CONN;
 456:Middlewares/Third_Party/LwIP/src/core/tcp.c ****     }
 457:Middlewares/Third_Party/LwIP/src/core/tcp.c ****   }
 458:Middlewares/Third_Party/LwIP/src/core/tcp.c ****   return ERR_OK;
 459:Middlewares/Third_Party/LwIP/src/core/tcp.c **** }
 460:Middlewares/Third_Party/LwIP/src/core/tcp.c **** 
 461:Middlewares/Third_Party/LwIP/src/core/tcp.c **** /**
 462:Middlewares/Third_Party/LwIP/src/core/tcp.c ****  * Abandons a connection and optionally sends a RST to the remote
 463:Middlewares/Third_Party/LwIP/src/core/tcp.c ****  * host.  Deletes the local protocol control block. This is done when
 464:Middlewares/Third_Party/LwIP/src/core/tcp.c ****  * a connection is killed because of shortage of memory.
 465:Middlewares/Third_Party/LwIP/src/core/tcp.c ****  *
 466:Middlewares/Third_Party/LwIP/src/core/tcp.c ****  * @param pcb the tcp_pcb to abort
 467:Middlewares/Third_Party/LwIP/src/core/tcp.c ****  * @param reset boolean to indicate whether a reset should be sent
 468:Middlewares/Third_Party/LwIP/src/core/tcp.c ****  */
 469:Middlewares/Third_Party/LwIP/src/core/tcp.c **** void
 470:Middlewares/Third_Party/LwIP/src/core/tcp.c **** tcp_abandon(struct tcp_pcb *pcb, int reset)
 471:Middlewares/Third_Party/LwIP/src/core/tcp.c **** {
 472:Middlewares/Third_Party/LwIP/src/core/tcp.c ****   u32_t seqno, ackno;
 473:Middlewares/Third_Party/LwIP/src/core/tcp.c **** #if LWIP_CALLBACK_API
 474:Middlewares/Third_Party/LwIP/src/core/tcp.c ****   tcp_err_fn errf;
 475:Middlewares/Third_Party/LwIP/src/core/tcp.c **** #endif /* LWIP_CALLBACK_API */
 476:Middlewares/Third_Party/LwIP/src/core/tcp.c ****   void *errf_arg;
 477:Middlewares/Third_Party/LwIP/src/core/tcp.c **** 
 478:Middlewares/Third_Party/LwIP/src/core/tcp.c ****   /* pcb->state LISTEN not allowed here */
 479:Middlewares/Third_Party/LwIP/src/core/tcp.c ****   LWIP_ASSERT("don't call tcp_abort/tcp_abandon for listen-pcbs",
 480:Middlewares/Third_Party/LwIP/src/core/tcp.c ****     pcb->state != LISTEN);
 481:Middlewares/Third_Party/LwIP/src/core/tcp.c ****   /* Figure out on which TCP PCB list we are, and remove us. If we
 482:Middlewares/Third_Party/LwIP/src/core/tcp.c ****      are in an active state, call the receive function associated with
 483:Middlewares/Third_Party/LwIP/src/core/tcp.c ****      the PCB with a NULL argument, and send an RST to the remote end. */
 484:Middlewares/Third_Party/LwIP/src/core/tcp.c ****   if (pcb->state == TIME_WAIT) {
 485:Middlewares/Third_Party/LwIP/src/core/tcp.c ****     tcp_pcb_remove(&tcp_tw_pcbs, pcb);
 486:Middlewares/Third_Party/LwIP/src/core/tcp.c ****     memp_free(MEMP_TCP_PCB, pcb);
 487:Middlewares/Third_Party/LwIP/src/core/tcp.c ****   } else {
 488:Middlewares/Third_Party/LwIP/src/core/tcp.c ****     int send_rst = 0;
 489:Middlewares/Third_Party/LwIP/src/core/tcp.c ****     u16_t local_port = 0;
 490:Middlewares/Third_Party/LwIP/src/core/tcp.c ****     enum tcp_state last_state;
 491:Middlewares/Third_Party/LwIP/src/core/tcp.c ****     seqno = pcb->snd_nxt;
 492:Middlewares/Third_Party/LwIP/src/core/tcp.c ****     ackno = pcb->rcv_nxt;
 493:Middlewares/Third_Party/LwIP/src/core/tcp.c **** #if LWIP_CALLBACK_API
 494:Middlewares/Third_Party/LwIP/src/core/tcp.c ****     errf = pcb->errf;
 495:Middlewares/Third_Party/LwIP/src/core/tcp.c **** #endif /* LWIP_CALLBACK_API */
 496:Middlewares/Third_Party/LwIP/src/core/tcp.c ****     errf_arg = pcb->callback_arg;
 497:Middlewares/Third_Party/LwIP/src/core/tcp.c ****     if (pcb->state == CLOSED) {
 498:Middlewares/Third_Party/LwIP/src/core/tcp.c ****       if (pcb->local_port != 0) {
 499:Middlewares/Third_Party/LwIP/src/core/tcp.c ****         /* bound, not yet opened */
 500:Middlewares/Third_Party/LwIP/src/core/tcp.c ****         TCP_RMV(&tcp_bound_pcbs, pcb);
 501:Middlewares/Third_Party/LwIP/src/core/tcp.c ****       }
 502:Middlewares/Third_Party/LwIP/src/core/tcp.c ****     } else {
 503:Middlewares/Third_Party/LwIP/src/core/tcp.c ****       send_rst = reset;
 504:Middlewares/Third_Party/LwIP/src/core/tcp.c ****       local_port = pcb->local_port;
 505:Middlewares/Third_Party/LwIP/src/core/tcp.c ****       TCP_PCB_REMOVE_ACTIVE(pcb);
 506:Middlewares/Third_Party/LwIP/src/core/tcp.c ****     }
 507:Middlewares/Third_Party/LwIP/src/core/tcp.c ****     if (pcb->unacked != NULL) {
 508:Middlewares/Third_Party/LwIP/src/core/tcp.c ****       tcp_segs_free(pcb->unacked);
ARM GAS  /var/folders/0d/93p3r6493yg7p0rvl_4r983m0000gn/T//ccIusu9n.s 			page 11


 509:Middlewares/Third_Party/LwIP/src/core/tcp.c ****     }
 510:Middlewares/Third_Party/LwIP/src/core/tcp.c ****     if (pcb->unsent != NULL) {
 511:Middlewares/Third_Party/LwIP/src/core/tcp.c ****       tcp_segs_free(pcb->unsent);
 512:Middlewares/Third_Party/LwIP/src/core/tcp.c ****     }
 513:Middlewares/Third_Party/LwIP/src/core/tcp.c **** #if TCP_QUEUE_OOSEQ
 514:Middlewares/Third_Party/LwIP/src/core/tcp.c ****     if (pcb->ooseq != NULL) {
 515:Middlewares/Third_Party/LwIP/src/core/tcp.c ****       tcp_segs_free(pcb->ooseq);
 516:Middlewares/Third_Party/LwIP/src/core/tcp.c ****     }
 517:Middlewares/Third_Party/LwIP/src/core/tcp.c **** #endif /* TCP_QUEUE_OOSEQ */
 518:Middlewares/Third_Party/LwIP/src/core/tcp.c ****     tcp_backlog_accepted(pcb);
 519:Middlewares/Third_Party/LwIP/src/core/tcp.c ****     if (send_rst) {
 520:Middlewares/Third_Party/LwIP/src/core/tcp.c ****       LWIP_DEBUGF(TCP_RST_DEBUG, ("tcp_abandon: sending RST\n"));
 521:Middlewares/Third_Party/LwIP/src/core/tcp.c ****       tcp_rst(seqno, ackno, &pcb->local_ip, &pcb->remote_ip, local_port, pcb->remote_port);
 522:Middlewares/Third_Party/LwIP/src/core/tcp.c ****     }
 523:Middlewares/Third_Party/LwIP/src/core/tcp.c ****     last_state = pcb->state;
 524:Middlewares/Third_Party/LwIP/src/core/tcp.c ****     memp_free(MEMP_TCP_PCB, pcb);
 525:Middlewares/Third_Party/LwIP/src/core/tcp.c ****     TCP_EVENT_ERR(last_state, errf, errf_arg, ERR_ABRT);
 526:Middlewares/Third_Party/LwIP/src/core/tcp.c ****   }
 527:Middlewares/Third_Party/LwIP/src/core/tcp.c **** }
 528:Middlewares/Third_Party/LwIP/src/core/tcp.c **** 
 529:Middlewares/Third_Party/LwIP/src/core/tcp.c **** /**
 530:Middlewares/Third_Party/LwIP/src/core/tcp.c ****  * @ingroup tcp_raw
 531:Middlewares/Third_Party/LwIP/src/core/tcp.c ****  * Aborts the connection by sending a RST (reset) segment to the remote
 532:Middlewares/Third_Party/LwIP/src/core/tcp.c ****  * host. The pcb is deallocated. This function never fails.
 533:Middlewares/Third_Party/LwIP/src/core/tcp.c ****  *
 534:Middlewares/Third_Party/LwIP/src/core/tcp.c ****  * ATTENTION: When calling this from one of the TCP callbacks, make
 535:Middlewares/Third_Party/LwIP/src/core/tcp.c ****  * sure you always return ERR_ABRT (and never return ERR_ABRT otherwise
 536:Middlewares/Third_Party/LwIP/src/core/tcp.c ****  * or you will risk accessing deallocated memory or memory leaks!
 537:Middlewares/Third_Party/LwIP/src/core/tcp.c ****  *
 538:Middlewares/Third_Party/LwIP/src/core/tcp.c ****  * @param pcb the tcp pcb to abort
 539:Middlewares/Third_Party/LwIP/src/core/tcp.c ****  */
 540:Middlewares/Third_Party/LwIP/src/core/tcp.c **** void
 541:Middlewares/Third_Party/LwIP/src/core/tcp.c **** tcp_abort(struct tcp_pcb *pcb)
 542:Middlewares/Third_Party/LwIP/src/core/tcp.c **** {
 543:Middlewares/Third_Party/LwIP/src/core/tcp.c ****   tcp_abandon(pcb, 1);
 544:Middlewares/Third_Party/LwIP/src/core/tcp.c **** }
 545:Middlewares/Third_Party/LwIP/src/core/tcp.c **** 
 546:Middlewares/Third_Party/LwIP/src/core/tcp.c **** /**
 547:Middlewares/Third_Party/LwIP/src/core/tcp.c ****  * @ingroup tcp_raw
 548:Middlewares/Third_Party/LwIP/src/core/tcp.c ****  * Binds the connection to a local port number and IP address. If the
 549:Middlewares/Third_Party/LwIP/src/core/tcp.c ****  * IP address is not given (i.e., ipaddr == NULL), the IP address of
 550:Middlewares/Third_Party/LwIP/src/core/tcp.c ****  * the outgoing network interface is used instead.
 551:Middlewares/Third_Party/LwIP/src/core/tcp.c ****  *
 552:Middlewares/Third_Party/LwIP/src/core/tcp.c ****  * @param pcb the tcp_pcb to bind (no check is done whether this pcb is
 553:Middlewares/Third_Party/LwIP/src/core/tcp.c ****  *        already bound!)
 554:Middlewares/Third_Party/LwIP/src/core/tcp.c ****  * @param ipaddr the local ip address to bind to (use IP4_ADDR_ANY to bind
 555:Middlewares/Third_Party/LwIP/src/core/tcp.c ****  *        to any local address
 556:Middlewares/Third_Party/LwIP/src/core/tcp.c ****  * @param port the local port to bind to
 557:Middlewares/Third_Party/LwIP/src/core/tcp.c ****  * @return ERR_USE if the port is already in use
 558:Middlewares/Third_Party/LwIP/src/core/tcp.c ****  *         ERR_VAL if bind failed because the PCB is not in a valid state
 559:Middlewares/Third_Party/LwIP/src/core/tcp.c ****  *         ERR_OK if bound
 560:Middlewares/Third_Party/LwIP/src/core/tcp.c ****  */
 561:Middlewares/Third_Party/LwIP/src/core/tcp.c **** err_t
 562:Middlewares/Third_Party/LwIP/src/core/tcp.c **** tcp_bind(struct tcp_pcb *pcb, const ip_addr_t *ipaddr, u16_t port)
 563:Middlewares/Third_Party/LwIP/src/core/tcp.c **** {
 564:Middlewares/Third_Party/LwIP/src/core/tcp.c ****   int i;
 565:Middlewares/Third_Party/LwIP/src/core/tcp.c ****   int max_pcb_list = NUM_TCP_PCB_LISTS;
ARM GAS  /var/folders/0d/93p3r6493yg7p0rvl_4r983m0000gn/T//ccIusu9n.s 			page 12


 566:Middlewares/Third_Party/LwIP/src/core/tcp.c ****   struct tcp_pcb *cpcb;
 567:Middlewares/Third_Party/LwIP/src/core/tcp.c **** 
 568:Middlewares/Third_Party/LwIP/src/core/tcp.c **** #if LWIP_IPV4
 569:Middlewares/Third_Party/LwIP/src/core/tcp.c ****   /* Don't propagate NULL pointer (IPv4 ANY) to subsequent functions */
 570:Middlewares/Third_Party/LwIP/src/core/tcp.c ****   if (ipaddr == NULL) {
 571:Middlewares/Third_Party/LwIP/src/core/tcp.c ****     ipaddr = IP4_ADDR_ANY;
 572:Middlewares/Third_Party/LwIP/src/core/tcp.c ****   }
 573:Middlewares/Third_Party/LwIP/src/core/tcp.c **** #endif /* LWIP_IPV4 */
 574:Middlewares/Third_Party/LwIP/src/core/tcp.c **** 
 575:Middlewares/Third_Party/LwIP/src/core/tcp.c ****   /* still need to check for ipaddr == NULL in IPv6 only case */
 576:Middlewares/Third_Party/LwIP/src/core/tcp.c ****   if ((pcb == NULL) || (ipaddr == NULL)) {
 577:Middlewares/Third_Party/LwIP/src/core/tcp.c ****     return ERR_VAL;
 578:Middlewares/Third_Party/LwIP/src/core/tcp.c ****   }
 579:Middlewares/Third_Party/LwIP/src/core/tcp.c **** 
 580:Middlewares/Third_Party/LwIP/src/core/tcp.c ****   LWIP_ERROR("tcp_bind: can only bind in state CLOSED", pcb->state == CLOSED, return ERR_VAL);
 581:Middlewares/Third_Party/LwIP/src/core/tcp.c **** 
 582:Middlewares/Third_Party/LwIP/src/core/tcp.c **** #if SO_REUSE
 583:Middlewares/Third_Party/LwIP/src/core/tcp.c ****   /* Unless the REUSEADDR flag is set,
 584:Middlewares/Third_Party/LwIP/src/core/tcp.c ****      we have to check the pcbs in TIME-WAIT state, also.
 585:Middlewares/Third_Party/LwIP/src/core/tcp.c ****      We do not dump TIME_WAIT pcb's; they can still be matched by incoming
 586:Middlewares/Third_Party/LwIP/src/core/tcp.c ****      packets using both local and remote IP addresses and ports to distinguish.
 587:Middlewares/Third_Party/LwIP/src/core/tcp.c ****    */
 588:Middlewares/Third_Party/LwIP/src/core/tcp.c ****   if (ip_get_option(pcb, SOF_REUSEADDR)) {
 589:Middlewares/Third_Party/LwIP/src/core/tcp.c ****     max_pcb_list = NUM_TCP_PCB_LISTS_NO_TIME_WAIT;
 590:Middlewares/Third_Party/LwIP/src/core/tcp.c ****   }
 591:Middlewares/Third_Party/LwIP/src/core/tcp.c **** #endif /* SO_REUSE */
 592:Middlewares/Third_Party/LwIP/src/core/tcp.c **** 
 593:Middlewares/Third_Party/LwIP/src/core/tcp.c ****   if (port == 0) {
 594:Middlewares/Third_Party/LwIP/src/core/tcp.c ****     port = tcp_new_port();
 595:Middlewares/Third_Party/LwIP/src/core/tcp.c ****     if (port == 0) {
 596:Middlewares/Third_Party/LwIP/src/core/tcp.c ****       return ERR_BUF;
 597:Middlewares/Third_Party/LwIP/src/core/tcp.c ****     }
 598:Middlewares/Third_Party/LwIP/src/core/tcp.c ****   } else {
 599:Middlewares/Third_Party/LwIP/src/core/tcp.c ****     /* Check if the address already is in use (on all lists) */
 600:Middlewares/Third_Party/LwIP/src/core/tcp.c ****     for (i = 0; i < max_pcb_list; i++) {
 601:Middlewares/Third_Party/LwIP/src/core/tcp.c ****       for (cpcb = *tcp_pcb_lists[i]; cpcb != NULL; cpcb = cpcb->next) {
 602:Middlewares/Third_Party/LwIP/src/core/tcp.c ****         if (cpcb->local_port == port) {
 603:Middlewares/Third_Party/LwIP/src/core/tcp.c **** #if SO_REUSE
 604:Middlewares/Third_Party/LwIP/src/core/tcp.c ****           /* Omit checking for the same port if both pcbs have REUSEADDR set.
 605:Middlewares/Third_Party/LwIP/src/core/tcp.c ****              For SO_REUSEADDR, the duplicate-check for a 5-tuple is done in
 606:Middlewares/Third_Party/LwIP/src/core/tcp.c ****              tcp_connect. */
 607:Middlewares/Third_Party/LwIP/src/core/tcp.c ****           if (!ip_get_option(pcb, SOF_REUSEADDR) ||
 608:Middlewares/Third_Party/LwIP/src/core/tcp.c ****               !ip_get_option(cpcb, SOF_REUSEADDR))
 609:Middlewares/Third_Party/LwIP/src/core/tcp.c **** #endif /* SO_REUSE */
 610:Middlewares/Third_Party/LwIP/src/core/tcp.c ****           {
 611:Middlewares/Third_Party/LwIP/src/core/tcp.c ****             /* @todo: check accept_any_ip_version */
 612:Middlewares/Third_Party/LwIP/src/core/tcp.c ****             if ((IP_IS_V6(ipaddr) == IP_IS_V6_VAL(cpcb->local_ip)) &&
 613:Middlewares/Third_Party/LwIP/src/core/tcp.c ****                 (ip_addr_isany(&cpcb->local_ip) ||
 614:Middlewares/Third_Party/LwIP/src/core/tcp.c ****                 ip_addr_isany(ipaddr) ||
 615:Middlewares/Third_Party/LwIP/src/core/tcp.c ****                 ip_addr_cmp(&cpcb->local_ip, ipaddr))) {
 616:Middlewares/Third_Party/LwIP/src/core/tcp.c ****               return ERR_USE;
 617:Middlewares/Third_Party/LwIP/src/core/tcp.c ****             }
 618:Middlewares/Third_Party/LwIP/src/core/tcp.c ****           }
 619:Middlewares/Third_Party/LwIP/src/core/tcp.c ****         }
 620:Middlewares/Third_Party/LwIP/src/core/tcp.c ****       }
 621:Middlewares/Third_Party/LwIP/src/core/tcp.c ****     }
 622:Middlewares/Third_Party/LwIP/src/core/tcp.c ****   }
ARM GAS  /var/folders/0d/93p3r6493yg7p0rvl_4r983m0000gn/T//ccIusu9n.s 			page 13


 623:Middlewares/Third_Party/LwIP/src/core/tcp.c **** 
 624:Middlewares/Third_Party/LwIP/src/core/tcp.c ****   if (!ip_addr_isany(ipaddr)) {
 625:Middlewares/Third_Party/LwIP/src/core/tcp.c ****     ip_addr_set(&pcb->local_ip, ipaddr);
 626:Middlewares/Third_Party/LwIP/src/core/tcp.c ****   }
 627:Middlewares/Third_Party/LwIP/src/core/tcp.c ****   pcb->local_port = port;
 628:Middlewares/Third_Party/LwIP/src/core/tcp.c ****   TCP_REG(&tcp_bound_pcbs, pcb);
 629:Middlewares/Third_Party/LwIP/src/core/tcp.c ****   LWIP_DEBUGF(TCP_DEBUG, ("tcp_bind: bind to port %"U16_F"\n", port));
 630:Middlewares/Third_Party/LwIP/src/core/tcp.c ****   return ERR_OK;
 631:Middlewares/Third_Party/LwIP/src/core/tcp.c **** }
 632:Middlewares/Third_Party/LwIP/src/core/tcp.c **** #if LWIP_CALLBACK_API
 633:Middlewares/Third_Party/LwIP/src/core/tcp.c **** /**
 634:Middlewares/Third_Party/LwIP/src/core/tcp.c ****  * Default accept callback if no accept callback is specified by the user.
 635:Middlewares/Third_Party/LwIP/src/core/tcp.c ****  */
 636:Middlewares/Third_Party/LwIP/src/core/tcp.c **** static err_t
 637:Middlewares/Third_Party/LwIP/src/core/tcp.c **** tcp_accept_null(void *arg, struct tcp_pcb *pcb, err_t err)
 638:Middlewares/Third_Party/LwIP/src/core/tcp.c **** {
 639:Middlewares/Third_Party/LwIP/src/core/tcp.c ****   LWIP_UNUSED_ARG(arg);
 640:Middlewares/Third_Party/LwIP/src/core/tcp.c ****   LWIP_UNUSED_ARG(err);
 641:Middlewares/Third_Party/LwIP/src/core/tcp.c **** 
 642:Middlewares/Third_Party/LwIP/src/core/tcp.c ****   tcp_abort(pcb);
 643:Middlewares/Third_Party/LwIP/src/core/tcp.c **** 
 644:Middlewares/Third_Party/LwIP/src/core/tcp.c ****   return ERR_ABRT;
 645:Middlewares/Third_Party/LwIP/src/core/tcp.c **** }
 646:Middlewares/Third_Party/LwIP/src/core/tcp.c **** #endif /* LWIP_CALLBACK_API */
 647:Middlewares/Third_Party/LwIP/src/core/tcp.c **** 
 648:Middlewares/Third_Party/LwIP/src/core/tcp.c **** /**
 649:Middlewares/Third_Party/LwIP/src/core/tcp.c ****  * @ingroup tcp_raw
 650:Middlewares/Third_Party/LwIP/src/core/tcp.c ****  * Set the state of the connection to be LISTEN, which means that it
 651:Middlewares/Third_Party/LwIP/src/core/tcp.c ****  * is able to accept incoming connections. The protocol control block
 652:Middlewares/Third_Party/LwIP/src/core/tcp.c ****  * is reallocated in order to consume less memory. Setting the
 653:Middlewares/Third_Party/LwIP/src/core/tcp.c ****  * connection to LISTEN is an irreversible process.
 654:Middlewares/Third_Party/LwIP/src/core/tcp.c ****  *
 655:Middlewares/Third_Party/LwIP/src/core/tcp.c ****  * @param pcb the original tcp_pcb
 656:Middlewares/Third_Party/LwIP/src/core/tcp.c ****  * @param backlog the incoming connections queue limit
 657:Middlewares/Third_Party/LwIP/src/core/tcp.c ****  * @return tcp_pcb used for listening, consumes less memory.
 658:Middlewares/Third_Party/LwIP/src/core/tcp.c ****  *
 659:Middlewares/Third_Party/LwIP/src/core/tcp.c ****  * @note The original tcp_pcb is freed. This function therefore has to be
 660:Middlewares/Third_Party/LwIP/src/core/tcp.c ****  *       called like this:
 661:Middlewares/Third_Party/LwIP/src/core/tcp.c ****  *             tpcb = tcp_listen_with_backlog(tpcb, backlog);
 662:Middlewares/Third_Party/LwIP/src/core/tcp.c ****  */
 663:Middlewares/Third_Party/LwIP/src/core/tcp.c **** struct tcp_pcb *
 664:Middlewares/Third_Party/LwIP/src/core/tcp.c **** tcp_listen_with_backlog(struct tcp_pcb *pcb, u8_t backlog)
 665:Middlewares/Third_Party/LwIP/src/core/tcp.c **** {
 666:Middlewares/Third_Party/LwIP/src/core/tcp.c ****   return tcp_listen_with_backlog_and_err(pcb, backlog, NULL);
 667:Middlewares/Third_Party/LwIP/src/core/tcp.c **** }
 668:Middlewares/Third_Party/LwIP/src/core/tcp.c **** 
 669:Middlewares/Third_Party/LwIP/src/core/tcp.c **** /**
 670:Middlewares/Third_Party/LwIP/src/core/tcp.c ****  * @ingroup tcp_raw
 671:Middlewares/Third_Party/LwIP/src/core/tcp.c ****  * Set the state of the connection to be LISTEN, which means that it
 672:Middlewares/Third_Party/LwIP/src/core/tcp.c ****  * is able to accept incoming connections. The protocol control block
 673:Middlewares/Third_Party/LwIP/src/core/tcp.c ****  * is reallocated in order to consume less memory. Setting the
 674:Middlewares/Third_Party/LwIP/src/core/tcp.c ****  * connection to LISTEN is an irreversible process.
 675:Middlewares/Third_Party/LwIP/src/core/tcp.c ****  *
 676:Middlewares/Third_Party/LwIP/src/core/tcp.c ****  * @param pcb the original tcp_pcb
 677:Middlewares/Third_Party/LwIP/src/core/tcp.c ****  * @param backlog the incoming connections queue limit
 678:Middlewares/Third_Party/LwIP/src/core/tcp.c ****  * @param err when NULL is returned, this contains the error reason
 679:Middlewares/Third_Party/LwIP/src/core/tcp.c ****  * @return tcp_pcb used for listening, consumes less memory.
ARM GAS  /var/folders/0d/93p3r6493yg7p0rvl_4r983m0000gn/T//ccIusu9n.s 			page 14


 680:Middlewares/Third_Party/LwIP/src/core/tcp.c ****  *
 681:Middlewares/Third_Party/LwIP/src/core/tcp.c ****  * @note The original tcp_pcb is freed. This function therefore has to be
 682:Middlewares/Third_Party/LwIP/src/core/tcp.c ****  *       called like this:
 683:Middlewares/Third_Party/LwIP/src/core/tcp.c ****  *             tpcb = tcp_listen_with_backlog_and_err(tpcb, backlog, &err);
 684:Middlewares/Third_Party/LwIP/src/core/tcp.c ****  */
 685:Middlewares/Third_Party/LwIP/src/core/tcp.c **** struct tcp_pcb *
 686:Middlewares/Third_Party/LwIP/src/core/tcp.c **** tcp_listen_with_backlog_and_err(struct tcp_pcb *pcb, u8_t backlog, err_t *err)
 687:Middlewares/Third_Party/LwIP/src/core/tcp.c **** {
 688:Middlewares/Third_Party/LwIP/src/core/tcp.c ****   struct tcp_pcb_listen *lpcb = NULL;
 689:Middlewares/Third_Party/LwIP/src/core/tcp.c ****   err_t res;
 690:Middlewares/Third_Party/LwIP/src/core/tcp.c **** 
 691:Middlewares/Third_Party/LwIP/src/core/tcp.c ****   LWIP_UNUSED_ARG(backlog);
 692:Middlewares/Third_Party/LwIP/src/core/tcp.c ****   LWIP_ERROR("tcp_listen: pcb already connected", pcb->state == CLOSED, res = ERR_CLSD; goto done);
 693:Middlewares/Third_Party/LwIP/src/core/tcp.c **** 
 694:Middlewares/Third_Party/LwIP/src/core/tcp.c ****   /* already listening? */
 695:Middlewares/Third_Party/LwIP/src/core/tcp.c ****   if (pcb->state == LISTEN) {
 696:Middlewares/Third_Party/LwIP/src/core/tcp.c ****     lpcb = (struct tcp_pcb_listen*)pcb;
 697:Middlewares/Third_Party/LwIP/src/core/tcp.c ****     res = ERR_ALREADY;
 698:Middlewares/Third_Party/LwIP/src/core/tcp.c ****     goto done;
 699:Middlewares/Third_Party/LwIP/src/core/tcp.c ****   }
 700:Middlewares/Third_Party/LwIP/src/core/tcp.c **** #if SO_REUSE
 701:Middlewares/Third_Party/LwIP/src/core/tcp.c ****   if (ip_get_option(pcb, SOF_REUSEADDR)) {
 702:Middlewares/Third_Party/LwIP/src/core/tcp.c ****     /* Since SOF_REUSEADDR allows reusing a local address before the pcb's usage
 703:Middlewares/Third_Party/LwIP/src/core/tcp.c ****        is declared (listen-/connection-pcb), we have to make sure now that
 704:Middlewares/Third_Party/LwIP/src/core/tcp.c ****        this port is only used once for every local IP. */
 705:Middlewares/Third_Party/LwIP/src/core/tcp.c ****     for (lpcb = tcp_listen_pcbs.listen_pcbs; lpcb != NULL; lpcb = lpcb->next) {
 706:Middlewares/Third_Party/LwIP/src/core/tcp.c ****       if ((lpcb->local_port == pcb->local_port) &&
 707:Middlewares/Third_Party/LwIP/src/core/tcp.c ****           ip_addr_cmp(&lpcb->local_ip, &pcb->local_ip)) {
 708:Middlewares/Third_Party/LwIP/src/core/tcp.c ****         /* this address/port is already used */
 709:Middlewares/Third_Party/LwIP/src/core/tcp.c ****         lpcb = NULL;
 710:Middlewares/Third_Party/LwIP/src/core/tcp.c ****         res = ERR_USE;
 711:Middlewares/Third_Party/LwIP/src/core/tcp.c ****         goto done;
 712:Middlewares/Third_Party/LwIP/src/core/tcp.c ****       }
 713:Middlewares/Third_Party/LwIP/src/core/tcp.c ****     }
 714:Middlewares/Third_Party/LwIP/src/core/tcp.c ****   }
 715:Middlewares/Third_Party/LwIP/src/core/tcp.c **** #endif /* SO_REUSE */
 716:Middlewares/Third_Party/LwIP/src/core/tcp.c ****   lpcb = (struct tcp_pcb_listen *)memp_malloc(MEMP_TCP_PCB_LISTEN);
 717:Middlewares/Third_Party/LwIP/src/core/tcp.c ****   if (lpcb == NULL) {
 718:Middlewares/Third_Party/LwIP/src/core/tcp.c ****     res = ERR_MEM;
 719:Middlewares/Third_Party/LwIP/src/core/tcp.c ****     goto done;
 720:Middlewares/Third_Party/LwIP/src/core/tcp.c ****   }
 721:Middlewares/Third_Party/LwIP/src/core/tcp.c ****   lpcb->callback_arg = pcb->callback_arg;
 722:Middlewares/Third_Party/LwIP/src/core/tcp.c ****   lpcb->local_port = pcb->local_port;
 723:Middlewares/Third_Party/LwIP/src/core/tcp.c ****   lpcb->state = LISTEN;
 724:Middlewares/Third_Party/LwIP/src/core/tcp.c ****   lpcb->prio = pcb->prio;
 725:Middlewares/Third_Party/LwIP/src/core/tcp.c ****   lpcb->so_options = pcb->so_options;
 726:Middlewares/Third_Party/LwIP/src/core/tcp.c ****   lpcb->ttl = pcb->ttl;
 727:Middlewares/Third_Party/LwIP/src/core/tcp.c ****   lpcb->tos = pcb->tos;
 728:Middlewares/Third_Party/LwIP/src/core/tcp.c **** #if LWIP_IPV4 && LWIP_IPV6
 729:Middlewares/Third_Party/LwIP/src/core/tcp.c ****   IP_SET_TYPE_VAL(lpcb->remote_ip, pcb->local_ip.type);
 730:Middlewares/Third_Party/LwIP/src/core/tcp.c **** #endif /* LWIP_IPV4 && LWIP_IPV6 */
 731:Middlewares/Third_Party/LwIP/src/core/tcp.c ****   ip_addr_copy(lpcb->local_ip, pcb->local_ip);
 732:Middlewares/Third_Party/LwIP/src/core/tcp.c ****   if (pcb->local_port != 0) {
 733:Middlewares/Third_Party/LwIP/src/core/tcp.c ****     TCP_RMV(&tcp_bound_pcbs, pcb);
 734:Middlewares/Third_Party/LwIP/src/core/tcp.c ****   }
 735:Middlewares/Third_Party/LwIP/src/core/tcp.c ****   memp_free(MEMP_TCP_PCB, pcb);
 736:Middlewares/Third_Party/LwIP/src/core/tcp.c **** #if LWIP_CALLBACK_API
ARM GAS  /var/folders/0d/93p3r6493yg7p0rvl_4r983m0000gn/T//ccIusu9n.s 			page 15


 737:Middlewares/Third_Party/LwIP/src/core/tcp.c ****   lpcb->accept = tcp_accept_null;
 738:Middlewares/Third_Party/LwIP/src/core/tcp.c **** #endif /* LWIP_CALLBACK_API */
 739:Middlewares/Third_Party/LwIP/src/core/tcp.c **** #if TCP_LISTEN_BACKLOG
 740:Middlewares/Third_Party/LwIP/src/core/tcp.c ****   lpcb->accepts_pending = 0;
 741:Middlewares/Third_Party/LwIP/src/core/tcp.c ****   tcp_backlog_set(lpcb, backlog);
 742:Middlewares/Third_Party/LwIP/src/core/tcp.c **** #endif /* TCP_LISTEN_BACKLOG */
 743:Middlewares/Third_Party/LwIP/src/core/tcp.c ****   TCP_REG(&tcp_listen_pcbs.pcbs, (struct tcp_pcb *)lpcb);
 744:Middlewares/Third_Party/LwIP/src/core/tcp.c ****   res = ERR_OK;
 745:Middlewares/Third_Party/LwIP/src/core/tcp.c **** done:
 746:Middlewares/Third_Party/LwIP/src/core/tcp.c ****   if (err != NULL) {
 747:Middlewares/Third_Party/LwIP/src/core/tcp.c ****     *err = res;
 748:Middlewares/Third_Party/LwIP/src/core/tcp.c ****   }
 749:Middlewares/Third_Party/LwIP/src/core/tcp.c ****   return (struct tcp_pcb *)lpcb;
 750:Middlewares/Third_Party/LwIP/src/core/tcp.c **** }
 751:Middlewares/Third_Party/LwIP/src/core/tcp.c **** 
 752:Middlewares/Third_Party/LwIP/src/core/tcp.c **** /**
 753:Middlewares/Third_Party/LwIP/src/core/tcp.c ****  * Update the state that tracks the available window space to advertise.
 754:Middlewares/Third_Party/LwIP/src/core/tcp.c ****  *
 755:Middlewares/Third_Party/LwIP/src/core/tcp.c ****  * Returns how much extra window would be advertised if we sent an
 756:Middlewares/Third_Party/LwIP/src/core/tcp.c ****  * update now.
 757:Middlewares/Third_Party/LwIP/src/core/tcp.c ****  */
 758:Middlewares/Third_Party/LwIP/src/core/tcp.c **** u32_t
 759:Middlewares/Third_Party/LwIP/src/core/tcp.c **** tcp_update_rcv_ann_wnd(struct tcp_pcb *pcb)
 760:Middlewares/Third_Party/LwIP/src/core/tcp.c **** {
 761:Middlewares/Third_Party/LwIP/src/core/tcp.c ****   u32_t new_right_edge = pcb->rcv_nxt + pcb->rcv_wnd;
 762:Middlewares/Third_Party/LwIP/src/core/tcp.c **** 
 763:Middlewares/Third_Party/LwIP/src/core/tcp.c ****   if (TCP_SEQ_GEQ(new_right_edge, pcb->rcv_ann_right_edge + LWIP_MIN((TCP_WND / 2), pcb->mss))) {
 764:Middlewares/Third_Party/LwIP/src/core/tcp.c ****     /* we can advertise more window */
 765:Middlewares/Third_Party/LwIP/src/core/tcp.c ****     pcb->rcv_ann_wnd = pcb->rcv_wnd;
 766:Middlewares/Third_Party/LwIP/src/core/tcp.c ****     return new_right_edge - pcb->rcv_ann_right_edge;
 767:Middlewares/Third_Party/LwIP/src/core/tcp.c ****   } else {
 768:Middlewares/Third_Party/LwIP/src/core/tcp.c ****     if (TCP_SEQ_GT(pcb->rcv_nxt, pcb->rcv_ann_right_edge)) {
 769:Middlewares/Third_Party/LwIP/src/core/tcp.c ****       /* Can happen due to other end sending out of advertised window,
 770:Middlewares/Third_Party/LwIP/src/core/tcp.c ****        * but within actual available (but not yet advertised) window */
 771:Middlewares/Third_Party/LwIP/src/core/tcp.c ****       pcb->rcv_ann_wnd = 0;
 772:Middlewares/Third_Party/LwIP/src/core/tcp.c ****     } else {
 773:Middlewares/Third_Party/LwIP/src/core/tcp.c ****       /* keep the right edge of window constant */
 774:Middlewares/Third_Party/LwIP/src/core/tcp.c ****       u32_t new_rcv_ann_wnd = pcb->rcv_ann_right_edge - pcb->rcv_nxt;
 775:Middlewares/Third_Party/LwIP/src/core/tcp.c **** #if !LWIP_WND_SCALE
 776:Middlewares/Third_Party/LwIP/src/core/tcp.c ****       LWIP_ASSERT("new_rcv_ann_wnd <= 0xffff", new_rcv_ann_wnd <= 0xffff);
 777:Middlewares/Third_Party/LwIP/src/core/tcp.c **** #endif
 778:Middlewares/Third_Party/LwIP/src/core/tcp.c ****       pcb->rcv_ann_wnd = (tcpwnd_size_t)new_rcv_ann_wnd;
 779:Middlewares/Third_Party/LwIP/src/core/tcp.c ****     }
 780:Middlewares/Third_Party/LwIP/src/core/tcp.c ****     return 0;
 781:Middlewares/Third_Party/LwIP/src/core/tcp.c ****   }
 782:Middlewares/Third_Party/LwIP/src/core/tcp.c **** }
 783:Middlewares/Third_Party/LwIP/src/core/tcp.c **** 
 784:Middlewares/Third_Party/LwIP/src/core/tcp.c **** /**
 785:Middlewares/Third_Party/LwIP/src/core/tcp.c ****  * @ingroup tcp_raw
 786:Middlewares/Third_Party/LwIP/src/core/tcp.c ****  * This function should be called by the application when it has
 787:Middlewares/Third_Party/LwIP/src/core/tcp.c ****  * processed the data. The purpose is to advertise a larger window
 788:Middlewares/Third_Party/LwIP/src/core/tcp.c ****  * when the data has been processed.
 789:Middlewares/Third_Party/LwIP/src/core/tcp.c ****  *
 790:Middlewares/Third_Party/LwIP/src/core/tcp.c ****  * @param pcb the tcp_pcb for which data is read
 791:Middlewares/Third_Party/LwIP/src/core/tcp.c ****  * @param len the amount of bytes that have been read by the application
 792:Middlewares/Third_Party/LwIP/src/core/tcp.c ****  */
 793:Middlewares/Third_Party/LwIP/src/core/tcp.c **** void
ARM GAS  /var/folders/0d/93p3r6493yg7p0rvl_4r983m0000gn/T//ccIusu9n.s 			page 16


 794:Middlewares/Third_Party/LwIP/src/core/tcp.c **** tcp_recved(struct tcp_pcb *pcb, u16_t len)
 795:Middlewares/Third_Party/LwIP/src/core/tcp.c **** {
 796:Middlewares/Third_Party/LwIP/src/core/tcp.c ****   int wnd_inflation;
 797:Middlewares/Third_Party/LwIP/src/core/tcp.c **** 
 798:Middlewares/Third_Party/LwIP/src/core/tcp.c ****   /* pcb->state LISTEN not allowed here */
 799:Middlewares/Third_Party/LwIP/src/core/tcp.c ****   LWIP_ASSERT("don't call tcp_recved for listen-pcbs",
 800:Middlewares/Third_Party/LwIP/src/core/tcp.c ****     pcb->state != LISTEN);
 801:Middlewares/Third_Party/LwIP/src/core/tcp.c **** 
 802:Middlewares/Third_Party/LwIP/src/core/tcp.c ****   pcb->rcv_wnd += len;
 803:Middlewares/Third_Party/LwIP/src/core/tcp.c ****   if (pcb->rcv_wnd > TCP_WND_MAX(pcb)) {
 804:Middlewares/Third_Party/LwIP/src/core/tcp.c ****     pcb->rcv_wnd = TCP_WND_MAX(pcb);
 805:Middlewares/Third_Party/LwIP/src/core/tcp.c ****   } else if (pcb->rcv_wnd == 0) {
 806:Middlewares/Third_Party/LwIP/src/core/tcp.c ****     /* rcv_wnd overflowed */
 807:Middlewares/Third_Party/LwIP/src/core/tcp.c ****     if ((pcb->state == CLOSE_WAIT) || (pcb->state == LAST_ACK)) {
 808:Middlewares/Third_Party/LwIP/src/core/tcp.c ****       /* In passive close, we allow this, since the FIN bit is added to rcv_wnd
 809:Middlewares/Third_Party/LwIP/src/core/tcp.c ****          by the stack itself, since it is not mandatory for an application
 810:Middlewares/Third_Party/LwIP/src/core/tcp.c ****          to call tcp_recved() for the FIN bit, but e.g. the netconn API does so. */
 811:Middlewares/Third_Party/LwIP/src/core/tcp.c ****       pcb->rcv_wnd = TCP_WND_MAX(pcb);
 812:Middlewares/Third_Party/LwIP/src/core/tcp.c ****     } else {
 813:Middlewares/Third_Party/LwIP/src/core/tcp.c ****       LWIP_ASSERT("tcp_recved: len wrapped rcv_wnd\n", 0);
 814:Middlewares/Third_Party/LwIP/src/core/tcp.c ****     }
 815:Middlewares/Third_Party/LwIP/src/core/tcp.c ****   }
 816:Middlewares/Third_Party/LwIP/src/core/tcp.c **** 
 817:Middlewares/Third_Party/LwIP/src/core/tcp.c ****   wnd_inflation = tcp_update_rcv_ann_wnd(pcb);
 818:Middlewares/Third_Party/LwIP/src/core/tcp.c **** 
 819:Middlewares/Third_Party/LwIP/src/core/tcp.c ****   /* If the change in the right edge of window is significant (default
 820:Middlewares/Third_Party/LwIP/src/core/tcp.c ****    * watermark is TCP_WND/4), then send an explicit update now.
 821:Middlewares/Third_Party/LwIP/src/core/tcp.c ****    * Otherwise wait for a packet to be sent in the normal course of
 822:Middlewares/Third_Party/LwIP/src/core/tcp.c ****    * events (or more window to be available later) */
 823:Middlewares/Third_Party/LwIP/src/core/tcp.c ****   if (wnd_inflation >= TCP_WND_UPDATE_THRESHOLD) {
 824:Middlewares/Third_Party/LwIP/src/core/tcp.c ****     tcp_ack_now(pcb);
 825:Middlewares/Third_Party/LwIP/src/core/tcp.c ****     tcp_output(pcb);
 826:Middlewares/Third_Party/LwIP/src/core/tcp.c ****   }
 827:Middlewares/Third_Party/LwIP/src/core/tcp.c **** 
 828:Middlewares/Third_Party/LwIP/src/core/tcp.c ****   LWIP_DEBUGF(TCP_DEBUG, ("tcp_recved: received %"U16_F" bytes, wnd %"TCPWNDSIZE_F" (%"TCPWNDSIZE_F
 829:Middlewares/Third_Party/LwIP/src/core/tcp.c ****          len, pcb->rcv_wnd, (u16_t)(TCP_WND_MAX(pcb) - pcb->rcv_wnd)));
 830:Middlewares/Third_Party/LwIP/src/core/tcp.c **** }
 831:Middlewares/Third_Party/LwIP/src/core/tcp.c **** 
 832:Middlewares/Third_Party/LwIP/src/core/tcp.c **** /**
 833:Middlewares/Third_Party/LwIP/src/core/tcp.c ****  * Allocate a new local TCP port.
 834:Middlewares/Third_Party/LwIP/src/core/tcp.c ****  *
 835:Middlewares/Third_Party/LwIP/src/core/tcp.c ****  * @return a new (free) local TCP port number
 836:Middlewares/Third_Party/LwIP/src/core/tcp.c ****  */
 837:Middlewares/Third_Party/LwIP/src/core/tcp.c **** static u16_t
 838:Middlewares/Third_Party/LwIP/src/core/tcp.c **** tcp_new_port(void)
 839:Middlewares/Third_Party/LwIP/src/core/tcp.c **** {
  66              		.loc 1 839 0
  67              		.cfi_startproc
  68              		@ args = 0, pretend = 0, frame = 0
  69              		@ frame_needed = 0, uses_anonymous_args = 0
  70              		@ link register save eliminated.
  71 0000 10B4     		push	{r4}
  72              	.LCFI0:
  73              		.cfi_def_cfa_offset 4
  74              		.cfi_offset 4, -4
  75              	.LVL3:
 840:Middlewares/Third_Party/LwIP/src/core/tcp.c ****   u8_t i;
ARM GAS  /var/folders/0d/93p3r6493yg7p0rvl_4r983m0000gn/T//ccIusu9n.s 			page 17


 841:Middlewares/Third_Party/LwIP/src/core/tcp.c ****   u16_t n = 0;
  76              		.loc 1 841 0
  77 0002 0024     		movs	r4, #0
  78 0004 09E0     		b	.L7
  79              	.LVL4:
  80              	.L18:
 842:Middlewares/Third_Party/LwIP/src/core/tcp.c ****   struct tcp_pcb *pcb;
 843:Middlewares/Third_Party/LwIP/src/core/tcp.c **** 
 844:Middlewares/Third_Party/LwIP/src/core/tcp.c **** again:
 845:Middlewares/Third_Party/LwIP/src/core/tcp.c ****   if (tcp_port++ == TCP_LOCAL_PORT_RANGE_END) {
 846:Middlewares/Third_Party/LwIP/src/core/tcp.c ****     tcp_port = TCP_LOCAL_PORT_RANGE_START;
  81              		.loc 1 846 0
  82 0006 154B     		ldr	r3, .L22
  83 0008 4FF44042 		mov	r2, #49152
  84 000c 1A80     		strh	r2, [r3]	@ movhi
  85 000e 0CE0     		b	.L8
  86              	.LVL5:
  87              	.L21:
 847:Middlewares/Third_Party/LwIP/src/core/tcp.c ****   }
 848:Middlewares/Third_Party/LwIP/src/core/tcp.c ****   /* Check all PCB lists. */
 849:Middlewares/Third_Party/LwIP/src/core/tcp.c ****   for (i = 0; i < NUM_TCP_PCB_LISTS; i++) {
 850:Middlewares/Third_Party/LwIP/src/core/tcp.c ****     for (pcb = *tcp_pcb_lists[i]; pcb != NULL; pcb = pcb->next) {
 851:Middlewares/Third_Party/LwIP/src/core/tcp.c ****       if (pcb->local_port == tcp_port) {
 852:Middlewares/Third_Party/LwIP/src/core/tcp.c ****         if (++n > (TCP_LOCAL_PORT_RANGE_END - TCP_LOCAL_PORT_RANGE_START)) {
  88              		.loc 1 852 0
  89 0010 0134     		adds	r4, r4, #1
  90              	.LVL6:
  91 0012 A4B2     		uxth	r4, r4
  92              	.LVL7:
  93 0014 B4F5804F 		cmp	r4, #16384
  94 0018 1ED2     		bcs	.L17
  95              	.LVL8:
  96              	.L7:
 845:Middlewares/Third_Party/LwIP/src/core/tcp.c ****     tcp_port = TCP_LOCAL_PORT_RANGE_START;
  97              		.loc 1 845 0
  98 001a 104A     		ldr	r2, .L22
  99 001c 1388     		ldrh	r3, [r2]
 100 001e 591C     		adds	r1, r3, #1
 101 0020 1180     		strh	r1, [r2]	@ movhi
 102 0022 4FF6FF72 		movw	r2, #65535
 103 0026 9342     		cmp	r3, r2
 104 0028 EDD0     		beq	.L18
 105              	.L8:
 106              	.LVL9:
 849:Middlewares/Third_Party/LwIP/src/core/tcp.c ****     for (pcb = *tcp_pcb_lists[i]; pcb != NULL; pcb = pcb->next) {
 107              		.loc 1 849 0
 108 002a 0020     		movs	r0, #0
 109              	.LVL10:
 110              	.L9:
 849:Middlewares/Third_Party/LwIP/src/core/tcp.c ****     for (pcb = *tcp_pcb_lists[i]; pcb != NULL; pcb = pcb->next) {
 111              		.loc 1 849 0 is_stmt 0 discriminator 1
 112 002c 0328     		cmp	r0, #3
 113 002e 0ED8     		bhi	.L19
 850:Middlewares/Third_Party/LwIP/src/core/tcp.c ****       if (pcb->local_port == tcp_port) {
 114              		.loc 1 850 0 is_stmt 1
 115 0030 0B4B     		ldr	r3, .L22+4
 116 0032 53F82030 		ldr	r3, [r3, r0, lsl #2]
ARM GAS  /var/folders/0d/93p3r6493yg7p0rvl_4r983m0000gn/T//ccIusu9n.s 			page 18


 117 0036 1B68     		ldr	r3, [r3]
 118              	.LVL11:
 119              	.L10:
 850:Middlewares/Third_Party/LwIP/src/core/tcp.c ****       if (pcb->local_port == tcp_port) {
 120              		.loc 1 850 0 is_stmt 0 discriminator 1
 121 0038 33B1     		cbz	r3, .L20
 851:Middlewares/Third_Party/LwIP/src/core/tcp.c ****         if (++n > (TCP_LOCAL_PORT_RANGE_END - TCP_LOCAL_PORT_RANGE_START)) {
 122              		.loc 1 851 0 is_stmt 1
 123 003a D98A     		ldrh	r1, [r3, #22]
 124 003c 074A     		ldr	r2, .L22
 125 003e 1288     		ldrh	r2, [r2]
 126 0040 9142     		cmp	r1, r2
 127 0042 E5D0     		beq	.L21
 850:Middlewares/Third_Party/LwIP/src/core/tcp.c ****       if (pcb->local_port == tcp_port) {
 128              		.loc 1 850 0 discriminator 2
 129 0044 DB68     		ldr	r3, [r3, #12]
 130              	.LVL12:
 131 0046 F7E7     		b	.L10
 132              	.L20:
 849:Middlewares/Third_Party/LwIP/src/core/tcp.c ****     for (pcb = *tcp_pcb_lists[i]; pcb != NULL; pcb = pcb->next) {
 133              		.loc 1 849 0 discriminator 2
 134 0048 0130     		adds	r0, r0, #1
 135              	.LVL13:
 136 004a C0B2     		uxtb	r0, r0
 137              	.LVL14:
 138 004c EEE7     		b	.L9
 139              	.LVL15:
 140              	.L19:
 853:Middlewares/Third_Party/LwIP/src/core/tcp.c ****           return 0;
 854:Middlewares/Third_Party/LwIP/src/core/tcp.c ****         }
 855:Middlewares/Third_Party/LwIP/src/core/tcp.c ****         goto again;
 856:Middlewares/Third_Party/LwIP/src/core/tcp.c ****       }
 857:Middlewares/Third_Party/LwIP/src/core/tcp.c ****     }
 858:Middlewares/Third_Party/LwIP/src/core/tcp.c ****   }
 859:Middlewares/Third_Party/LwIP/src/core/tcp.c ****   return tcp_port;
 141              		.loc 1 859 0
 142 004e 034B     		ldr	r3, .L22
 143 0050 1888     		ldrh	r0, [r3]
 144              	.LVL16:
 145              	.L12:
 860:Middlewares/Third_Party/LwIP/src/core/tcp.c **** }
 146              		.loc 1 860 0
 147 0052 5DF8044B 		ldr	r4, [sp], #4
 148              	.LCFI1:
 149              		.cfi_remember_state
 150              		.cfi_restore 4
 151              		.cfi_def_cfa_offset 0
 152              	.LVL17:
 153 0056 7047     		bx	lr
 154              	.LVL18:
 155              	.L17:
 156              	.LCFI2:
 157              		.cfi_restore_state
 853:Middlewares/Third_Party/LwIP/src/core/tcp.c ****           return 0;
 158              		.loc 1 853 0
 159 0058 0020     		movs	r0, #0
 160              	.LVL19:
ARM GAS  /var/folders/0d/93p3r6493yg7p0rvl_4r983m0000gn/T//ccIusu9n.s 			page 19


 161 005a FAE7     		b	.L12
 162              	.L23:
 163              		.align	2
 164              	.L22:
 165 005c 00000000 		.word	.LANCHOR0
 166 0060 00000000 		.word	.LANCHOR1
 167              		.cfi_endproc
 168              	.LFE158:
 170              		.section	.text.tcp_listen_closed,"ax",%progbits
 171              		.align	1
 172              		.syntax unified
 173              		.thumb
 174              		.thumb_func
 175              		.fpu fpv4-sp-d16
 177              	tcp_listen_closed:
 178              	.LFB145:
 189:Middlewares/Third_Party/LwIP/src/core/tcp.c **** #if LWIP_CALLBACK_API || TCP_LISTEN_BACKLOG
 179              		.loc 1 189 0
 180              		.cfi_startproc
 181              		@ args = 0, pretend = 0, frame = 0
 182              		@ frame_needed = 0, uses_anonymous_args = 0
 183              	.LVL20:
 184 0000 38B5     		push	{r3, r4, r5, lr}
 185              	.LCFI3:
 186              		.cfi_def_cfa_offset 16
 187              		.cfi_offset 3, -16
 188              		.cfi_offset 4, -12
 189              		.cfi_offset 5, -8
 190              		.cfi_offset 14, -4
 192:Middlewares/Third_Party/LwIP/src/core/tcp.c ****   LWIP_ASSERT("pcb->state == LISTEN", pcb->state == LISTEN);
 191              		.loc 1 192 0
 192 0002 0546     		mov	r5, r0
 193 0004 20B1     		cbz	r0, .L30
 194              	.LVL21:
 195              	.L25:
 193:Middlewares/Third_Party/LwIP/src/core/tcp.c ****   for (i = 1; i < LWIP_ARRAYSIZE(tcp_pcb_lists); i++) {
 196              		.loc 1 193 0
 197 0006 2B7D     		ldrb	r3, [r5, #20]	@ zero_extendqisi2
 198 0008 012B     		cmp	r3, #1
 199 000a 08D1     		bne	.L31
 200              	.L26:
 189:Middlewares/Third_Party/LwIP/src/core/tcp.c **** #if LWIP_CALLBACK_API || TCP_LISTEN_BACKLOG
 201              		.loc 1 189 0 discriminator 1
 202 000c 0124     		movs	r4, #1
 203 000e 15E0     		b	.L27
 204              	.LVL22:
 205              	.L30:
 192:Middlewares/Third_Party/LwIP/src/core/tcp.c ****   LWIP_ASSERT("pcb->state == LISTEN", pcb->state == LISTEN);
 206              		.loc 1 192 0 discriminator 1
 207 0010 0C4B     		ldr	r3, .L32
 208 0012 C022     		movs	r2, #192
 209 0014 0C49     		ldr	r1, .L32+4
 210 0016 0D48     		ldr	r0, .L32+8
 211              	.LVL23:
 212 0018 FFF7FEFF 		bl	printf
 213              	.LVL24:
 214 001c F3E7     		b	.L25
ARM GAS  /var/folders/0d/93p3r6493yg7p0rvl_4r983m0000gn/T//ccIusu9n.s 			page 20


 215              	.L31:
 193:Middlewares/Third_Party/LwIP/src/core/tcp.c ****   for (i = 1; i < LWIP_ARRAYSIZE(tcp_pcb_lists); i++) {
 216              		.loc 1 193 0 discriminator 1
 217 001e 094B     		ldr	r3, .L32
 218 0020 C122     		movs	r2, #193
 219 0022 0B49     		ldr	r1, .L32+12
 220 0024 0948     		ldr	r0, .L32+8
 221 0026 FFF7FEFF 		bl	printf
 222              	.LVL25:
 223 002a EFE7     		b	.L26
 224              	.LVL26:
 225              	.L28:
 195:Middlewares/Third_Party/LwIP/src/core/tcp.c ****   }
 226              		.loc 1 195 0 discriminator 3
 227 002c 094B     		ldr	r3, .L32+16
 228 002e 53F82430 		ldr	r3, [r3, r4, lsl #2]
 229 0032 2946     		mov	r1, r5
 230 0034 1868     		ldr	r0, [r3]
 231 0036 FFF7FEFF 		bl	tcp_remove_listener
 232              	.LVL27:
 194:Middlewares/Third_Party/LwIP/src/core/tcp.c ****     tcp_remove_listener(*tcp_pcb_lists[i], (struct tcp_pcb_listen*)pcb);
 233              		.loc 1 194 0 discriminator 3
 234 003a 0134     		adds	r4, r4, #1
 235              	.LVL28:
 236              	.L27:
 194:Middlewares/Third_Party/LwIP/src/core/tcp.c ****     tcp_remove_listener(*tcp_pcb_lists[i], (struct tcp_pcb_listen*)pcb);
 237              		.loc 1 194 0 is_stmt 0 discriminator 1
 238 003c 032C     		cmp	r4, #3
 239 003e F5D9     		bls	.L28
 199:Middlewares/Third_Party/LwIP/src/core/tcp.c **** 
 240              		.loc 1 199 0 is_stmt 1
 241 0040 38BD     		pop	{r3, r4, r5, pc}
 242              	.LVL29:
 243              	.L33:
 244 0042 00BF     		.align	2
 245              	.L32:
 246 0044 00000000 		.word	.LC0
 247 0048 2C000000 		.word	.LC1
 248 004c 38000000 		.word	.LC2
 249 0050 60000000 		.word	.LC3
 250 0054 00000000 		.word	.LANCHOR1
 251              		.cfi_endproc
 252              	.LFE145:
 254              		.section	.text.tcp_close_shutdown_fin,"ax",%progbits
 255              		.align	1
 256              		.syntax unified
 257              		.thumb
 258              		.thumb_func
 259              		.fpu fpv4-sp-d16
 261              	tcp_close_shutdown_fin:
 262              	.LFB147:
 331:Middlewares/Third_Party/LwIP/src/core/tcp.c ****   err_t err;
 263              		.loc 1 331 0
 264              		.cfi_startproc
 265              		@ args = 0, pretend = 0, frame = 0
 266              		@ frame_needed = 0, uses_anonymous_args = 0
 267              	.LVL30:
ARM GAS  /var/folders/0d/93p3r6493yg7p0rvl_4r983m0000gn/T//ccIusu9n.s 			page 21


 268 0000 38B5     		push	{r3, r4, r5, lr}
 269              	.LCFI4:
 270              		.cfi_def_cfa_offset 16
 271              		.cfi_offset 3, -16
 272              		.cfi_offset 4, -12
 273              		.cfi_offset 5, -8
 274              		.cfi_offset 14, -4
 333:Middlewares/Third_Party/LwIP/src/core/tcp.c **** 
 275              		.loc 1 333 0
 276 0002 0446     		mov	r4, r0
 277 0004 40B1     		cbz	r0, .L45
 278              	.LVL31:
 279              	.L35:
 335:Middlewares/Third_Party/LwIP/src/core/tcp.c ****   case SYN_RCVD:
 280              		.loc 1 335 0
 281 0006 237D     		ldrb	r3, [r4, #20]	@ zero_extendqisi2
 282 0008 042B     		cmp	r3, #4
 283 000a 1AD0     		beq	.L37
 284 000c 072B     		cmp	r3, #7
 285 000e 21D0     		beq	.L38
 286 0010 032B     		cmp	r3, #3
 287 0012 09D0     		beq	.L46
 360:Middlewares/Third_Party/LwIP/src/core/tcp.c ****   }
 288              		.loc 1 360 0
 289 0014 0025     		movs	r5, #0
 290 0016 12E0     		b	.L36
 291              	.LVL32:
 292              	.L45:
 333:Middlewares/Third_Party/LwIP/src/core/tcp.c **** 
 293              		.loc 1 333 0 discriminator 1
 294 0018 184B     		ldr	r3, .L49
 295 001a 40F24D12 		movw	r2, #333
 296 001e 1849     		ldr	r1, .L49+4
 297 0020 1848     		ldr	r0, .L49+8
 298              	.LVL33:
 299 0022 FFF7FEFF 		bl	printf
 300              	.LVL34:
 301 0026 EEE7     		b	.L35
 302              	.L46:
 337:Middlewares/Third_Party/LwIP/src/core/tcp.c ****     if (err == ERR_OK) {
 303              		.loc 1 337 0
 304 0028 2046     		mov	r0, r4
 305 002a FFF7FEFF 		bl	tcp_send_fin
 306              	.LVL35:
 338:Middlewares/Third_Party/LwIP/src/core/tcp.c ****       tcp_backlog_accepted(pcb);
 307              		.loc 1 338 0
 308 002e 0546     		mov	r5, r0
 309 0030 08B9     		cbnz	r0, .L40
 341:Middlewares/Third_Party/LwIP/src/core/tcp.c ****     }
 310              		.loc 1 341 0
 311 0032 0523     		movs	r3, #5
 312 0034 2375     		strb	r3, [r4, #20]
 313              	.L40:
 314              	.LVL36:
 363:Middlewares/Third_Party/LwIP/src/core/tcp.c ****     /* To ensure all data has been sent when tcp_close returns, we have
 315              		.loc 1 363 0
 316 0036 B5B1     		cbz	r5, .L47
ARM GAS  /var/folders/0d/93p3r6493yg7p0rvl_4r983m0000gn/T//ccIusu9n.s 			page 22


 370:Middlewares/Third_Party/LwIP/src/core/tcp.c ****     /* Mark this pcb for closing. Closing is retried from tcp_tmr. */
 317              		.loc 1 370 0
 318 0038 B5F1FF3F 		cmp	r5, #-1
 319 003c 17D0     		beq	.L48
 320              	.LVL37:
 321              	.L36:
 381:Middlewares/Third_Party/LwIP/src/core/tcp.c **** 
 322              		.loc 1 381 0
 323 003e 2846     		mov	r0, r5
 324 0040 38BD     		pop	{r3, r4, r5, pc}
 325              	.LVL38:
 326              	.L37:
 345:Middlewares/Third_Party/LwIP/src/core/tcp.c ****     if (err == ERR_OK) {
 327              		.loc 1 345 0
 328 0042 2046     		mov	r0, r4
 329 0044 FFF7FEFF 		bl	tcp_send_fin
 330              	.LVL39:
 346:Middlewares/Third_Party/LwIP/src/core/tcp.c ****       MIB2_STATS_INC(mib2.tcpestabresets);
 331              		.loc 1 346 0
 332 0048 0546     		mov	r5, r0
 333 004a 0028     		cmp	r0, #0
 334 004c F3D1     		bne	.L40
 348:Middlewares/Third_Party/LwIP/src/core/tcp.c ****     }
 335              		.loc 1 348 0
 336 004e 0523     		movs	r3, #5
 337 0050 2375     		strb	r3, [r4, #20]
 338 0052 F0E7     		b	.L40
 339              	.LVL40:
 340              	.L38:
 352:Middlewares/Third_Party/LwIP/src/core/tcp.c ****     if (err == ERR_OK) {
 341              		.loc 1 352 0
 342 0054 2046     		mov	r0, r4
 343 0056 FFF7FEFF 		bl	tcp_send_fin
 344              	.LVL41:
 353:Middlewares/Third_Party/LwIP/src/core/tcp.c ****       MIB2_STATS_INC(mib2.tcpestabresets);
 345              		.loc 1 353 0
 346 005a 0546     		mov	r5, r0
 347 005c 0028     		cmp	r0, #0
 348 005e EAD1     		bne	.L40
 355:Middlewares/Third_Party/LwIP/src/core/tcp.c ****     }
 349              		.loc 1 355 0
 350 0060 0923     		movs	r3, #9
 351 0062 2375     		strb	r3, [r4, #20]
 352 0064 E7E7     		b	.L40
 353              	.LVL42:
 354              	.L47:
 369:Middlewares/Third_Party/LwIP/src/core/tcp.c ****   } else if (err == ERR_MEM) {
 355              		.loc 1 369 0
 356 0066 2046     		mov	r0, r4
 357 0068 FFF7FEFF 		bl	tcp_output
 358              	.LVL43:
 359 006c E7E7     		b	.L36
 360              	.L48:
 372:Middlewares/Third_Party/LwIP/src/core/tcp.c ****     /* We have to return ERR_OK from here to indicate to the callers that this
 361              		.loc 1 372 0
 362 006e A37E     		ldrb	r3, [r4, #26]	@ zero_extendqisi2
 363 0070 43F00803 		orr	r3, r3, #8
ARM GAS  /var/folders/0d/93p3r6493yg7p0rvl_4r983m0000gn/T//ccIusu9n.s 			page 23


 364 0074 A376     		strb	r3, [r4, #26]
 378:Middlewares/Third_Party/LwIP/src/core/tcp.c ****   }
 365              		.loc 1 378 0
 366 0076 0025     		movs	r5, #0
 367              	.LVL44:
 368 0078 E1E7     		b	.L36
 369              	.L50:
 370 007a 00BF     		.align	2
 371              	.L49:
 372 007c 00000000 		.word	.LC0
 373 0080 2C000000 		.word	.LC1
 374 0084 38000000 		.word	.LC2
 375              		.cfi_endproc
 376              	.LFE147:
 378              		.section	.text.tcp_init,"ax",%progbits
 379              		.align	1
 380              		.global	tcp_init
 381              		.syntax unified
 382              		.thumb
 383              		.thumb_func
 384              		.fpu fpv4-sp-d16
 386              	tcp_init:
 387              	.LFB142:
 146:Middlewares/Third_Party/LwIP/src/core/tcp.c **** #if LWIP_RANDOMIZE_INITIAL_LOCAL_PORTS && defined(LWIP_RAND)
 388              		.loc 1 146 0
 389              		.cfi_startproc
 390              		@ args = 0, pretend = 0, frame = 0
 391              		@ frame_needed = 0, uses_anonymous_args = 0
 392              		@ link register save eliminated.
 150:Middlewares/Third_Party/LwIP/src/core/tcp.c **** 
 393              		.loc 1 150 0
 394 0000 7047     		bx	lr
 395              		.cfi_endproc
 396              	.LFE142:
 398              		.section	.text.tcp_bind,"ax",%progbits
 399              		.align	1
 400              		.global	tcp_bind
 401              		.syntax unified
 402              		.thumb
 403              		.thumb_func
 404              		.fpu fpv4-sp-d16
 406              	tcp_bind:
 407              	.LFB152:
 563:Middlewares/Third_Party/LwIP/src/core/tcp.c ****   int i;
 408              		.loc 1 563 0
 409              		.cfi_startproc
 410              		@ args = 0, pretend = 0, frame = 0
 411              		@ frame_needed = 0, uses_anonymous_args = 0
 412              	.LVL45:
 413 0000 70B5     		push	{r4, r5, r6, lr}
 414              	.LCFI5:
 415              		.cfi_def_cfa_offset 16
 416              		.cfi_offset 4, -16
 417              		.cfi_offset 5, -12
 418              		.cfi_offset 6, -8
 419              		.cfi_offset 14, -4
 420 0002 0546     		mov	r5, r0
ARM GAS  /var/folders/0d/93p3r6493yg7p0rvl_4r983m0000gn/T//ccIusu9n.s 			page 24


 421              	.LVL46:
 570:Middlewares/Third_Party/LwIP/src/core/tcp.c ****     ipaddr = IP4_ADDR_ANY;
 422              		.loc 1 570 0
 423 0004 0C46     		mov	r4, r1
 424 0006 71B1     		cbz	r1, .L73
 425              	.L53:
 426              	.LVL47:
 576:Middlewares/Third_Party/LwIP/src/core/tcp.c ****     return ERR_VAL;
 427              		.loc 1 576 0
 428 0008 002D     		cmp	r5, #0
 429 000a 39D0     		beq	.L64
 576:Middlewares/Third_Party/LwIP/src/core/tcp.c ****     return ERR_VAL;
 430              		.loc 1 576 0 is_stmt 0 discriminator 1
 431 000c 002C     		cmp	r4, #0
 432 000e 3AD0     		beq	.L65
 580:Middlewares/Third_Party/LwIP/src/core/tcp.c **** 
 433              		.loc 1 580 0 is_stmt 1
 434 0010 2B7D     		ldrb	r3, [r5, #20]	@ zero_extendqisi2
 435 0012 53B9     		cbnz	r3, .L74
 593:Middlewares/Third_Party/LwIP/src/core/tcp.c ****     port = tcp_new_port();
 436              		.loc 1 593 0
 437 0014 9AB1     		cbz	r2, .L75
 600:Middlewares/Third_Party/LwIP/src/core/tcp.c ****       for (cpcb = *tcp_pcb_lists[i]; cpcb != NULL; cpcb = cpcb->next) {
 438              		.loc 1 600 0
 439 0016 0026     		movs	r6, #0
 440              	.LVL48:
 441              	.L56:
 600:Middlewares/Third_Party/LwIP/src/core/tcp.c ****       for (cpcb = *tcp_pcb_lists[i]; cpcb != NULL; cpcb = cpcb->next) {
 442              		.loc 1 600 0 is_stmt 0 discriminator 1
 443 0018 032E     		cmp	r6, #3
 444 001a 14DC     		bgt	.L57
 601:Middlewares/Third_Party/LwIP/src/core/tcp.c ****         if (cpcb->local_port == port) {
 445              		.loc 1 601 0 is_stmt 1
 446 001c 214B     		ldr	r3, .L78
 447 001e 53F82630 		ldr	r3, [r3, r6, lsl #2]
 448 0022 1B68     		ldr	r3, [r3]
 449              	.LVL49:
 450 0024 1CE0     		b	.L58
 451              	.LVL50:
 452              	.L73:
 571:Middlewares/Third_Party/LwIP/src/core/tcp.c ****   }
 453              		.loc 1 571 0
 454 0026 204C     		ldr	r4, .L78+4
 455 0028 EEE7     		b	.L53
 456              	.LVL51:
 457              	.L74:
 580:Middlewares/Third_Party/LwIP/src/core/tcp.c **** 
 458              		.loc 1 580 0 discriminator 1
 459 002a 204B     		ldr	r3, .L78+8
 460 002c 4FF41172 		mov	r2, #580
 461              	.LVL52:
 462 0030 1F49     		ldr	r1, .L78+12
 463 0032 2048     		ldr	r0, .L78+16
 464              	.LVL53:
 465 0034 FFF7FEFF 		bl	printf
 466              	.LVL54:
 467 0038 6FF00500 		mvn	r0, #5
ARM GAS  /var/folders/0d/93p3r6493yg7p0rvl_4r983m0000gn/T//ccIusu9n.s 			page 25


 468 003c 0EE0     		b	.L54
 469              	.LVL55:
 470              	.L75:
 594:Middlewares/Third_Party/LwIP/src/core/tcp.c ****     if (port == 0) {
 471              		.loc 1 594 0
 472 003e FFF7FEFF 		bl	tcp_new_port
 473              	.LVL56:
 595:Middlewares/Third_Party/LwIP/src/core/tcp.c ****       return ERR_BUF;
 474              		.loc 1 595 0
 475 0042 0246     		mov	r2, r0
 476 0044 10B3     		cbz	r0, .L76
 477              	.LVL57:
 478              	.L57:
 624:Middlewares/Third_Party/LwIP/src/core/tcp.c ****     ip_addr_set(&pcb->local_ip, ipaddr);
 479              		.loc 1 624 0
 480 0046 2368     		ldr	r3, [r4]
 481 0048 03B1     		cbz	r3, .L62
 625:Middlewares/Third_Party/LwIP/src/core/tcp.c ****   }
 482              		.loc 1 625 0 discriminator 4
 483 004a 2B60     		str	r3, [r5]
 484              	.L62:
 627:Middlewares/Third_Party/LwIP/src/core/tcp.c ****   TCP_REG(&tcp_bound_pcbs, pcb);
 485              		.loc 1 627 0
 486 004c EA82     		strh	r2, [r5, #22]	@ movhi
 628:Middlewares/Third_Party/LwIP/src/core/tcp.c ****   LWIP_DEBUGF(TCP_DEBUG, ("tcp_bind: bind to port %"U16_F"\n", port));
 487              		.loc 1 628 0
 488 004e 1A4B     		ldr	r3, .L78+20
 489 0050 1A68     		ldr	r2, [r3]
 490              	.LVL58:
 491 0052 EA60     		str	r2, [r5, #12]
 492 0054 1D60     		str	r5, [r3]
 493 0056 FFF7FEFF 		bl	tcp_timer_needed
 494              	.LVL59:
 630:Middlewares/Third_Party/LwIP/src/core/tcp.c **** }
 495              		.loc 1 630 0
 496 005a 0020     		movs	r0, #0
 497              	.L54:
 631:Middlewares/Third_Party/LwIP/src/core/tcp.c **** #if LWIP_CALLBACK_API
 498              		.loc 1 631 0
 499 005c 70BD     		pop	{r4, r5, r6, pc}
 500              	.LVL60:
 501              	.L59:
 601:Middlewares/Third_Party/LwIP/src/core/tcp.c ****         if (cpcb->local_port == port) {
 502              		.loc 1 601 0 discriminator 2
 503 005e DB68     		ldr	r3, [r3, #12]
 504              	.LVL61:
 505              	.L58:
 601:Middlewares/Third_Party/LwIP/src/core/tcp.c ****         if (cpcb->local_port == port) {
 506              		.loc 1 601 0 is_stmt 0 discriminator 1
 507 0060 63B1     		cbz	r3, .L77
 602:Middlewares/Third_Party/LwIP/src/core/tcp.c **** #if SO_REUSE
 508              		.loc 1 602 0 is_stmt 1
 509 0062 D98A     		ldrh	r1, [r3, #22]
 510 0064 9142     		cmp	r1, r2
 511 0066 FAD1     		bne	.L59
 612:Middlewares/Third_Party/LwIP/src/core/tcp.c ****                 (ip_addr_isany(&cpcb->local_ip) ||
 512              		.loc 1 612 0
ARM GAS  /var/folders/0d/93p3r6493yg7p0rvl_4r983m0000gn/T//ccIusu9n.s 			page 26


 513 0068 9BB1     		cbz	r3, .L68
 613:Middlewares/Third_Party/LwIP/src/core/tcp.c ****                 ip_addr_isany(ipaddr) ||
 514              		.loc 1 613 0
 515 006a 1968     		ldr	r1, [r3]
 516 006c A1B1     		cbz	r1, .L69
 614:Middlewares/Third_Party/LwIP/src/core/tcp.c ****                 ip_addr_cmp(&cpcb->local_ip, ipaddr))) {
 517              		.loc 1 614 0
 518 006e 2068     		ldr	r0, [r4]
 519 0070 A8B1     		cbz	r0, .L70
 612:Middlewares/Third_Party/LwIP/src/core/tcp.c ****                 (ip_addr_isany(&cpcb->local_ip) ||
 520              		.loc 1 612 0
 521 0072 8142     		cmp	r1, r0
 522 0074 F3D1     		bne	.L59
 616:Middlewares/Third_Party/LwIP/src/core/tcp.c ****             }
 523              		.loc 1 616 0
 524 0076 6FF00700 		mvn	r0, #7
 525 007a EFE7     		b	.L54
 526              	.L77:
 600:Middlewares/Third_Party/LwIP/src/core/tcp.c ****       for (cpcb = *tcp_pcb_lists[i]; cpcb != NULL; cpcb = cpcb->next) {
 527              		.loc 1 600 0 discriminator 2
 528 007c 0136     		adds	r6, r6, #1
 529              	.LVL62:
 530 007e CBE7     		b	.L56
 531              	.LVL63:
 532              	.L64:
 577:Middlewares/Third_Party/LwIP/src/core/tcp.c ****   }
 533              		.loc 1 577 0
 534 0080 6FF00500 		mvn	r0, #5
 535              	.LVL64:
 536 0084 EAE7     		b	.L54
 537              	.LVL65:
 538              	.L65:
 539 0086 6FF00500 		mvn	r0, #5
 540              	.LVL66:
 541 008a E7E7     		b	.L54
 542              	.LVL67:
 543              	.L76:
 596:Middlewares/Third_Party/LwIP/src/core/tcp.c ****     }
 544              		.loc 1 596 0
 545 008c 6FF00100 		mvn	r0, #1
 546              	.LVL68:
 547 0090 E4E7     		b	.L54
 548              	.LVL69:
 549              	.L68:
 616:Middlewares/Third_Party/LwIP/src/core/tcp.c ****             }
 550              		.loc 1 616 0
 551 0092 6FF00700 		mvn	r0, #7
 552 0096 E1E7     		b	.L54
 553              	.L69:
 554 0098 6FF00700 		mvn	r0, #7
 555 009c DEE7     		b	.L54
 556              	.L70:
 557 009e 6FF00700 		mvn	r0, #7
 558 00a2 DBE7     		b	.L54
 559              	.L79:
 560              		.align	2
 561              	.L78:
ARM GAS  /var/folders/0d/93p3r6493yg7p0rvl_4r983m0000gn/T//ccIusu9n.s 			page 27


 562 00a4 00000000 		.word	.LANCHOR1
 563 00a8 00000000 		.word	ip_addr_any
 564 00ac 00000000 		.word	.LC0
 565 00b0 00000000 		.word	.LC4
 566 00b4 38000000 		.word	.LC2
 567 00b8 00000000 		.word	tcp_bound_pcbs
 568              		.cfi_endproc
 569              	.LFE152:
 571              		.section	.text.tcp_listen_with_backlog_and_err,"ax",%progbits
 572              		.align	1
 573              		.global	tcp_listen_with_backlog_and_err
 574              		.syntax unified
 575              		.thumb
 576              		.thumb_func
 577              		.fpu fpv4-sp-d16
 579              	tcp_listen_with_backlog_and_err:
 580              	.LFB155:
 687:Middlewares/Third_Party/LwIP/src/core/tcp.c ****   struct tcp_pcb_listen *lpcb = NULL;
 581              		.loc 1 687 0
 582              		.cfi_startproc
 583              		@ args = 0, pretend = 0, frame = 0
 584              		@ frame_needed = 0, uses_anonymous_args = 0
 585              	.LVL70:
 586 0000 70B5     		push	{r4, r5, r6, lr}
 587              	.LCFI6:
 588              		.cfi_def_cfa_offset 16
 589              		.cfi_offset 4, -16
 590              		.cfi_offset 5, -12
 591              		.cfi_offset 6, -8
 592              		.cfi_offset 14, -4
 593 0002 1646     		mov	r6, r2
 594              	.LVL71:
 692:Middlewares/Third_Party/LwIP/src/core/tcp.c **** 
 595              		.loc 1 692 0
 596 0004 037D     		ldrb	r3, [r0, #20]	@ zero_extendqisi2
 597 0006 4BB9     		cbnz	r3, .L92
 598 0008 0446     		mov	r4, r0
 695:Middlewares/Third_Party/LwIP/src/core/tcp.c ****     lpcb = (struct tcp_pcb_listen*)pcb;
 599              		.loc 1 695 0
 600 000a 012B     		cmp	r3, #1
 601 000c 11D1     		bne	.L93
 696:Middlewares/Third_Party/LwIP/src/core/tcp.c ****     res = ERR_ALREADY;
 602              		.loc 1 696 0
 603 000e 0546     		mov	r5, r0
 697:Middlewares/Third_Party/LwIP/src/core/tcp.c ****     goto done;
 604              		.loc 1 697 0
 605 0010 6FF00803 		mvn	r3, #8
 606              	.LVL72:
 607              	.L82:
 746:Middlewares/Third_Party/LwIP/src/core/tcp.c ****     *err = res;
 608              		.loc 1 746 0
 609 0014 06B1     		cbz	r6, .L80
 747:Middlewares/Third_Party/LwIP/src/core/tcp.c ****   }
 610              		.loc 1 747 0
 611 0016 3370     		strb	r3, [r6]
 612              	.L80:
 750:Middlewares/Third_Party/LwIP/src/core/tcp.c **** 
ARM GAS  /var/folders/0d/93p3r6493yg7p0rvl_4r983m0000gn/T//ccIusu9n.s 			page 28


 613              		.loc 1 750 0
 614 0018 2846     		mov	r0, r5
 615 001a 70BD     		pop	{r4, r5, r6, pc}
 616              	.LVL73:
 617              	.L92:
 692:Middlewares/Third_Party/LwIP/src/core/tcp.c **** 
 618              		.loc 1 692 0 discriminator 1
 619 001c 224B     		ldr	r3, .L96
 620 001e 4FF42D72 		mov	r2, #692
 621              	.LVL74:
 622 0022 2249     		ldr	r1, .L96+4
 623              	.LVL75:
 624 0024 2248     		ldr	r0, .L96+8
 625              	.LVL76:
 626 0026 FFF7FEFF 		bl	printf
 627              	.LVL77:
 628 002a 6FF00E03 		mvn	r3, #14
 688:Middlewares/Third_Party/LwIP/src/core/tcp.c ****   err_t res;
 629              		.loc 1 688 0 discriminator 1
 630 002e 0025     		movs	r5, #0
 692:Middlewares/Third_Party/LwIP/src/core/tcp.c **** 
 631              		.loc 1 692 0 discriminator 1
 632 0030 F0E7     		b	.L82
 633              	.LVL78:
 634              	.L93:
 716:Middlewares/Third_Party/LwIP/src/core/tcp.c ****   if (lpcb == NULL) {
 635              		.loc 1 716 0
 636 0032 0220     		movs	r0, #2
 637              	.LVL79:
 638 0034 FFF7FEFF 		bl	memp_malloc
 639              	.LVL80:
 717:Middlewares/Third_Party/LwIP/src/core/tcp.c ****     res = ERR_MEM;
 640              		.loc 1 717 0
 641 0038 0546     		mov	r5, r0
 642 003a 0028     		cmp	r0, #0
 643 003c 31D0     		beq	.L89
 721:Middlewares/Third_Party/LwIP/src/core/tcp.c ****   lpcb->local_port = pcb->local_port;
 644              		.loc 1 721 0
 645 003e 2369     		ldr	r3, [r4, #16]
 646 0040 0361     		str	r3, [r0, #16]
 722:Middlewares/Third_Party/LwIP/src/core/tcp.c ****   lpcb->state = LISTEN;
 647              		.loc 1 722 0
 648 0042 E38A     		ldrh	r3, [r4, #22]
 649 0044 C382     		strh	r3, [r0, #22]	@ movhi
 723:Middlewares/Third_Party/LwIP/src/core/tcp.c ****   lpcb->prio = pcb->prio;
 650              		.loc 1 723 0
 651 0046 0123     		movs	r3, #1
 652 0048 0375     		strb	r3, [r0, #20]
 724:Middlewares/Third_Party/LwIP/src/core/tcp.c ****   lpcb->so_options = pcb->so_options;
 653              		.loc 1 724 0
 654 004a 637D     		ldrb	r3, [r4, #21]	@ zero_extendqisi2
 655 004c 4375     		strb	r3, [r0, #21]
 725:Middlewares/Third_Party/LwIP/src/core/tcp.c ****   lpcb->ttl = pcb->ttl;
 656              		.loc 1 725 0
 657 004e 237A     		ldrb	r3, [r4, #8]	@ zero_extendqisi2
 658 0050 0372     		strb	r3, [r0, #8]
 726:Middlewares/Third_Party/LwIP/src/core/tcp.c ****   lpcb->tos = pcb->tos;
ARM GAS  /var/folders/0d/93p3r6493yg7p0rvl_4r983m0000gn/T//ccIusu9n.s 			page 29


 659              		.loc 1 726 0
 660 0052 A37A     		ldrb	r3, [r4, #10]	@ zero_extendqisi2
 661 0054 8372     		strb	r3, [r0, #10]
 727:Middlewares/Third_Party/LwIP/src/core/tcp.c **** #if LWIP_IPV4 && LWIP_IPV6
 662              		.loc 1 727 0
 663 0056 637A     		ldrb	r3, [r4, #9]	@ zero_extendqisi2
 664 0058 4372     		strb	r3, [r0, #9]
 731:Middlewares/Third_Party/LwIP/src/core/tcp.c ****   if (pcb->local_port != 0) {
 665              		.loc 1 731 0
 666 005a 2368     		ldr	r3, [r4]
 667 005c 0360     		str	r3, [r0]
 732:Middlewares/Third_Party/LwIP/src/core/tcp.c ****     TCP_RMV(&tcp_bound_pcbs, pcb);
 668              		.loc 1 732 0
 669 005e E38A     		ldrh	r3, [r4, #22]
 670 0060 8BB1     		cbz	r3, .L83
 733:Middlewares/Third_Party/LwIP/src/core/tcp.c ****   }
 671              		.loc 1 733 0
 672 0062 144B     		ldr	r3, .L96+12
 673 0064 1B68     		ldr	r3, [r3]
 674 0066 A342     		cmp	r3, r4
 675 0068 05D0     		beq	.L94
 676              	.L84:
 677              	.LVL81:
 678              	.LBB2:
 733:Middlewares/Third_Party/LwIP/src/core/tcp.c ****   }
 679              		.loc 1 733 0 is_stmt 0 discriminator 8
 680 006a 53B1     		cbz	r3, .L85
 733:Middlewares/Third_Party/LwIP/src/core/tcp.c ****   }
 681              		.loc 1 733 0 discriminator 9
 682 006c DA68     		ldr	r2, [r3, #12]
 683 006e A242     		cmp	r2, r4
 684 0070 05D0     		beq	.L95
 733:Middlewares/Third_Party/LwIP/src/core/tcp.c ****   }
 685              		.loc 1 733 0
 686 0072 1346     		mov	r3, r2
 687              	.LVL82:
 688 0074 F9E7     		b	.L84
 689              	.L94:
 690              	.LBE2:
 733:Middlewares/Third_Party/LwIP/src/core/tcp.c ****   }
 691              		.loc 1 733 0 discriminator 1
 692 0076 DA68     		ldr	r2, [r3, #12]
 693 0078 0E4B     		ldr	r3, .L96+12
 694 007a 1A60     		str	r2, [r3]
 695 007c 01E0     		b	.L85
 696              	.LVL83:
 697              	.L95:
 698              	.LBB3:
 733:Middlewares/Third_Party/LwIP/src/core/tcp.c ****   }
 699              		.loc 1 733 0 discriminator 5
 700 007e E268     		ldr	r2, [r4, #12]
 701 0080 DA60     		str	r2, [r3, #12]
 702              	.LVL84:
 703              	.L85:
 704              	.LBE3:
 733:Middlewares/Third_Party/LwIP/src/core/tcp.c ****   }
 705              		.loc 1 733 0 discriminator 10
ARM GAS  /var/folders/0d/93p3r6493yg7p0rvl_4r983m0000gn/T//ccIusu9n.s 			page 30


 706 0082 0023     		movs	r3, #0
 707 0084 E360     		str	r3, [r4, #12]
 708              	.L83:
 735:Middlewares/Third_Party/LwIP/src/core/tcp.c **** #if LWIP_CALLBACK_API
 709              		.loc 1 735 0 is_stmt 1
 710 0086 2146     		mov	r1, r4
 711 0088 0120     		movs	r0, #1
 712              	.LVL85:
 713 008a FFF7FEFF 		bl	memp_free
 714              	.LVL86:
 737:Middlewares/Third_Party/LwIP/src/core/tcp.c **** #endif /* LWIP_CALLBACK_API */
 715              		.loc 1 737 0
 716 008e 0A4B     		ldr	r3, .L96+16
 717 0090 AB61     		str	r3, [r5, #24]
 743:Middlewares/Third_Party/LwIP/src/core/tcp.c ****   res = ERR_OK;
 718              		.loc 1 743 0
 719 0092 0A4B     		ldr	r3, .L96+20
 720 0094 1A68     		ldr	r2, [r3]
 721 0096 EA60     		str	r2, [r5, #12]
 722 0098 1D60     		str	r5, [r3]
 723 009a FFF7FEFF 		bl	tcp_timer_needed
 724              	.LVL87:
 744:Middlewares/Third_Party/LwIP/src/core/tcp.c **** done:
 725              		.loc 1 744 0
 726 009e 0023     		movs	r3, #0
 727 00a0 B8E7     		b	.L82
 728              	.LVL88:
 729              	.L89:
 718:Middlewares/Third_Party/LwIP/src/core/tcp.c ****     goto done;
 730              		.loc 1 718 0
 731 00a2 4FF0FF33 		mov	r3, #-1
 732 00a6 B5E7     		b	.L82
 733              	.L97:
 734              		.align	2
 735              	.L96:
 736 00a8 00000000 		.word	.LC0
 737 00ac 00000000 		.word	.LC5
 738 00b0 38000000 		.word	.LC2
 739 00b4 00000000 		.word	tcp_bound_pcbs
 740 00b8 00000000 		.word	tcp_accept_null
 741 00bc 00000000 		.word	tcp_listen_pcbs
 742              		.cfi_endproc
 743              	.LFE155:
 745              		.section	.text.tcp_listen_with_backlog,"ax",%progbits
 746              		.align	1
 747              		.global	tcp_listen_with_backlog
 748              		.syntax unified
 749              		.thumb
 750              		.thumb_func
 751              		.fpu fpv4-sp-d16
 753              	tcp_listen_with_backlog:
 754              	.LFB154:
 665:Middlewares/Third_Party/LwIP/src/core/tcp.c ****   return tcp_listen_with_backlog_and_err(pcb, backlog, NULL);
 755              		.loc 1 665 0
 756              		.cfi_startproc
 757              		@ args = 0, pretend = 0, frame = 0
 758              		@ frame_needed = 0, uses_anonymous_args = 0
ARM GAS  /var/folders/0d/93p3r6493yg7p0rvl_4r983m0000gn/T//ccIusu9n.s 			page 31


 759              	.LVL89:
 760 0000 08B5     		push	{r3, lr}
 761              	.LCFI7:
 762              		.cfi_def_cfa_offset 8
 763              		.cfi_offset 3, -8
 764              		.cfi_offset 14, -4
 666:Middlewares/Third_Party/LwIP/src/core/tcp.c **** }
 765              		.loc 1 666 0
 766 0002 0022     		movs	r2, #0
 767 0004 FFF7FEFF 		bl	tcp_listen_with_backlog_and_err
 768              	.LVL90:
 667:Middlewares/Third_Party/LwIP/src/core/tcp.c **** 
 769              		.loc 1 667 0
 770 0008 08BD     		pop	{r3, pc}
 771              		.cfi_endproc
 772              	.LFE154:
 774              		.section	.text.tcp_update_rcv_ann_wnd,"ax",%progbits
 775              		.align	1
 776              		.global	tcp_update_rcv_ann_wnd
 777              		.syntax unified
 778              		.thumb
 779              		.thumb_func
 780              		.fpu fpv4-sp-d16
 782              	tcp_update_rcv_ann_wnd:
 783              	.LFB156:
 760:Middlewares/Third_Party/LwIP/src/core/tcp.c ****   u32_t new_right_edge = pcb->rcv_nxt + pcb->rcv_wnd;
 784              		.loc 1 760 0
 785              		.cfi_startproc
 786              		@ args = 0, pretend = 0, frame = 0
 787              		@ frame_needed = 0, uses_anonymous_args = 0
 788              	.LVL91:
 789 0000 38B5     		push	{r3, r4, r5, lr}
 790              	.LCFI8:
 791              		.cfi_def_cfa_offset 16
 792              		.cfi_offset 3, -16
 793              		.cfi_offset 4, -12
 794              		.cfi_offset 5, -8
 795              		.cfi_offset 14, -4
 761:Middlewares/Third_Party/LwIP/src/core/tcp.c **** 
 796              		.loc 1 761 0
 797 0002 456A     		ldr	r5, [r0, #36]
 798 0004 048D     		ldrh	r4, [r0, #40]
 799 0006 2A19     		adds	r2, r5, r4
 800              	.LVL92:
 763:Middlewares/Third_Party/LwIP/src/core/tcp.c ****     /* we can advertise more window */
 801              		.loc 1 763 0
 802 0008 C16A     		ldr	r1, [r0, #44]
 803 000a 438E     		ldrh	r3, [r0, #50]
 804 000c B3F5866F 		cmp	r3, #1072
 805 0010 94BF     		ite	ls
 806 0012 CB18     		addls	r3, r1, r3
 807 0014 01F58663 		addhi	r3, r1, #1072
 808 0018 D31A     		subs	r3, r2, r3
 809 001a 002B     		cmp	r3, #0
 810 001c 02DB     		blt	.L101
 765:Middlewares/Third_Party/LwIP/src/core/tcp.c ****     return new_right_edge - pcb->rcv_ann_right_edge;
 811              		.loc 1 765 0
ARM GAS  /var/folders/0d/93p3r6493yg7p0rvl_4r983m0000gn/T//ccIusu9n.s 			page 32


 812 001e 4485     		strh	r4, [r0, #42]	@ movhi
 766:Middlewares/Third_Party/LwIP/src/core/tcp.c ****   } else {
 813              		.loc 1 766 0
 814 0020 501A     		subs	r0, r2, r1
 815              	.LVL93:
 816              	.L100:
 782:Middlewares/Third_Party/LwIP/src/core/tcp.c **** 
 817              		.loc 1 782 0
 818 0022 38BD     		pop	{r3, r4, r5, pc}
 819              	.LVL94:
 820              	.L101:
 768:Middlewares/Third_Party/LwIP/src/core/tcp.c ****       /* Can happen due to other end sending out of advertised window,
 821              		.loc 1 768 0
 822 0024 6B1A     		subs	r3, r5, r1
 823 0026 002B     		cmp	r3, #0
 824 0028 03DD     		ble	.L103
 771:Middlewares/Third_Party/LwIP/src/core/tcp.c ****     } else {
 825              		.loc 1 771 0
 826 002a 0022     		movs	r2, #0
 827              	.LVL95:
 828 002c 4285     		strh	r2, [r0, #42]	@ movhi
 780:Middlewares/Third_Party/LwIP/src/core/tcp.c ****   }
 829              		.loc 1 780 0
 830 002e 1046     		mov	r0, r2
 831              	.LVL96:
 832 0030 F7E7     		b	.L100
 833              	.LVL97:
 834              	.L103:
 835 0032 0446     		mov	r4, r0
 836              	.LBB4:
 774:Middlewares/Third_Party/LwIP/src/core/tcp.c **** #if !LWIP_WND_SCALE
 837              		.loc 1 774 0
 838 0034 4D1B     		subs	r5, r1, r5
 839              	.LVL98:
 776:Middlewares/Third_Party/LwIP/src/core/tcp.c **** #endif
 840              		.loc 1 776 0
 841 0036 B5F5803F 		cmp	r5, #65536
 842 003a 02D2     		bcs	.L106
 843              	.LVL99:
 844              	.L104:
 778:Middlewares/Third_Party/LwIP/src/core/tcp.c ****     }
 845              		.loc 1 778 0
 846 003c 6585     		strh	r5, [r4, #42]	@ movhi
 847              	.LBE4:
 780:Middlewares/Third_Party/LwIP/src/core/tcp.c ****   }
 848              		.loc 1 780 0
 849 003e 0020     		movs	r0, #0
 850 0040 EFE7     		b	.L100
 851              	.LVL100:
 852              	.L106:
 853              	.LBB5:
 776:Middlewares/Third_Party/LwIP/src/core/tcp.c **** #endif
 854              		.loc 1 776 0 discriminator 1
 855 0042 044B     		ldr	r3, .L107
 856 0044 4FF44272 		mov	r2, #776
 857              	.LVL101:
 858 0048 0349     		ldr	r1, .L107+4
ARM GAS  /var/folders/0d/93p3r6493yg7p0rvl_4r983m0000gn/T//ccIusu9n.s 			page 33


 859 004a 0448     		ldr	r0, .L107+8
 860              	.LVL102:
 861 004c FFF7FEFF 		bl	printf
 862              	.LVL103:
 863 0050 F4E7     		b	.L104
 864              	.L108:
 865 0052 00BF     		.align	2
 866              	.L107:
 867 0054 00000000 		.word	.LC0
 868 0058 00000000 		.word	.LC6
 869 005c 38000000 		.word	.LC2
 870              	.LBE5:
 871              		.cfi_endproc
 872              	.LFE156:
 874              		.section	.text.tcp_recved,"ax",%progbits
 875              		.align	1
 876              		.global	tcp_recved
 877              		.syntax unified
 878              		.thumb
 879              		.thumb_func
 880              		.fpu fpv4-sp-d16
 882              	tcp_recved:
 883              	.LFB157:
 795:Middlewares/Third_Party/LwIP/src/core/tcp.c ****   int wnd_inflation;
 884              		.loc 1 795 0
 885              		.cfi_startproc
 886              		@ args = 0, pretend = 0, frame = 0
 887              		@ frame_needed = 0, uses_anonymous_args = 0
 888              	.LVL104:
 889 0000 38B5     		push	{r3, r4, r5, lr}
 890              	.LCFI9:
 891              		.cfi_def_cfa_offset 16
 892              		.cfi_offset 3, -16
 893              		.cfi_offset 4, -12
 894              		.cfi_offset 5, -8
 895              		.cfi_offset 14, -4
 896 0002 0546     		mov	r5, r0
 897 0004 0C46     		mov	r4, r1
 799:Middlewares/Third_Party/LwIP/src/core/tcp.c ****     pcb->state != LISTEN);
 898              		.loc 1 799 0
 899 0006 037D     		ldrb	r3, [r0, #20]	@ zero_extendqisi2
 900 0008 012B     		cmp	r3, #1
 901 000a 10D0     		beq	.L117
 902              	.LVL105:
 903              	.L110:
 802:Middlewares/Third_Party/LwIP/src/core/tcp.c ****   if (pcb->rcv_wnd > TCP_WND_MAX(pcb)) {
 904              		.loc 1 802 0
 905 000c 298D     		ldrh	r1, [r5, #40]
 906 000e 2144     		add	r1, r1, r4
 907 0010 89B2     		uxth	r1, r1
 908 0012 2985     		strh	r1, [r5, #40]	@ movhi
 803:Middlewares/Third_Party/LwIP/src/core/tcp.c ****     pcb->rcv_wnd = TCP_WND_MAX(pcb);
 909              		.loc 1 803 0
 910 0014 B1F5066F 		cmp	r1, #2144
 911 0018 11D9     		bls	.L111
 804:Middlewares/Third_Party/LwIP/src/core/tcp.c ****   } else if (pcb->rcv_wnd == 0) {
 912              		.loc 1 804 0
ARM GAS  /var/folders/0d/93p3r6493yg7p0rvl_4r983m0000gn/T//ccIusu9n.s 			page 34


 913 001a 4FF40663 		mov	r3, #2144
 914 001e 2B85     		strh	r3, [r5, #40]	@ movhi
 915              	.L112:
 817:Middlewares/Third_Party/LwIP/src/core/tcp.c **** 
 916              		.loc 1 817 0
 917 0020 2846     		mov	r0, r5
 918 0022 FFF7FEFF 		bl	tcp_update_rcv_ann_wnd
 919              	.LVL106:
 823:Middlewares/Third_Party/LwIP/src/core/tcp.c ****     tcp_ack_now(pcb);
 920              		.loc 1 823 0
 921 0026 B0F5067F 		cmp	r0, #536
 922 002a 1BDA     		bge	.L118
 923              	.LVL107:
 924              	.L109:
 830:Middlewares/Third_Party/LwIP/src/core/tcp.c **** 
 925              		.loc 1 830 0
 926 002c 38BD     		pop	{r3, r4, r5, pc}
 927              	.LVL108:
 928              	.L117:
 799:Middlewares/Third_Party/LwIP/src/core/tcp.c ****     pcb->state != LISTEN);
 929              		.loc 1 799 0 discriminator 1
 930 002e 114B     		ldr	r3, .L119
 931 0030 4FF44872 		mov	r2, #800
 932 0034 1049     		ldr	r1, .L119+4
 933              	.LVL109:
 934 0036 1148     		ldr	r0, .L119+8
 935              	.LVL110:
 936 0038 FFF7FEFF 		bl	printf
 937              	.LVL111:
 938 003c E6E7     		b	.L110
 939              	.L111:
 805:Middlewares/Third_Party/LwIP/src/core/tcp.c ****     /* rcv_wnd overflowed */
 940              		.loc 1 805 0
 941 003e 0029     		cmp	r1, #0
 942 0040 EED1     		bne	.L112
 807:Middlewares/Third_Party/LwIP/src/core/tcp.c ****       /* In passive close, we allow this, since the FIN bit is added to rcv_wnd
 943              		.loc 1 807 0
 944 0042 2B7D     		ldrb	r3, [r5, #20]	@ zero_extendqisi2
 945 0044 072B     		cmp	r3, #7
 946 0046 01D0     		beq	.L113
 807:Middlewares/Third_Party/LwIP/src/core/tcp.c ****       /* In passive close, we allow this, since the FIN bit is added to rcv_wnd
 947              		.loc 1 807 0 is_stmt 0 discriminator 1
 948 0048 092B     		cmp	r3, #9
 949 004a 03D1     		bne	.L114
 950              	.L113:
 811:Middlewares/Third_Party/LwIP/src/core/tcp.c ****     } else {
 951              		.loc 1 811 0 is_stmt 1
 952 004c 4FF40663 		mov	r3, #2144
 953 0050 2B85     		strh	r3, [r5, #40]	@ movhi
 954 0052 E5E7     		b	.L112
 955              	.L114:
 813:Middlewares/Third_Party/LwIP/src/core/tcp.c ****     }
 956              		.loc 1 813 0 discriminator 1
 957 0054 074B     		ldr	r3, .L119
 958 0056 40F22D32 		movw	r2, #813
 959 005a 0949     		ldr	r1, .L119+12
 960 005c 0748     		ldr	r0, .L119+8
ARM GAS  /var/folders/0d/93p3r6493yg7p0rvl_4r983m0000gn/T//ccIusu9n.s 			page 35


 961 005e FFF7FEFF 		bl	printf
 962              	.LVL112:
 963 0062 DDE7     		b	.L112
 964              	.LVL113:
 965              	.L118:
 824:Middlewares/Third_Party/LwIP/src/core/tcp.c ****     tcp_output(pcb);
 966              		.loc 1 824 0
 967 0064 AB7E     		ldrb	r3, [r5, #26]	@ zero_extendqisi2
 968 0066 43F00203 		orr	r3, r3, #2
 969 006a AB76     		strb	r3, [r5, #26]
 825:Middlewares/Third_Party/LwIP/src/core/tcp.c ****   }
 970              		.loc 1 825 0
 971 006c 2846     		mov	r0, r5
 972              	.LVL114:
 973 006e FFF7FEFF 		bl	tcp_output
 974              	.LVL115:
 830:Middlewares/Third_Party/LwIP/src/core/tcp.c **** 
 975              		.loc 1 830 0
 976 0072 DBE7     		b	.L109
 977              	.L120:
 978              		.align	2
 979              	.L119:
 980 0074 00000000 		.word	.LC0
 981 0078 00000000 		.word	.LC7
 982 007c 38000000 		.word	.LC2
 983 0080 28000000 		.word	.LC8
 984              		.cfi_endproc
 985              	.LFE157:
 987              		.section	.text.tcp_txnow,"ax",%progbits
 988              		.align	1
 989              		.global	tcp_txnow
 990              		.syntax unified
 991              		.thumb
 992              		.thumb_func
 993              		.fpu fpv4-sp-d16
 995              	tcp_txnow:
 996              	.LFB162:
 861:Middlewares/Third_Party/LwIP/src/core/tcp.c **** 
 862:Middlewares/Third_Party/LwIP/src/core/tcp.c **** /**
 863:Middlewares/Third_Party/LwIP/src/core/tcp.c ****  * @ingroup tcp_raw
 864:Middlewares/Third_Party/LwIP/src/core/tcp.c ****  * Connects to another host. The function given as the "connected"
 865:Middlewares/Third_Party/LwIP/src/core/tcp.c ****  * argument will be called when the connection has been established.
 866:Middlewares/Third_Party/LwIP/src/core/tcp.c ****  *
 867:Middlewares/Third_Party/LwIP/src/core/tcp.c ****  * @param pcb the tcp_pcb used to establish the connection
 868:Middlewares/Third_Party/LwIP/src/core/tcp.c ****  * @param ipaddr the remote ip address to connect to
 869:Middlewares/Third_Party/LwIP/src/core/tcp.c ****  * @param port the remote tcp port to connect to
 870:Middlewares/Third_Party/LwIP/src/core/tcp.c ****  * @param connected callback function to call when connected (on error,
 871:Middlewares/Third_Party/LwIP/src/core/tcp.c ****                     the err calback will be called)
 872:Middlewares/Third_Party/LwIP/src/core/tcp.c ****  * @return ERR_VAL if invalid arguments are given
 873:Middlewares/Third_Party/LwIP/src/core/tcp.c ****  *         ERR_OK if connect request has been sent
 874:Middlewares/Third_Party/LwIP/src/core/tcp.c ****  *         other err_t values if connect request couldn't be sent
 875:Middlewares/Third_Party/LwIP/src/core/tcp.c ****  */
 876:Middlewares/Third_Party/LwIP/src/core/tcp.c **** err_t
 877:Middlewares/Third_Party/LwIP/src/core/tcp.c **** tcp_connect(struct tcp_pcb *pcb, const ip_addr_t *ipaddr, u16_t port,
 878:Middlewares/Third_Party/LwIP/src/core/tcp.c ****       tcp_connected_fn connected)
 879:Middlewares/Third_Party/LwIP/src/core/tcp.c **** {
 880:Middlewares/Third_Party/LwIP/src/core/tcp.c ****   err_t ret;
ARM GAS  /var/folders/0d/93p3r6493yg7p0rvl_4r983m0000gn/T//ccIusu9n.s 			page 36


 881:Middlewares/Third_Party/LwIP/src/core/tcp.c ****   u32_t iss;
 882:Middlewares/Third_Party/LwIP/src/core/tcp.c ****   u16_t old_local_port;
 883:Middlewares/Third_Party/LwIP/src/core/tcp.c **** 
 884:Middlewares/Third_Party/LwIP/src/core/tcp.c ****   if ((pcb == NULL) || (ipaddr == NULL)) {
 885:Middlewares/Third_Party/LwIP/src/core/tcp.c ****     return ERR_VAL;
 886:Middlewares/Third_Party/LwIP/src/core/tcp.c ****   }
 887:Middlewares/Third_Party/LwIP/src/core/tcp.c **** 
 888:Middlewares/Third_Party/LwIP/src/core/tcp.c ****   LWIP_ERROR("tcp_connect: can only connect from state CLOSED", pcb->state == CLOSED, return ERR_IS
 889:Middlewares/Third_Party/LwIP/src/core/tcp.c **** 
 890:Middlewares/Third_Party/LwIP/src/core/tcp.c ****   LWIP_DEBUGF(TCP_DEBUG, ("tcp_connect to port %"U16_F"\n", port));
 891:Middlewares/Third_Party/LwIP/src/core/tcp.c ****   ip_addr_set(&pcb->remote_ip, ipaddr);
 892:Middlewares/Third_Party/LwIP/src/core/tcp.c ****   pcb->remote_port = port;
 893:Middlewares/Third_Party/LwIP/src/core/tcp.c **** 
 894:Middlewares/Third_Party/LwIP/src/core/tcp.c ****   /* check if we have a route to the remote host */
 895:Middlewares/Third_Party/LwIP/src/core/tcp.c ****   if (ip_addr_isany(&pcb->local_ip)) {
 896:Middlewares/Third_Party/LwIP/src/core/tcp.c ****     /* no local IP address set, yet. */
 897:Middlewares/Third_Party/LwIP/src/core/tcp.c ****     struct netif *netif;
 898:Middlewares/Third_Party/LwIP/src/core/tcp.c ****     const ip_addr_t *local_ip;
 899:Middlewares/Third_Party/LwIP/src/core/tcp.c ****     ip_route_get_local_ip(&pcb->local_ip, &pcb->remote_ip, netif, local_ip);
 900:Middlewares/Third_Party/LwIP/src/core/tcp.c ****     if ((netif == NULL) || (local_ip == NULL)) {
 901:Middlewares/Third_Party/LwIP/src/core/tcp.c ****       /* Don't even try to send a SYN packet if we have no route
 902:Middlewares/Third_Party/LwIP/src/core/tcp.c ****          since that will fail. */
 903:Middlewares/Third_Party/LwIP/src/core/tcp.c ****       return ERR_RTE;
 904:Middlewares/Third_Party/LwIP/src/core/tcp.c ****     }
 905:Middlewares/Third_Party/LwIP/src/core/tcp.c ****     /* Use the address as local address of the pcb. */
 906:Middlewares/Third_Party/LwIP/src/core/tcp.c ****     ip_addr_copy(pcb->local_ip, *local_ip);
 907:Middlewares/Third_Party/LwIP/src/core/tcp.c ****   }
 908:Middlewares/Third_Party/LwIP/src/core/tcp.c **** 
 909:Middlewares/Third_Party/LwIP/src/core/tcp.c ****   old_local_port = pcb->local_port;
 910:Middlewares/Third_Party/LwIP/src/core/tcp.c ****   if (pcb->local_port == 0) {
 911:Middlewares/Third_Party/LwIP/src/core/tcp.c ****     pcb->local_port = tcp_new_port();
 912:Middlewares/Third_Party/LwIP/src/core/tcp.c ****     if (pcb->local_port == 0) {
 913:Middlewares/Third_Party/LwIP/src/core/tcp.c ****       return ERR_BUF;
 914:Middlewares/Third_Party/LwIP/src/core/tcp.c ****     }
 915:Middlewares/Third_Party/LwIP/src/core/tcp.c ****   } else {
 916:Middlewares/Third_Party/LwIP/src/core/tcp.c **** #if SO_REUSE
 917:Middlewares/Third_Party/LwIP/src/core/tcp.c ****     if (ip_get_option(pcb, SOF_REUSEADDR)) {
 918:Middlewares/Third_Party/LwIP/src/core/tcp.c ****       /* Since SOF_REUSEADDR allows reusing a local address, we have to make sure
 919:Middlewares/Third_Party/LwIP/src/core/tcp.c ****          now that the 5-tuple is unique. */
 920:Middlewares/Third_Party/LwIP/src/core/tcp.c ****       struct tcp_pcb *cpcb;
 921:Middlewares/Third_Party/LwIP/src/core/tcp.c ****       int i;
 922:Middlewares/Third_Party/LwIP/src/core/tcp.c ****       /* Don't check listen- and bound-PCBs, check active- and TIME-WAIT PCBs. */
 923:Middlewares/Third_Party/LwIP/src/core/tcp.c ****       for (i = 2; i < NUM_TCP_PCB_LISTS; i++) {
 924:Middlewares/Third_Party/LwIP/src/core/tcp.c ****         for (cpcb = *tcp_pcb_lists[i]; cpcb != NULL; cpcb = cpcb->next) {
 925:Middlewares/Third_Party/LwIP/src/core/tcp.c ****           if ((cpcb->local_port == pcb->local_port) &&
 926:Middlewares/Third_Party/LwIP/src/core/tcp.c ****               (cpcb->remote_port == port) &&
 927:Middlewares/Third_Party/LwIP/src/core/tcp.c ****               ip_addr_cmp(&cpcb->local_ip, &pcb->local_ip) &&
 928:Middlewares/Third_Party/LwIP/src/core/tcp.c ****               ip_addr_cmp(&cpcb->remote_ip, ipaddr)) {
 929:Middlewares/Third_Party/LwIP/src/core/tcp.c ****             /* linux returns EISCONN here, but ERR_USE should be OK for us */
 930:Middlewares/Third_Party/LwIP/src/core/tcp.c ****             return ERR_USE;
 931:Middlewares/Third_Party/LwIP/src/core/tcp.c ****           }
 932:Middlewares/Third_Party/LwIP/src/core/tcp.c ****         }
 933:Middlewares/Third_Party/LwIP/src/core/tcp.c ****       }
 934:Middlewares/Third_Party/LwIP/src/core/tcp.c ****     }
 935:Middlewares/Third_Party/LwIP/src/core/tcp.c **** #endif /* SO_REUSE */
 936:Middlewares/Third_Party/LwIP/src/core/tcp.c ****   }
 937:Middlewares/Third_Party/LwIP/src/core/tcp.c **** 
ARM GAS  /var/folders/0d/93p3r6493yg7p0rvl_4r983m0000gn/T//ccIusu9n.s 			page 37


 938:Middlewares/Third_Party/LwIP/src/core/tcp.c ****   iss = tcp_next_iss(pcb);
 939:Middlewares/Third_Party/LwIP/src/core/tcp.c ****   pcb->rcv_nxt = 0;
 940:Middlewares/Third_Party/LwIP/src/core/tcp.c ****   pcb->snd_nxt = iss;
 941:Middlewares/Third_Party/LwIP/src/core/tcp.c ****   pcb->lastack = iss - 1;
 942:Middlewares/Third_Party/LwIP/src/core/tcp.c ****   pcb->snd_wl2 = iss - 1;
 943:Middlewares/Third_Party/LwIP/src/core/tcp.c ****   pcb->snd_lbb = iss - 1;
 944:Middlewares/Third_Party/LwIP/src/core/tcp.c ****   /* Start with a window that does not need scaling. When window scaling is
 945:Middlewares/Third_Party/LwIP/src/core/tcp.c ****      enabled and used, the window is enlarged when both sides agree on scaling. */
 946:Middlewares/Third_Party/LwIP/src/core/tcp.c ****   pcb->rcv_wnd = pcb->rcv_ann_wnd = TCPWND_MIN16(TCP_WND);
 947:Middlewares/Third_Party/LwIP/src/core/tcp.c ****   pcb->rcv_ann_right_edge = pcb->rcv_nxt;
 948:Middlewares/Third_Party/LwIP/src/core/tcp.c ****   pcb->snd_wnd = TCP_WND;
 949:Middlewares/Third_Party/LwIP/src/core/tcp.c ****   /* As initial send MSS, we use TCP_MSS but limit it to 536.
 950:Middlewares/Third_Party/LwIP/src/core/tcp.c ****      The send MSS is updated when an MSS option is received. */
 951:Middlewares/Third_Party/LwIP/src/core/tcp.c ****   pcb->mss = INITIAL_MSS;
 952:Middlewares/Third_Party/LwIP/src/core/tcp.c **** #if TCP_CALCULATE_EFF_SEND_MSS
 953:Middlewares/Third_Party/LwIP/src/core/tcp.c ****   pcb->mss = tcp_eff_send_mss(pcb->mss, &pcb->local_ip, &pcb->remote_ip);
 954:Middlewares/Third_Party/LwIP/src/core/tcp.c **** #endif /* TCP_CALCULATE_EFF_SEND_MSS */
 955:Middlewares/Third_Party/LwIP/src/core/tcp.c ****   pcb->cwnd = 1;
 956:Middlewares/Third_Party/LwIP/src/core/tcp.c **** #if LWIP_CALLBACK_API
 957:Middlewares/Third_Party/LwIP/src/core/tcp.c ****   pcb->connected = connected;
 958:Middlewares/Third_Party/LwIP/src/core/tcp.c **** #else /* LWIP_CALLBACK_API */
 959:Middlewares/Third_Party/LwIP/src/core/tcp.c ****   LWIP_UNUSED_ARG(connected);
 960:Middlewares/Third_Party/LwIP/src/core/tcp.c **** #endif /* LWIP_CALLBACK_API */
 961:Middlewares/Third_Party/LwIP/src/core/tcp.c **** 
 962:Middlewares/Third_Party/LwIP/src/core/tcp.c ****   /* Send a SYN together with the MSS option. */
 963:Middlewares/Third_Party/LwIP/src/core/tcp.c ****   ret = tcp_enqueue_flags(pcb, TCP_SYN);
 964:Middlewares/Third_Party/LwIP/src/core/tcp.c ****   if (ret == ERR_OK) {
 965:Middlewares/Third_Party/LwIP/src/core/tcp.c ****     /* SYN segment was enqueued, changed the pcbs state now */
 966:Middlewares/Third_Party/LwIP/src/core/tcp.c ****     pcb->state = SYN_SENT;
 967:Middlewares/Third_Party/LwIP/src/core/tcp.c ****     if (old_local_port != 0) {
 968:Middlewares/Third_Party/LwIP/src/core/tcp.c ****       TCP_RMV(&tcp_bound_pcbs, pcb);
 969:Middlewares/Third_Party/LwIP/src/core/tcp.c ****     }
 970:Middlewares/Third_Party/LwIP/src/core/tcp.c ****     TCP_REG_ACTIVE(pcb);
 971:Middlewares/Third_Party/LwIP/src/core/tcp.c ****     MIB2_STATS_INC(mib2.tcpactiveopens);
 972:Middlewares/Third_Party/LwIP/src/core/tcp.c **** 
 973:Middlewares/Third_Party/LwIP/src/core/tcp.c ****     tcp_output(pcb);
 974:Middlewares/Third_Party/LwIP/src/core/tcp.c ****   }
 975:Middlewares/Third_Party/LwIP/src/core/tcp.c ****   return ret;
 976:Middlewares/Third_Party/LwIP/src/core/tcp.c **** }
 977:Middlewares/Third_Party/LwIP/src/core/tcp.c **** 
 978:Middlewares/Third_Party/LwIP/src/core/tcp.c **** /**
 979:Middlewares/Third_Party/LwIP/src/core/tcp.c ****  * Called every 500 ms and implements the retransmission timer and the timer that
 980:Middlewares/Third_Party/LwIP/src/core/tcp.c ****  * removes PCBs that have been in TIME-WAIT for enough time. It also increments
 981:Middlewares/Third_Party/LwIP/src/core/tcp.c ****  * various timers such as the inactivity timer in each PCB.
 982:Middlewares/Third_Party/LwIP/src/core/tcp.c ****  *
 983:Middlewares/Third_Party/LwIP/src/core/tcp.c ****  * Automatically called from tcp_tmr().
 984:Middlewares/Third_Party/LwIP/src/core/tcp.c ****  */
 985:Middlewares/Third_Party/LwIP/src/core/tcp.c **** void
 986:Middlewares/Third_Party/LwIP/src/core/tcp.c **** tcp_slowtmr(void)
 987:Middlewares/Third_Party/LwIP/src/core/tcp.c **** {
 988:Middlewares/Third_Party/LwIP/src/core/tcp.c ****   struct tcp_pcb *pcb, *prev;
 989:Middlewares/Third_Party/LwIP/src/core/tcp.c ****   tcpwnd_size_t eff_wnd;
 990:Middlewares/Third_Party/LwIP/src/core/tcp.c ****   u8_t pcb_remove;      /* flag if a PCB should be removed */
 991:Middlewares/Third_Party/LwIP/src/core/tcp.c ****   u8_t pcb_reset;       /* flag if a RST should be sent when removing */
 992:Middlewares/Third_Party/LwIP/src/core/tcp.c ****   err_t err;
 993:Middlewares/Third_Party/LwIP/src/core/tcp.c **** 
 994:Middlewares/Third_Party/LwIP/src/core/tcp.c ****   err = ERR_OK;
ARM GAS  /var/folders/0d/93p3r6493yg7p0rvl_4r983m0000gn/T//ccIusu9n.s 			page 38


 995:Middlewares/Third_Party/LwIP/src/core/tcp.c **** 
 996:Middlewares/Third_Party/LwIP/src/core/tcp.c ****   ++tcp_ticks;
 997:Middlewares/Third_Party/LwIP/src/core/tcp.c ****   ++tcp_timer_ctr;
 998:Middlewares/Third_Party/LwIP/src/core/tcp.c **** 
 999:Middlewares/Third_Party/LwIP/src/core/tcp.c **** tcp_slowtmr_start:
1000:Middlewares/Third_Party/LwIP/src/core/tcp.c ****   /* Steps through all of the active PCBs. */
1001:Middlewares/Third_Party/LwIP/src/core/tcp.c ****   prev = NULL;
1002:Middlewares/Third_Party/LwIP/src/core/tcp.c ****   pcb = tcp_active_pcbs;
1003:Middlewares/Third_Party/LwIP/src/core/tcp.c ****   if (pcb == NULL) {
1004:Middlewares/Third_Party/LwIP/src/core/tcp.c ****     LWIP_DEBUGF(TCP_DEBUG, ("tcp_slowtmr: no active pcbs\n"));
1005:Middlewares/Third_Party/LwIP/src/core/tcp.c ****   }
1006:Middlewares/Third_Party/LwIP/src/core/tcp.c ****   while (pcb != NULL) {
1007:Middlewares/Third_Party/LwIP/src/core/tcp.c ****     LWIP_DEBUGF(TCP_DEBUG, ("tcp_slowtmr: processing active pcb\n"));
1008:Middlewares/Third_Party/LwIP/src/core/tcp.c ****     LWIP_ASSERT("tcp_slowtmr: active pcb->state != CLOSED\n", pcb->state != CLOSED);
1009:Middlewares/Third_Party/LwIP/src/core/tcp.c ****     LWIP_ASSERT("tcp_slowtmr: active pcb->state != LISTEN\n", pcb->state != LISTEN);
1010:Middlewares/Third_Party/LwIP/src/core/tcp.c ****     LWIP_ASSERT("tcp_slowtmr: active pcb->state != TIME-WAIT\n", pcb->state != TIME_WAIT);
1011:Middlewares/Third_Party/LwIP/src/core/tcp.c ****     if (pcb->last_timer == tcp_timer_ctr) {
1012:Middlewares/Third_Party/LwIP/src/core/tcp.c ****       /* skip this pcb, we have already processed it */
1013:Middlewares/Third_Party/LwIP/src/core/tcp.c ****       pcb = pcb->next;
1014:Middlewares/Third_Party/LwIP/src/core/tcp.c ****       continue;
1015:Middlewares/Third_Party/LwIP/src/core/tcp.c ****     }
1016:Middlewares/Third_Party/LwIP/src/core/tcp.c ****     pcb->last_timer = tcp_timer_ctr;
1017:Middlewares/Third_Party/LwIP/src/core/tcp.c **** 
1018:Middlewares/Third_Party/LwIP/src/core/tcp.c ****     pcb_remove = 0;
1019:Middlewares/Third_Party/LwIP/src/core/tcp.c ****     pcb_reset = 0;
1020:Middlewares/Third_Party/LwIP/src/core/tcp.c **** 
1021:Middlewares/Third_Party/LwIP/src/core/tcp.c ****     if (pcb->state == SYN_SENT && pcb->nrtx >= TCP_SYNMAXRTX) {
1022:Middlewares/Third_Party/LwIP/src/core/tcp.c ****       ++pcb_remove;
1023:Middlewares/Third_Party/LwIP/src/core/tcp.c ****       LWIP_DEBUGF(TCP_DEBUG, ("tcp_slowtmr: max SYN retries reached\n"));
1024:Middlewares/Third_Party/LwIP/src/core/tcp.c ****     }
1025:Middlewares/Third_Party/LwIP/src/core/tcp.c ****     else if (pcb->nrtx >= TCP_MAXRTX) {
1026:Middlewares/Third_Party/LwIP/src/core/tcp.c ****       ++pcb_remove;
1027:Middlewares/Third_Party/LwIP/src/core/tcp.c ****       LWIP_DEBUGF(TCP_DEBUG, ("tcp_slowtmr: max DATA retries reached\n"));
1028:Middlewares/Third_Party/LwIP/src/core/tcp.c ****     } else {
1029:Middlewares/Third_Party/LwIP/src/core/tcp.c ****       if (pcb->persist_backoff > 0) {
1030:Middlewares/Third_Party/LwIP/src/core/tcp.c ****         /* If snd_wnd is zero, use persist timer to send 1 byte probes
1031:Middlewares/Third_Party/LwIP/src/core/tcp.c ****          * instead of using the standard retransmission mechanism. */
1032:Middlewares/Third_Party/LwIP/src/core/tcp.c ****         u8_t backoff_cnt = tcp_persist_backoff[pcb->persist_backoff-1];
1033:Middlewares/Third_Party/LwIP/src/core/tcp.c ****         if (pcb->persist_cnt < backoff_cnt) {
1034:Middlewares/Third_Party/LwIP/src/core/tcp.c ****           pcb->persist_cnt++;
1035:Middlewares/Third_Party/LwIP/src/core/tcp.c ****         }
1036:Middlewares/Third_Party/LwIP/src/core/tcp.c ****         if (pcb->persist_cnt >= backoff_cnt) {
1037:Middlewares/Third_Party/LwIP/src/core/tcp.c ****           if (tcp_zero_window_probe(pcb) == ERR_OK) {
1038:Middlewares/Third_Party/LwIP/src/core/tcp.c ****             pcb->persist_cnt = 0;
1039:Middlewares/Third_Party/LwIP/src/core/tcp.c ****             if (pcb->persist_backoff < sizeof(tcp_persist_backoff)) {
1040:Middlewares/Third_Party/LwIP/src/core/tcp.c ****               pcb->persist_backoff++;
1041:Middlewares/Third_Party/LwIP/src/core/tcp.c ****             }
1042:Middlewares/Third_Party/LwIP/src/core/tcp.c ****           }
1043:Middlewares/Third_Party/LwIP/src/core/tcp.c ****         }
1044:Middlewares/Third_Party/LwIP/src/core/tcp.c ****       } else {
1045:Middlewares/Third_Party/LwIP/src/core/tcp.c ****         /* Increase the retransmission timer if it is running */
1046:Middlewares/Third_Party/LwIP/src/core/tcp.c ****         if (pcb->rtime >= 0) {
1047:Middlewares/Third_Party/LwIP/src/core/tcp.c ****           ++pcb->rtime;
1048:Middlewares/Third_Party/LwIP/src/core/tcp.c ****         }
1049:Middlewares/Third_Party/LwIP/src/core/tcp.c **** 
1050:Middlewares/Third_Party/LwIP/src/core/tcp.c ****         if (pcb->unacked != NULL && pcb->rtime >= pcb->rto) {
1051:Middlewares/Third_Party/LwIP/src/core/tcp.c ****           /* Time for a retransmission. */
ARM GAS  /var/folders/0d/93p3r6493yg7p0rvl_4r983m0000gn/T//ccIusu9n.s 			page 39


1052:Middlewares/Third_Party/LwIP/src/core/tcp.c ****           LWIP_DEBUGF(TCP_RTO_DEBUG, ("tcp_slowtmr: rtime %"S16_F
1053:Middlewares/Third_Party/LwIP/src/core/tcp.c ****                                       " pcb->rto %"S16_F"\n",
1054:Middlewares/Third_Party/LwIP/src/core/tcp.c ****                                       pcb->rtime, pcb->rto));
1055:Middlewares/Third_Party/LwIP/src/core/tcp.c **** 
1056:Middlewares/Third_Party/LwIP/src/core/tcp.c ****           /* Double retransmission time-out unless we are trying to
1057:Middlewares/Third_Party/LwIP/src/core/tcp.c ****            * connect to somebody (i.e., we are in SYN_SENT). */
1058:Middlewares/Third_Party/LwIP/src/core/tcp.c ****           if (pcb->state != SYN_SENT) {
1059:Middlewares/Third_Party/LwIP/src/core/tcp.c ****             u8_t backoff_idx = LWIP_MIN(pcb->nrtx, sizeof(tcp_backoff)-1);
1060:Middlewares/Third_Party/LwIP/src/core/tcp.c ****             pcb->rto = ((pcb->sa >> 3) + pcb->sv) << tcp_backoff[backoff_idx];
1061:Middlewares/Third_Party/LwIP/src/core/tcp.c ****           }
1062:Middlewares/Third_Party/LwIP/src/core/tcp.c **** 
1063:Middlewares/Third_Party/LwIP/src/core/tcp.c ****           /* Reset the retransmission timer. */
1064:Middlewares/Third_Party/LwIP/src/core/tcp.c ****           pcb->rtime = 0;
1065:Middlewares/Third_Party/LwIP/src/core/tcp.c **** 
1066:Middlewares/Third_Party/LwIP/src/core/tcp.c ****           /* Reduce congestion window and ssthresh. */
1067:Middlewares/Third_Party/LwIP/src/core/tcp.c ****           eff_wnd = LWIP_MIN(pcb->cwnd, pcb->snd_wnd);
1068:Middlewares/Third_Party/LwIP/src/core/tcp.c ****           pcb->ssthresh = eff_wnd >> 1;
1069:Middlewares/Third_Party/LwIP/src/core/tcp.c ****           if (pcb->ssthresh < (tcpwnd_size_t)(pcb->mss << 1)) {
1070:Middlewares/Third_Party/LwIP/src/core/tcp.c ****             pcb->ssthresh = (pcb->mss << 1);
1071:Middlewares/Third_Party/LwIP/src/core/tcp.c ****           }
1072:Middlewares/Third_Party/LwIP/src/core/tcp.c ****           pcb->cwnd = pcb->mss;
1073:Middlewares/Third_Party/LwIP/src/core/tcp.c ****           LWIP_DEBUGF(TCP_CWND_DEBUG, ("tcp_slowtmr: cwnd %"TCPWNDSIZE_F
1074:Middlewares/Third_Party/LwIP/src/core/tcp.c ****                                        " ssthresh %"TCPWNDSIZE_F"\n",
1075:Middlewares/Third_Party/LwIP/src/core/tcp.c ****                                        pcb->cwnd, pcb->ssthresh));
1076:Middlewares/Third_Party/LwIP/src/core/tcp.c **** 
1077:Middlewares/Third_Party/LwIP/src/core/tcp.c ****           /* The following needs to be called AFTER cwnd is set to one
1078:Middlewares/Third_Party/LwIP/src/core/tcp.c ****              mss - STJ */
1079:Middlewares/Third_Party/LwIP/src/core/tcp.c ****           tcp_rexmit_rto(pcb);
1080:Middlewares/Third_Party/LwIP/src/core/tcp.c ****         }
1081:Middlewares/Third_Party/LwIP/src/core/tcp.c ****       }
1082:Middlewares/Third_Party/LwIP/src/core/tcp.c ****     }
1083:Middlewares/Third_Party/LwIP/src/core/tcp.c ****     /* Check if this PCB has stayed too long in FIN-WAIT-2 */
1084:Middlewares/Third_Party/LwIP/src/core/tcp.c ****     if (pcb->state == FIN_WAIT_2) {
1085:Middlewares/Third_Party/LwIP/src/core/tcp.c ****       /* If this PCB is in FIN_WAIT_2 because of SHUT_WR don't let it time out. */
1086:Middlewares/Third_Party/LwIP/src/core/tcp.c ****       if (pcb->flags & TF_RXCLOSED) {
1087:Middlewares/Third_Party/LwIP/src/core/tcp.c ****         /* PCB was fully closed (either through close() or SHUT_RDWR):
1088:Middlewares/Third_Party/LwIP/src/core/tcp.c ****            normal FIN-WAIT timeout handling. */
1089:Middlewares/Third_Party/LwIP/src/core/tcp.c ****         if ((u32_t)(tcp_ticks - pcb->tmr) >
1090:Middlewares/Third_Party/LwIP/src/core/tcp.c ****             TCP_FIN_WAIT_TIMEOUT / TCP_SLOW_INTERVAL) {
1091:Middlewares/Third_Party/LwIP/src/core/tcp.c ****           ++pcb_remove;
1092:Middlewares/Third_Party/LwIP/src/core/tcp.c ****           LWIP_DEBUGF(TCP_DEBUG, ("tcp_slowtmr: removing pcb stuck in FIN-WAIT-2\n"));
1093:Middlewares/Third_Party/LwIP/src/core/tcp.c ****         }
1094:Middlewares/Third_Party/LwIP/src/core/tcp.c ****       }
1095:Middlewares/Third_Party/LwIP/src/core/tcp.c ****     }
1096:Middlewares/Third_Party/LwIP/src/core/tcp.c **** 
1097:Middlewares/Third_Party/LwIP/src/core/tcp.c ****     /* Check if KEEPALIVE should be sent */
1098:Middlewares/Third_Party/LwIP/src/core/tcp.c ****     if (ip_get_option(pcb, SOF_KEEPALIVE) &&
1099:Middlewares/Third_Party/LwIP/src/core/tcp.c ****        ((pcb->state == ESTABLISHED) ||
1100:Middlewares/Third_Party/LwIP/src/core/tcp.c ****         (pcb->state == CLOSE_WAIT))) {
1101:Middlewares/Third_Party/LwIP/src/core/tcp.c ****       if ((u32_t)(tcp_ticks - pcb->tmr) >
1102:Middlewares/Third_Party/LwIP/src/core/tcp.c ****          (pcb->keep_idle + TCP_KEEP_DUR(pcb)) / TCP_SLOW_INTERVAL)
1103:Middlewares/Third_Party/LwIP/src/core/tcp.c ****       {
1104:Middlewares/Third_Party/LwIP/src/core/tcp.c ****         LWIP_DEBUGF(TCP_DEBUG, ("tcp_slowtmr: KEEPALIVE timeout. Aborting connection to "));
1105:Middlewares/Third_Party/LwIP/src/core/tcp.c ****         ip_addr_debug_print(TCP_DEBUG, &pcb->remote_ip);
1106:Middlewares/Third_Party/LwIP/src/core/tcp.c ****         LWIP_DEBUGF(TCP_DEBUG, ("\n"));
1107:Middlewares/Third_Party/LwIP/src/core/tcp.c **** 
1108:Middlewares/Third_Party/LwIP/src/core/tcp.c ****         ++pcb_remove;
ARM GAS  /var/folders/0d/93p3r6493yg7p0rvl_4r983m0000gn/T//ccIusu9n.s 			page 40


1109:Middlewares/Third_Party/LwIP/src/core/tcp.c ****         ++pcb_reset;
1110:Middlewares/Third_Party/LwIP/src/core/tcp.c ****       } else if ((u32_t)(tcp_ticks - pcb->tmr) >
1111:Middlewares/Third_Party/LwIP/src/core/tcp.c ****                 (pcb->keep_idle + pcb->keep_cnt_sent * TCP_KEEP_INTVL(pcb))
1112:Middlewares/Third_Party/LwIP/src/core/tcp.c ****                 / TCP_SLOW_INTERVAL)
1113:Middlewares/Third_Party/LwIP/src/core/tcp.c ****       {
1114:Middlewares/Third_Party/LwIP/src/core/tcp.c ****         err = tcp_keepalive(pcb);
1115:Middlewares/Third_Party/LwIP/src/core/tcp.c ****         if (err == ERR_OK) {
1116:Middlewares/Third_Party/LwIP/src/core/tcp.c ****           pcb->keep_cnt_sent++;
1117:Middlewares/Third_Party/LwIP/src/core/tcp.c ****         }
1118:Middlewares/Third_Party/LwIP/src/core/tcp.c ****       }
1119:Middlewares/Third_Party/LwIP/src/core/tcp.c ****     }
1120:Middlewares/Third_Party/LwIP/src/core/tcp.c **** 
1121:Middlewares/Third_Party/LwIP/src/core/tcp.c ****     /* If this PCB has queued out of sequence data, but has been
1122:Middlewares/Third_Party/LwIP/src/core/tcp.c ****        inactive for too long, will drop the data (it will eventually
1123:Middlewares/Third_Party/LwIP/src/core/tcp.c ****        be retransmitted). */
1124:Middlewares/Third_Party/LwIP/src/core/tcp.c **** #if TCP_QUEUE_OOSEQ
1125:Middlewares/Third_Party/LwIP/src/core/tcp.c ****     if (pcb->ooseq != NULL &&
1126:Middlewares/Third_Party/LwIP/src/core/tcp.c ****         (u32_t)tcp_ticks - pcb->tmr >= pcb->rto * TCP_OOSEQ_TIMEOUT) {
1127:Middlewares/Third_Party/LwIP/src/core/tcp.c ****       tcp_segs_free(pcb->ooseq);
1128:Middlewares/Third_Party/LwIP/src/core/tcp.c ****       pcb->ooseq = NULL;
1129:Middlewares/Third_Party/LwIP/src/core/tcp.c ****       LWIP_DEBUGF(TCP_CWND_DEBUG, ("tcp_slowtmr: dropping OOSEQ queued data\n"));
1130:Middlewares/Third_Party/LwIP/src/core/tcp.c ****     }
1131:Middlewares/Third_Party/LwIP/src/core/tcp.c **** #endif /* TCP_QUEUE_OOSEQ */
1132:Middlewares/Third_Party/LwIP/src/core/tcp.c **** 
1133:Middlewares/Third_Party/LwIP/src/core/tcp.c ****     /* Check if this PCB has stayed too long in SYN-RCVD */
1134:Middlewares/Third_Party/LwIP/src/core/tcp.c ****     if (pcb->state == SYN_RCVD) {
1135:Middlewares/Third_Party/LwIP/src/core/tcp.c ****       if ((u32_t)(tcp_ticks - pcb->tmr) >
1136:Middlewares/Third_Party/LwIP/src/core/tcp.c ****           TCP_SYN_RCVD_TIMEOUT / TCP_SLOW_INTERVAL) {
1137:Middlewares/Third_Party/LwIP/src/core/tcp.c ****         ++pcb_remove;
1138:Middlewares/Third_Party/LwIP/src/core/tcp.c ****         LWIP_DEBUGF(TCP_DEBUG, ("tcp_slowtmr: removing pcb stuck in SYN-RCVD\n"));
1139:Middlewares/Third_Party/LwIP/src/core/tcp.c ****       }
1140:Middlewares/Third_Party/LwIP/src/core/tcp.c ****     }
1141:Middlewares/Third_Party/LwIP/src/core/tcp.c **** 
1142:Middlewares/Third_Party/LwIP/src/core/tcp.c ****     /* Check if this PCB has stayed too long in LAST-ACK */
1143:Middlewares/Third_Party/LwIP/src/core/tcp.c ****     if (pcb->state == LAST_ACK) {
1144:Middlewares/Third_Party/LwIP/src/core/tcp.c ****       if ((u32_t)(tcp_ticks - pcb->tmr) > 2 * TCP_MSL / TCP_SLOW_INTERVAL) {
1145:Middlewares/Third_Party/LwIP/src/core/tcp.c ****         ++pcb_remove;
1146:Middlewares/Third_Party/LwIP/src/core/tcp.c ****         LWIP_DEBUGF(TCP_DEBUG, ("tcp_slowtmr: removing pcb stuck in LAST-ACK\n"));
1147:Middlewares/Third_Party/LwIP/src/core/tcp.c ****       }
1148:Middlewares/Third_Party/LwIP/src/core/tcp.c ****     }
1149:Middlewares/Third_Party/LwIP/src/core/tcp.c **** 
1150:Middlewares/Third_Party/LwIP/src/core/tcp.c ****     /* If the PCB should be removed, do it. */
1151:Middlewares/Third_Party/LwIP/src/core/tcp.c ****     if (pcb_remove) {
1152:Middlewares/Third_Party/LwIP/src/core/tcp.c ****       struct tcp_pcb *pcb2;
1153:Middlewares/Third_Party/LwIP/src/core/tcp.c **** #if LWIP_CALLBACK_API
1154:Middlewares/Third_Party/LwIP/src/core/tcp.c ****       tcp_err_fn err_fn = pcb->errf;
1155:Middlewares/Third_Party/LwIP/src/core/tcp.c **** #endif /* LWIP_CALLBACK_API */
1156:Middlewares/Third_Party/LwIP/src/core/tcp.c ****       void *err_arg;
1157:Middlewares/Third_Party/LwIP/src/core/tcp.c ****       enum tcp_state last_state;
1158:Middlewares/Third_Party/LwIP/src/core/tcp.c ****       tcp_pcb_purge(pcb);
1159:Middlewares/Third_Party/LwIP/src/core/tcp.c ****       /* Remove PCB from tcp_active_pcbs list. */
1160:Middlewares/Third_Party/LwIP/src/core/tcp.c ****       if (prev != NULL) {
1161:Middlewares/Third_Party/LwIP/src/core/tcp.c ****         LWIP_ASSERT("tcp_slowtmr: middle tcp != tcp_active_pcbs", pcb != tcp_active_pcbs);
1162:Middlewares/Third_Party/LwIP/src/core/tcp.c ****         prev->next = pcb->next;
1163:Middlewares/Third_Party/LwIP/src/core/tcp.c ****       } else {
1164:Middlewares/Third_Party/LwIP/src/core/tcp.c ****         /* This PCB was the first. */
1165:Middlewares/Third_Party/LwIP/src/core/tcp.c ****         LWIP_ASSERT("tcp_slowtmr: first pcb == tcp_active_pcbs", tcp_active_pcbs == pcb);
ARM GAS  /var/folders/0d/93p3r6493yg7p0rvl_4r983m0000gn/T//ccIusu9n.s 			page 41


1166:Middlewares/Third_Party/LwIP/src/core/tcp.c ****         tcp_active_pcbs = pcb->next;
1167:Middlewares/Third_Party/LwIP/src/core/tcp.c ****       }
1168:Middlewares/Third_Party/LwIP/src/core/tcp.c **** 
1169:Middlewares/Third_Party/LwIP/src/core/tcp.c ****       if (pcb_reset) {
1170:Middlewares/Third_Party/LwIP/src/core/tcp.c ****         tcp_rst(pcb->snd_nxt, pcb->rcv_nxt, &pcb->local_ip, &pcb->remote_ip,
1171:Middlewares/Third_Party/LwIP/src/core/tcp.c ****                  pcb->local_port, pcb->remote_port);
1172:Middlewares/Third_Party/LwIP/src/core/tcp.c ****       }
1173:Middlewares/Third_Party/LwIP/src/core/tcp.c **** 
1174:Middlewares/Third_Party/LwIP/src/core/tcp.c ****       err_arg = pcb->callback_arg;
1175:Middlewares/Third_Party/LwIP/src/core/tcp.c ****       last_state = pcb->state;
1176:Middlewares/Third_Party/LwIP/src/core/tcp.c ****       pcb2 = pcb;
1177:Middlewares/Third_Party/LwIP/src/core/tcp.c ****       pcb = pcb->next;
1178:Middlewares/Third_Party/LwIP/src/core/tcp.c ****       memp_free(MEMP_TCP_PCB, pcb2);
1179:Middlewares/Third_Party/LwIP/src/core/tcp.c **** 
1180:Middlewares/Third_Party/LwIP/src/core/tcp.c ****       tcp_active_pcbs_changed = 0;
1181:Middlewares/Third_Party/LwIP/src/core/tcp.c ****       TCP_EVENT_ERR(last_state, err_fn, err_arg, ERR_ABRT);
1182:Middlewares/Third_Party/LwIP/src/core/tcp.c ****       if (tcp_active_pcbs_changed) {
1183:Middlewares/Third_Party/LwIP/src/core/tcp.c ****         goto tcp_slowtmr_start;
1184:Middlewares/Third_Party/LwIP/src/core/tcp.c ****       }
1185:Middlewares/Third_Party/LwIP/src/core/tcp.c ****     } else {
1186:Middlewares/Third_Party/LwIP/src/core/tcp.c ****       /* get the 'next' element now and work with 'prev' below (in case of abort) */
1187:Middlewares/Third_Party/LwIP/src/core/tcp.c ****       prev = pcb;
1188:Middlewares/Third_Party/LwIP/src/core/tcp.c ****       pcb = pcb->next;
1189:Middlewares/Third_Party/LwIP/src/core/tcp.c **** 
1190:Middlewares/Third_Party/LwIP/src/core/tcp.c ****       /* We check if we should poll the connection. */
1191:Middlewares/Third_Party/LwIP/src/core/tcp.c ****       ++prev->polltmr;
1192:Middlewares/Third_Party/LwIP/src/core/tcp.c ****       if (prev->polltmr >= prev->pollinterval) {
1193:Middlewares/Third_Party/LwIP/src/core/tcp.c ****         prev->polltmr = 0;
1194:Middlewares/Third_Party/LwIP/src/core/tcp.c ****         LWIP_DEBUGF(TCP_DEBUG, ("tcp_slowtmr: polling application\n"));
1195:Middlewares/Third_Party/LwIP/src/core/tcp.c ****         tcp_active_pcbs_changed = 0;
1196:Middlewares/Third_Party/LwIP/src/core/tcp.c ****         TCP_EVENT_POLL(prev, err);
1197:Middlewares/Third_Party/LwIP/src/core/tcp.c ****         if (tcp_active_pcbs_changed) {
1198:Middlewares/Third_Party/LwIP/src/core/tcp.c ****           goto tcp_slowtmr_start;
1199:Middlewares/Third_Party/LwIP/src/core/tcp.c ****         }
1200:Middlewares/Third_Party/LwIP/src/core/tcp.c ****         /* if err == ERR_ABRT, 'prev' is already deallocated */
1201:Middlewares/Third_Party/LwIP/src/core/tcp.c ****         if (err == ERR_OK) {
1202:Middlewares/Third_Party/LwIP/src/core/tcp.c ****           tcp_output(prev);
1203:Middlewares/Third_Party/LwIP/src/core/tcp.c ****         }
1204:Middlewares/Third_Party/LwIP/src/core/tcp.c ****       }
1205:Middlewares/Third_Party/LwIP/src/core/tcp.c ****     }
1206:Middlewares/Third_Party/LwIP/src/core/tcp.c ****   }
1207:Middlewares/Third_Party/LwIP/src/core/tcp.c **** 
1208:Middlewares/Third_Party/LwIP/src/core/tcp.c **** 
1209:Middlewares/Third_Party/LwIP/src/core/tcp.c ****   /* Steps through all of the TIME-WAIT PCBs. */
1210:Middlewares/Third_Party/LwIP/src/core/tcp.c ****   prev = NULL;
1211:Middlewares/Third_Party/LwIP/src/core/tcp.c ****   pcb = tcp_tw_pcbs;
1212:Middlewares/Third_Party/LwIP/src/core/tcp.c ****   while (pcb != NULL) {
1213:Middlewares/Third_Party/LwIP/src/core/tcp.c ****     LWIP_ASSERT("tcp_slowtmr: TIME-WAIT pcb->state == TIME-WAIT", pcb->state == TIME_WAIT);
1214:Middlewares/Third_Party/LwIP/src/core/tcp.c ****     pcb_remove = 0;
1215:Middlewares/Third_Party/LwIP/src/core/tcp.c **** 
1216:Middlewares/Third_Party/LwIP/src/core/tcp.c ****     /* Check if this PCB has stayed long enough in TIME-WAIT */
1217:Middlewares/Third_Party/LwIP/src/core/tcp.c ****     if ((u32_t)(tcp_ticks - pcb->tmr) > 2 * TCP_MSL / TCP_SLOW_INTERVAL) {
1218:Middlewares/Third_Party/LwIP/src/core/tcp.c ****       ++pcb_remove;
1219:Middlewares/Third_Party/LwIP/src/core/tcp.c ****     }
1220:Middlewares/Third_Party/LwIP/src/core/tcp.c **** 
1221:Middlewares/Third_Party/LwIP/src/core/tcp.c ****     /* If the PCB should be removed, do it. */
1222:Middlewares/Third_Party/LwIP/src/core/tcp.c ****     if (pcb_remove) {
ARM GAS  /var/folders/0d/93p3r6493yg7p0rvl_4r983m0000gn/T//ccIusu9n.s 			page 42


1223:Middlewares/Third_Party/LwIP/src/core/tcp.c ****       struct tcp_pcb *pcb2;
1224:Middlewares/Third_Party/LwIP/src/core/tcp.c ****       tcp_pcb_purge(pcb);
1225:Middlewares/Third_Party/LwIP/src/core/tcp.c ****       /* Remove PCB from tcp_tw_pcbs list. */
1226:Middlewares/Third_Party/LwIP/src/core/tcp.c ****       if (prev != NULL) {
1227:Middlewares/Third_Party/LwIP/src/core/tcp.c ****         LWIP_ASSERT("tcp_slowtmr: middle tcp != tcp_tw_pcbs", pcb != tcp_tw_pcbs);
1228:Middlewares/Third_Party/LwIP/src/core/tcp.c ****         prev->next = pcb->next;
1229:Middlewares/Third_Party/LwIP/src/core/tcp.c ****       } else {
1230:Middlewares/Third_Party/LwIP/src/core/tcp.c ****         /* This PCB was the first. */
1231:Middlewares/Third_Party/LwIP/src/core/tcp.c ****         LWIP_ASSERT("tcp_slowtmr: first pcb == tcp_tw_pcbs", tcp_tw_pcbs == pcb);
1232:Middlewares/Third_Party/LwIP/src/core/tcp.c ****         tcp_tw_pcbs = pcb->next;
1233:Middlewares/Third_Party/LwIP/src/core/tcp.c ****       }
1234:Middlewares/Third_Party/LwIP/src/core/tcp.c ****       pcb2 = pcb;
1235:Middlewares/Third_Party/LwIP/src/core/tcp.c ****       pcb = pcb->next;
1236:Middlewares/Third_Party/LwIP/src/core/tcp.c ****       memp_free(MEMP_TCP_PCB, pcb2);
1237:Middlewares/Third_Party/LwIP/src/core/tcp.c ****     } else {
1238:Middlewares/Third_Party/LwIP/src/core/tcp.c ****       prev = pcb;
1239:Middlewares/Third_Party/LwIP/src/core/tcp.c ****       pcb = pcb->next;
1240:Middlewares/Third_Party/LwIP/src/core/tcp.c ****     }
1241:Middlewares/Third_Party/LwIP/src/core/tcp.c ****   }
1242:Middlewares/Third_Party/LwIP/src/core/tcp.c **** }
1243:Middlewares/Third_Party/LwIP/src/core/tcp.c **** 
1244:Middlewares/Third_Party/LwIP/src/core/tcp.c **** /**
1245:Middlewares/Third_Party/LwIP/src/core/tcp.c ****  * Is called every TCP_FAST_INTERVAL (250 ms) and process data previously
1246:Middlewares/Third_Party/LwIP/src/core/tcp.c ****  * "refused" by upper layer (application) and sends delayed ACKs.
1247:Middlewares/Third_Party/LwIP/src/core/tcp.c ****  *
1248:Middlewares/Third_Party/LwIP/src/core/tcp.c ****  * Automatically called from tcp_tmr().
1249:Middlewares/Third_Party/LwIP/src/core/tcp.c ****  */
1250:Middlewares/Third_Party/LwIP/src/core/tcp.c **** void
1251:Middlewares/Third_Party/LwIP/src/core/tcp.c **** tcp_fasttmr(void)
1252:Middlewares/Third_Party/LwIP/src/core/tcp.c **** {
1253:Middlewares/Third_Party/LwIP/src/core/tcp.c ****   struct tcp_pcb *pcb;
1254:Middlewares/Third_Party/LwIP/src/core/tcp.c **** 
1255:Middlewares/Third_Party/LwIP/src/core/tcp.c ****   ++tcp_timer_ctr;
1256:Middlewares/Third_Party/LwIP/src/core/tcp.c **** 
1257:Middlewares/Third_Party/LwIP/src/core/tcp.c **** tcp_fasttmr_start:
1258:Middlewares/Third_Party/LwIP/src/core/tcp.c ****   pcb = tcp_active_pcbs;
1259:Middlewares/Third_Party/LwIP/src/core/tcp.c **** 
1260:Middlewares/Third_Party/LwIP/src/core/tcp.c ****   while (pcb != NULL) {
1261:Middlewares/Third_Party/LwIP/src/core/tcp.c ****     if (pcb->last_timer != tcp_timer_ctr) {
1262:Middlewares/Third_Party/LwIP/src/core/tcp.c ****       struct tcp_pcb *next;
1263:Middlewares/Third_Party/LwIP/src/core/tcp.c ****       pcb->last_timer = tcp_timer_ctr;
1264:Middlewares/Third_Party/LwIP/src/core/tcp.c ****       /* send delayed ACKs */
1265:Middlewares/Third_Party/LwIP/src/core/tcp.c ****       if (pcb->flags & TF_ACK_DELAY) {
1266:Middlewares/Third_Party/LwIP/src/core/tcp.c ****         LWIP_DEBUGF(TCP_DEBUG, ("tcp_fasttmr: delayed ACK\n"));
1267:Middlewares/Third_Party/LwIP/src/core/tcp.c ****         tcp_ack_now(pcb);
1268:Middlewares/Third_Party/LwIP/src/core/tcp.c ****         tcp_output(pcb);
1269:Middlewares/Third_Party/LwIP/src/core/tcp.c ****         pcb->flags &= ~(TF_ACK_DELAY | TF_ACK_NOW);
1270:Middlewares/Third_Party/LwIP/src/core/tcp.c ****       }
1271:Middlewares/Third_Party/LwIP/src/core/tcp.c ****       /* send pending FIN */
1272:Middlewares/Third_Party/LwIP/src/core/tcp.c ****       if (pcb->flags & TF_CLOSEPEND) {
1273:Middlewares/Third_Party/LwIP/src/core/tcp.c ****         LWIP_DEBUGF(TCP_DEBUG, ("tcp_fasttmr: pending FIN\n"));
1274:Middlewares/Third_Party/LwIP/src/core/tcp.c ****         pcb->flags &= ~(TF_CLOSEPEND);
1275:Middlewares/Third_Party/LwIP/src/core/tcp.c ****         tcp_close_shutdown_fin(pcb);
1276:Middlewares/Third_Party/LwIP/src/core/tcp.c ****       }
1277:Middlewares/Third_Party/LwIP/src/core/tcp.c **** 
1278:Middlewares/Third_Party/LwIP/src/core/tcp.c ****       next = pcb->next;
1279:Middlewares/Third_Party/LwIP/src/core/tcp.c **** 
ARM GAS  /var/folders/0d/93p3r6493yg7p0rvl_4r983m0000gn/T//ccIusu9n.s 			page 43


1280:Middlewares/Third_Party/LwIP/src/core/tcp.c ****       /* If there is data which was previously "refused" by upper layer */
1281:Middlewares/Third_Party/LwIP/src/core/tcp.c ****       if (pcb->refused_data != NULL) {
1282:Middlewares/Third_Party/LwIP/src/core/tcp.c ****         tcp_active_pcbs_changed = 0;
1283:Middlewares/Third_Party/LwIP/src/core/tcp.c ****         tcp_process_refused_data(pcb);
1284:Middlewares/Third_Party/LwIP/src/core/tcp.c ****         if (tcp_active_pcbs_changed) {
1285:Middlewares/Third_Party/LwIP/src/core/tcp.c ****           /* application callback has changed the pcb list: restart the loop */
1286:Middlewares/Third_Party/LwIP/src/core/tcp.c ****           goto tcp_fasttmr_start;
1287:Middlewares/Third_Party/LwIP/src/core/tcp.c ****         }
1288:Middlewares/Third_Party/LwIP/src/core/tcp.c ****       }
1289:Middlewares/Third_Party/LwIP/src/core/tcp.c ****       pcb = next;
1290:Middlewares/Third_Party/LwIP/src/core/tcp.c ****     } else {
1291:Middlewares/Third_Party/LwIP/src/core/tcp.c ****       pcb = pcb->next;
1292:Middlewares/Third_Party/LwIP/src/core/tcp.c ****     }
1293:Middlewares/Third_Party/LwIP/src/core/tcp.c ****   }
1294:Middlewares/Third_Party/LwIP/src/core/tcp.c **** }
1295:Middlewares/Third_Party/LwIP/src/core/tcp.c **** 
1296:Middlewares/Third_Party/LwIP/src/core/tcp.c **** /** Call tcp_output for all active pcbs that have TF_NAGLEMEMERR set */
1297:Middlewares/Third_Party/LwIP/src/core/tcp.c **** void
1298:Middlewares/Third_Party/LwIP/src/core/tcp.c **** tcp_txnow(void)
1299:Middlewares/Third_Party/LwIP/src/core/tcp.c **** {
 997              		.loc 1 1299 0
 998              		.cfi_startproc
 999              		@ args = 0, pretend = 0, frame = 0
 1000              		@ frame_needed = 0, uses_anonymous_args = 0
 1001 0000 10B5     		push	{r4, lr}
 1002              	.LCFI10:
 1003              		.cfi_def_cfa_offset 8
 1004              		.cfi_offset 4, -8
 1005              		.cfi_offset 14, -4
1300:Middlewares/Third_Party/LwIP/src/core/tcp.c ****   struct tcp_pcb *pcb;
1301:Middlewares/Third_Party/LwIP/src/core/tcp.c **** 
1302:Middlewares/Third_Party/LwIP/src/core/tcp.c ****   for (pcb = tcp_active_pcbs; pcb != NULL; pcb = pcb->next) {
 1006              		.loc 1 1302 0
 1007 0002 074B     		ldr	r3, .L127
 1008 0004 1C68     		ldr	r4, [r3]
 1009              	.LVL116:
 1010 0006 00E0     		b	.L122
 1011              	.L123:
 1012              		.loc 1 1302 0 is_stmt 0 discriminator 2
 1013 0008 E468     		ldr	r4, [r4, #12]
 1014              	.LVL117:
 1015              	.L122:
 1016              		.loc 1 1302 0 discriminator 1
 1017 000a 3CB1     		cbz	r4, .L126
1303:Middlewares/Third_Party/LwIP/src/core/tcp.c ****     if (pcb->flags & TF_NAGLEMEMERR) {
 1018              		.loc 1 1303 0 is_stmt 1
 1019 000c 94F91A30 		ldrsb	r3, [r4, #26]
 1020 0010 002B     		cmp	r3, #0
 1021 0012 F9DA     		bge	.L123
1304:Middlewares/Third_Party/LwIP/src/core/tcp.c ****       tcp_output(pcb);
 1022              		.loc 1 1304 0
 1023 0014 2046     		mov	r0, r4
 1024 0016 FFF7FEFF 		bl	tcp_output
 1025              	.LVL118:
 1026 001a F5E7     		b	.L123
 1027              	.L126:
1305:Middlewares/Third_Party/LwIP/src/core/tcp.c ****     }
ARM GAS  /var/folders/0d/93p3r6493yg7p0rvl_4r983m0000gn/T//ccIusu9n.s 			page 44


1306:Middlewares/Third_Party/LwIP/src/core/tcp.c ****   }
1307:Middlewares/Third_Party/LwIP/src/core/tcp.c **** }
 1028              		.loc 1 1307 0
 1029 001c 10BD     		pop	{r4, pc}
 1030              	.LVL119:
 1031              	.L128:
 1032 001e 00BF     		.align	2
 1033              	.L127:
 1034 0020 00000000 		.word	tcp_active_pcbs
 1035              		.cfi_endproc
 1036              	.LFE162:
 1038              		.section	.text.tcp_seg_free,"ax",%progbits
 1039              		.align	1
 1040              		.global	tcp_seg_free
 1041              		.syntax unified
 1042              		.thumb
 1043              		.thumb_func
 1044              		.fpu fpv4-sp-d16
 1046              	tcp_seg_free:
 1047              	.LFB165:
1308:Middlewares/Third_Party/LwIP/src/core/tcp.c **** 
1309:Middlewares/Third_Party/LwIP/src/core/tcp.c **** /** Pass pcb->refused_data to the recv callback */
1310:Middlewares/Third_Party/LwIP/src/core/tcp.c **** err_t
1311:Middlewares/Third_Party/LwIP/src/core/tcp.c **** tcp_process_refused_data(struct tcp_pcb *pcb)
1312:Middlewares/Third_Party/LwIP/src/core/tcp.c **** {
1313:Middlewares/Third_Party/LwIP/src/core/tcp.c **** #if TCP_QUEUE_OOSEQ && LWIP_WND_SCALE
1314:Middlewares/Third_Party/LwIP/src/core/tcp.c ****   struct pbuf *rest;
1315:Middlewares/Third_Party/LwIP/src/core/tcp.c ****   while (pcb->refused_data != NULL)
1316:Middlewares/Third_Party/LwIP/src/core/tcp.c **** #endif /* TCP_QUEUE_OOSEQ && LWIP_WND_SCALE */
1317:Middlewares/Third_Party/LwIP/src/core/tcp.c ****   {
1318:Middlewares/Third_Party/LwIP/src/core/tcp.c ****     err_t err;
1319:Middlewares/Third_Party/LwIP/src/core/tcp.c ****     u8_t refused_flags = pcb->refused_data->flags;
1320:Middlewares/Third_Party/LwIP/src/core/tcp.c ****     /* set pcb->refused_data to NULL in case the callback frees it and then
1321:Middlewares/Third_Party/LwIP/src/core/tcp.c ****        closes the pcb */
1322:Middlewares/Third_Party/LwIP/src/core/tcp.c ****     struct pbuf *refused_data = pcb->refused_data;
1323:Middlewares/Third_Party/LwIP/src/core/tcp.c **** #if TCP_QUEUE_OOSEQ && LWIP_WND_SCALE
1324:Middlewares/Third_Party/LwIP/src/core/tcp.c ****     pbuf_split_64k(refused_data, &rest);
1325:Middlewares/Third_Party/LwIP/src/core/tcp.c ****     pcb->refused_data = rest;
1326:Middlewares/Third_Party/LwIP/src/core/tcp.c **** #else /* TCP_QUEUE_OOSEQ && LWIP_WND_SCALE */
1327:Middlewares/Third_Party/LwIP/src/core/tcp.c ****     pcb->refused_data = NULL;
1328:Middlewares/Third_Party/LwIP/src/core/tcp.c **** #endif /* TCP_QUEUE_OOSEQ && LWIP_WND_SCALE */
1329:Middlewares/Third_Party/LwIP/src/core/tcp.c ****     /* Notify again application with data previously received. */
1330:Middlewares/Third_Party/LwIP/src/core/tcp.c ****     LWIP_DEBUGF(TCP_INPUT_DEBUG, ("tcp_input: notify kept packet\n"));
1331:Middlewares/Third_Party/LwIP/src/core/tcp.c ****     TCP_EVENT_RECV(pcb, refused_data, ERR_OK, err);
1332:Middlewares/Third_Party/LwIP/src/core/tcp.c ****     if (err == ERR_OK) {
1333:Middlewares/Third_Party/LwIP/src/core/tcp.c ****       /* did refused_data include a FIN? */
1334:Middlewares/Third_Party/LwIP/src/core/tcp.c ****       if (refused_flags & PBUF_FLAG_TCP_FIN
1335:Middlewares/Third_Party/LwIP/src/core/tcp.c **** #if TCP_QUEUE_OOSEQ && LWIP_WND_SCALE
1336:Middlewares/Third_Party/LwIP/src/core/tcp.c ****           && (rest == NULL)
1337:Middlewares/Third_Party/LwIP/src/core/tcp.c **** #endif /* TCP_QUEUE_OOSEQ && LWIP_WND_SCALE */
1338:Middlewares/Third_Party/LwIP/src/core/tcp.c ****          ) {
1339:Middlewares/Third_Party/LwIP/src/core/tcp.c ****         /* correct rcv_wnd as the application won't call tcp_recved()
1340:Middlewares/Third_Party/LwIP/src/core/tcp.c ****            for the FIN's seqno */
1341:Middlewares/Third_Party/LwIP/src/core/tcp.c ****         if (pcb->rcv_wnd != TCP_WND_MAX(pcb)) {
1342:Middlewares/Third_Party/LwIP/src/core/tcp.c ****           pcb->rcv_wnd++;
1343:Middlewares/Third_Party/LwIP/src/core/tcp.c ****         }
1344:Middlewares/Third_Party/LwIP/src/core/tcp.c ****         TCP_EVENT_CLOSED(pcb, err);
ARM GAS  /var/folders/0d/93p3r6493yg7p0rvl_4r983m0000gn/T//ccIusu9n.s 			page 45


1345:Middlewares/Third_Party/LwIP/src/core/tcp.c ****         if (err == ERR_ABRT) {
1346:Middlewares/Third_Party/LwIP/src/core/tcp.c ****           return ERR_ABRT;
1347:Middlewares/Third_Party/LwIP/src/core/tcp.c ****         }
1348:Middlewares/Third_Party/LwIP/src/core/tcp.c ****       }
1349:Middlewares/Third_Party/LwIP/src/core/tcp.c ****     } else if (err == ERR_ABRT) {
1350:Middlewares/Third_Party/LwIP/src/core/tcp.c ****       /* if err == ERR_ABRT, 'pcb' is already deallocated */
1351:Middlewares/Third_Party/LwIP/src/core/tcp.c ****       /* Drop incoming packets because pcb is "full" (only if the incoming
1352:Middlewares/Third_Party/LwIP/src/core/tcp.c ****          segment contains data). */
1353:Middlewares/Third_Party/LwIP/src/core/tcp.c ****       LWIP_DEBUGF(TCP_INPUT_DEBUG, ("tcp_input: drop incoming packets, because pcb is \"full\"\n"))
1354:Middlewares/Third_Party/LwIP/src/core/tcp.c ****       return ERR_ABRT;
1355:Middlewares/Third_Party/LwIP/src/core/tcp.c ****     } else {
1356:Middlewares/Third_Party/LwIP/src/core/tcp.c ****       /* data is still refused, pbuf is still valid (go on for ACK-only packets) */
1357:Middlewares/Third_Party/LwIP/src/core/tcp.c **** #if TCP_QUEUE_OOSEQ && LWIP_WND_SCALE
1358:Middlewares/Third_Party/LwIP/src/core/tcp.c ****       if (rest != NULL) {
1359:Middlewares/Third_Party/LwIP/src/core/tcp.c ****         pbuf_cat(refused_data, rest);
1360:Middlewares/Third_Party/LwIP/src/core/tcp.c ****       }
1361:Middlewares/Third_Party/LwIP/src/core/tcp.c **** #endif /* TCP_QUEUE_OOSEQ && LWIP_WND_SCALE */
1362:Middlewares/Third_Party/LwIP/src/core/tcp.c ****       pcb->refused_data = refused_data;
1363:Middlewares/Third_Party/LwIP/src/core/tcp.c ****       return ERR_INPROGRESS;
1364:Middlewares/Third_Party/LwIP/src/core/tcp.c ****     }
1365:Middlewares/Third_Party/LwIP/src/core/tcp.c ****   }
1366:Middlewares/Third_Party/LwIP/src/core/tcp.c ****   return ERR_OK;
1367:Middlewares/Third_Party/LwIP/src/core/tcp.c **** }
1368:Middlewares/Third_Party/LwIP/src/core/tcp.c **** 
1369:Middlewares/Third_Party/LwIP/src/core/tcp.c **** /**
1370:Middlewares/Third_Party/LwIP/src/core/tcp.c ****  * Deallocates a list of TCP segments (tcp_seg structures).
1371:Middlewares/Third_Party/LwIP/src/core/tcp.c ****  *
1372:Middlewares/Third_Party/LwIP/src/core/tcp.c ****  * @param seg tcp_seg list of TCP segments to free
1373:Middlewares/Third_Party/LwIP/src/core/tcp.c ****  */
1374:Middlewares/Third_Party/LwIP/src/core/tcp.c **** void
1375:Middlewares/Third_Party/LwIP/src/core/tcp.c **** tcp_segs_free(struct tcp_seg *seg)
1376:Middlewares/Third_Party/LwIP/src/core/tcp.c **** {
1377:Middlewares/Third_Party/LwIP/src/core/tcp.c ****   while (seg != NULL) {
1378:Middlewares/Third_Party/LwIP/src/core/tcp.c ****     struct tcp_seg *next = seg->next;
1379:Middlewares/Third_Party/LwIP/src/core/tcp.c ****     tcp_seg_free(seg);
1380:Middlewares/Third_Party/LwIP/src/core/tcp.c ****     seg = next;
1381:Middlewares/Third_Party/LwIP/src/core/tcp.c ****   }
1382:Middlewares/Third_Party/LwIP/src/core/tcp.c **** }
1383:Middlewares/Third_Party/LwIP/src/core/tcp.c **** 
1384:Middlewares/Third_Party/LwIP/src/core/tcp.c **** /**
1385:Middlewares/Third_Party/LwIP/src/core/tcp.c ****  * Frees a TCP segment (tcp_seg structure).
1386:Middlewares/Third_Party/LwIP/src/core/tcp.c ****  *
1387:Middlewares/Third_Party/LwIP/src/core/tcp.c ****  * @param seg single tcp_seg to free
1388:Middlewares/Third_Party/LwIP/src/core/tcp.c ****  */
1389:Middlewares/Third_Party/LwIP/src/core/tcp.c **** void
1390:Middlewares/Third_Party/LwIP/src/core/tcp.c **** tcp_seg_free(struct tcp_seg *seg)
1391:Middlewares/Third_Party/LwIP/src/core/tcp.c **** {
 1048              		.loc 1 1391 0
 1049              		.cfi_startproc
 1050              		@ args = 0, pretend = 0, frame = 0
 1051              		@ frame_needed = 0, uses_anonymous_args = 0
 1052              	.LVL120:
1392:Middlewares/Third_Party/LwIP/src/core/tcp.c ****   if (seg != NULL) {
 1053              		.loc 1 1392 0
 1054 0000 50B1     		cbz	r0, .L133
1391:Middlewares/Third_Party/LwIP/src/core/tcp.c ****   if (seg != NULL) {
 1055              		.loc 1 1391 0
ARM GAS  /var/folders/0d/93p3r6493yg7p0rvl_4r983m0000gn/T//ccIusu9n.s 			page 46


 1056 0002 10B5     		push	{r4, lr}
 1057              	.LCFI11:
 1058              		.cfi_def_cfa_offset 8
 1059              		.cfi_offset 4, -8
 1060              		.cfi_offset 14, -4
 1061 0004 0446     		mov	r4, r0
1393:Middlewares/Third_Party/LwIP/src/core/tcp.c ****     if (seg->p != NULL) {
 1062              		.loc 1 1393 0
 1063 0006 4068     		ldr	r0, [r0, #4]
 1064              	.LVL121:
 1065 0008 08B1     		cbz	r0, .L131
1394:Middlewares/Third_Party/LwIP/src/core/tcp.c ****       pbuf_free(seg->p);
 1066              		.loc 1 1394 0
 1067 000a FFF7FEFF 		bl	pbuf_free
 1068              	.LVL122:
 1069              	.L131:
1395:Middlewares/Third_Party/LwIP/src/core/tcp.c **** #if TCP_DEBUG
1396:Middlewares/Third_Party/LwIP/src/core/tcp.c ****       seg->p = NULL;
1397:Middlewares/Third_Party/LwIP/src/core/tcp.c **** #endif /* TCP_DEBUG */
1398:Middlewares/Third_Party/LwIP/src/core/tcp.c ****     }
1399:Middlewares/Third_Party/LwIP/src/core/tcp.c ****     memp_free(MEMP_TCP_SEG, seg);
 1070              		.loc 1 1399 0
 1071 000e 2146     		mov	r1, r4
 1072 0010 0320     		movs	r0, #3
 1073 0012 FFF7FEFF 		bl	memp_free
 1074              	.LVL123:
1400:Middlewares/Third_Party/LwIP/src/core/tcp.c ****   }
1401:Middlewares/Third_Party/LwIP/src/core/tcp.c **** }
 1075              		.loc 1 1401 0
 1076 0016 10BD     		pop	{r4, pc}
 1077              	.LVL124:
 1078              	.L133:
 1079              	.LCFI12:
 1080              		.cfi_def_cfa_offset 0
 1081              		.cfi_restore 4
 1082              		.cfi_restore 14
 1083 0018 7047     		bx	lr
 1084              		.cfi_endproc
 1085              	.LFE165:
 1087              		.section	.text.tcp_segs_free,"ax",%progbits
 1088              		.align	1
 1089              		.global	tcp_segs_free
 1090              		.syntax unified
 1091              		.thumb
 1092              		.thumb_func
 1093              		.fpu fpv4-sp-d16
 1095              	tcp_segs_free:
 1096              	.LFB164:
1376:Middlewares/Third_Party/LwIP/src/core/tcp.c ****   while (seg != NULL) {
 1097              		.loc 1 1376 0
 1098              		.cfi_startproc
 1099              		@ args = 0, pretend = 0, frame = 0
 1100              		@ frame_needed = 0, uses_anonymous_args = 0
 1101              	.LVL125:
1377:Middlewares/Third_Party/LwIP/src/core/tcp.c ****     struct tcp_seg *next = seg->next;
 1102              		.loc 1 1377 0
 1103 0000 38B1     		cbz	r0, .L142
ARM GAS  /var/folders/0d/93p3r6493yg7p0rvl_4r983m0000gn/T//ccIusu9n.s 			page 47


1376:Middlewares/Third_Party/LwIP/src/core/tcp.c ****   while (seg != NULL) {
 1104              		.loc 1 1376 0
 1105 0002 10B5     		push	{r4, lr}
 1106              	.LCFI13:
 1107              		.cfi_def_cfa_offset 8
 1108              		.cfi_offset 4, -8
 1109              		.cfi_offset 14, -4
 1110              	.L138:
 1111              	.LBB6:
1378:Middlewares/Third_Party/LwIP/src/core/tcp.c ****     tcp_seg_free(seg);
 1112              		.loc 1 1378 0
 1113 0004 0468     		ldr	r4, [r0]
 1114              	.LVL126:
1379:Middlewares/Third_Party/LwIP/src/core/tcp.c ****     seg = next;
 1115              		.loc 1 1379 0
 1116 0006 FFF7FEFF 		bl	tcp_seg_free
 1117              	.LVL127:
1380:Middlewares/Third_Party/LwIP/src/core/tcp.c ****   }
 1118              		.loc 1 1380 0
 1119 000a 2046     		mov	r0, r4
 1120              	.LBE6:
1377:Middlewares/Third_Party/LwIP/src/core/tcp.c ****     struct tcp_seg *next = seg->next;
 1121              		.loc 1 1377 0
 1122 000c 002C     		cmp	r4, #0
 1123 000e F9D1     		bne	.L138
1382:Middlewares/Third_Party/LwIP/src/core/tcp.c **** 
 1124              		.loc 1 1382 0
 1125 0010 10BD     		pop	{r4, pc}
 1126              	.LVL128:
 1127              	.L142:
 1128              	.LCFI14:
 1129              		.cfi_def_cfa_offset 0
 1130              		.cfi_restore 4
 1131              		.cfi_restore 14
 1132 0012 7047     		bx	lr
 1133              		.cfi_endproc
 1134              	.LFE164:
 1136              		.section	.text.tcp_setprio,"ax",%progbits
 1137              		.align	1
 1138              		.global	tcp_setprio
 1139              		.syntax unified
 1140              		.thumb
 1141              		.thumb_func
 1142              		.fpu fpv4-sp-d16
 1144              	tcp_setprio:
 1145              	.LFB166:
1402:Middlewares/Third_Party/LwIP/src/core/tcp.c **** 
1403:Middlewares/Third_Party/LwIP/src/core/tcp.c **** /**
1404:Middlewares/Third_Party/LwIP/src/core/tcp.c ****  * Sets the priority of a connection.
1405:Middlewares/Third_Party/LwIP/src/core/tcp.c ****  *
1406:Middlewares/Third_Party/LwIP/src/core/tcp.c ****  * @param pcb the tcp_pcb to manipulate
1407:Middlewares/Third_Party/LwIP/src/core/tcp.c ****  * @param prio new priority
1408:Middlewares/Third_Party/LwIP/src/core/tcp.c ****  */
1409:Middlewares/Third_Party/LwIP/src/core/tcp.c **** void
1410:Middlewares/Third_Party/LwIP/src/core/tcp.c **** tcp_setprio(struct tcp_pcb *pcb, u8_t prio)
1411:Middlewares/Third_Party/LwIP/src/core/tcp.c **** {
 1146              		.loc 1 1411 0
ARM GAS  /var/folders/0d/93p3r6493yg7p0rvl_4r983m0000gn/T//ccIusu9n.s 			page 48


 1147              		.cfi_startproc
 1148              		@ args = 0, pretend = 0, frame = 0
 1149              		@ frame_needed = 0, uses_anonymous_args = 0
 1150              		@ link register save eliminated.
 1151              	.LVL129:
1412:Middlewares/Third_Party/LwIP/src/core/tcp.c ****   pcb->prio = prio;
 1152              		.loc 1 1412 0
 1153 0000 4175     		strb	r1, [r0, #21]
1413:Middlewares/Third_Party/LwIP/src/core/tcp.c **** }
 1154              		.loc 1 1413 0
 1155 0002 7047     		bx	lr
 1156              		.cfi_endproc
 1157              	.LFE166:
 1159              		.section	.text.tcp_seg_copy,"ax",%progbits
 1160              		.align	1
 1161              		.global	tcp_seg_copy
 1162              		.syntax unified
 1163              		.thumb
 1164              		.thumb_func
 1165              		.fpu fpv4-sp-d16
 1167              	tcp_seg_copy:
 1168              	.LFB167:
1414:Middlewares/Third_Party/LwIP/src/core/tcp.c **** 
1415:Middlewares/Third_Party/LwIP/src/core/tcp.c **** #if TCP_QUEUE_OOSEQ
1416:Middlewares/Third_Party/LwIP/src/core/tcp.c **** /**
1417:Middlewares/Third_Party/LwIP/src/core/tcp.c ****  * Returns a copy of the given TCP segment.
1418:Middlewares/Third_Party/LwIP/src/core/tcp.c ****  * The pbuf and data are not copied, only the pointers
1419:Middlewares/Third_Party/LwIP/src/core/tcp.c ****  *
1420:Middlewares/Third_Party/LwIP/src/core/tcp.c ****  * @param seg the old tcp_seg
1421:Middlewares/Third_Party/LwIP/src/core/tcp.c ****  * @return a copy of seg
1422:Middlewares/Third_Party/LwIP/src/core/tcp.c ****  */
1423:Middlewares/Third_Party/LwIP/src/core/tcp.c **** struct tcp_seg *
1424:Middlewares/Third_Party/LwIP/src/core/tcp.c **** tcp_seg_copy(struct tcp_seg *seg)
1425:Middlewares/Third_Party/LwIP/src/core/tcp.c **** {
 1169              		.loc 1 1425 0
 1170              		.cfi_startproc
 1171              		@ args = 0, pretend = 0, frame = 0
 1172              		@ frame_needed = 0, uses_anonymous_args = 0
 1173              	.LVL130:
 1174 0000 38B5     		push	{r3, r4, r5, lr}
 1175              	.LCFI15:
 1176              		.cfi_def_cfa_offset 16
 1177              		.cfi_offset 3, -16
 1178              		.cfi_offset 4, -12
 1179              		.cfi_offset 5, -8
 1180              		.cfi_offset 14, -4
 1181 0002 0546     		mov	r5, r0
1426:Middlewares/Third_Party/LwIP/src/core/tcp.c ****   struct tcp_seg *cseg;
1427:Middlewares/Third_Party/LwIP/src/core/tcp.c **** 
1428:Middlewares/Third_Party/LwIP/src/core/tcp.c ****   cseg = (struct tcp_seg *)memp_malloc(MEMP_TCP_SEG);
 1182              		.loc 1 1428 0
 1183 0004 0320     		movs	r0, #3
 1184              	.LVL131:
 1185 0006 FFF7FEFF 		bl	memp_malloc
 1186              	.LVL132:
1429:Middlewares/Third_Party/LwIP/src/core/tcp.c ****   if (cseg == NULL) {
 1187              		.loc 1 1429 0
ARM GAS  /var/folders/0d/93p3r6493yg7p0rvl_4r983m0000gn/T//ccIusu9n.s 			page 49


 1188 000a 0446     		mov	r4, r0
 1189 000c 50B1     		cbz	r0, .L144
1430:Middlewares/Third_Party/LwIP/src/core/tcp.c ****     return NULL;
1431:Middlewares/Third_Party/LwIP/src/core/tcp.c ****   }
1432:Middlewares/Third_Party/LwIP/src/core/tcp.c ****   SMEMCPY((u8_t *)cseg, (const u8_t *)seg, sizeof(struct tcp_seg));
 1190              		.loc 1 1432 0
 1191 000e 2868     		ldr	r0, [r5]	@ unaligned
 1192              	.LVL133:
 1193 0010 6968     		ldr	r1, [r5, #4]	@ unaligned
 1194 0012 AA68     		ldr	r2, [r5, #8]	@ unaligned
 1195 0014 EB68     		ldr	r3, [r5, #12]	@ unaligned
 1196 0016 2060     		str	r0, [r4]	@ unaligned
 1197 0018 6160     		str	r1, [r4, #4]	@ unaligned
 1198 001a A260     		str	r2, [r4, #8]	@ unaligned
 1199 001c E360     		str	r3, [r4, #12]	@ unaligned
1433:Middlewares/Third_Party/LwIP/src/core/tcp.c ****   pbuf_ref(cseg->p);
 1200              		.loc 1 1433 0
 1201 001e 6068     		ldr	r0, [r4, #4]
 1202 0020 FFF7FEFF 		bl	pbuf_ref
 1203              	.LVL134:
 1204              	.L144:
1434:Middlewares/Third_Party/LwIP/src/core/tcp.c ****   return cseg;
1435:Middlewares/Third_Party/LwIP/src/core/tcp.c **** }
 1205              		.loc 1 1435 0
 1206 0024 2046     		mov	r0, r4
 1207 0026 38BD     		pop	{r3, r4, r5, pc}
 1208              		.cfi_endproc
 1209              	.LFE167:
 1211              		.section	.text.tcp_arg,"ax",%progbits
 1212              		.align	1
 1213              		.global	tcp_arg
 1214              		.syntax unified
 1215              		.thumb
 1216              		.thumb_func
 1217              		.fpu fpv4-sp-d16
 1219              	tcp_arg:
 1220              	.LFB175:
1436:Middlewares/Third_Party/LwIP/src/core/tcp.c **** #endif /* TCP_QUEUE_OOSEQ */
1437:Middlewares/Third_Party/LwIP/src/core/tcp.c **** 
1438:Middlewares/Third_Party/LwIP/src/core/tcp.c **** #if LWIP_CALLBACK_API
1439:Middlewares/Third_Party/LwIP/src/core/tcp.c **** /**
1440:Middlewares/Third_Party/LwIP/src/core/tcp.c ****  * Default receive callback that is called if the user didn't register
1441:Middlewares/Third_Party/LwIP/src/core/tcp.c ****  * a recv callback for the pcb.
1442:Middlewares/Third_Party/LwIP/src/core/tcp.c ****  */
1443:Middlewares/Third_Party/LwIP/src/core/tcp.c **** err_t
1444:Middlewares/Third_Party/LwIP/src/core/tcp.c **** tcp_recv_null(void *arg, struct tcp_pcb *pcb, struct pbuf *p, err_t err)
1445:Middlewares/Third_Party/LwIP/src/core/tcp.c **** {
1446:Middlewares/Third_Party/LwIP/src/core/tcp.c ****   LWIP_UNUSED_ARG(arg);
1447:Middlewares/Third_Party/LwIP/src/core/tcp.c ****   if (p != NULL) {
1448:Middlewares/Third_Party/LwIP/src/core/tcp.c ****     tcp_recved(pcb, p->tot_len);
1449:Middlewares/Third_Party/LwIP/src/core/tcp.c ****     pbuf_free(p);
1450:Middlewares/Third_Party/LwIP/src/core/tcp.c ****   } else if (err == ERR_OK) {
1451:Middlewares/Third_Party/LwIP/src/core/tcp.c ****     return tcp_close(pcb);
1452:Middlewares/Third_Party/LwIP/src/core/tcp.c ****   }
1453:Middlewares/Third_Party/LwIP/src/core/tcp.c ****   return ERR_OK;
1454:Middlewares/Third_Party/LwIP/src/core/tcp.c **** }
1455:Middlewares/Third_Party/LwIP/src/core/tcp.c **** #endif /* LWIP_CALLBACK_API */
ARM GAS  /var/folders/0d/93p3r6493yg7p0rvl_4r983m0000gn/T//ccIusu9n.s 			page 50


1456:Middlewares/Third_Party/LwIP/src/core/tcp.c **** 
1457:Middlewares/Third_Party/LwIP/src/core/tcp.c **** /**
1458:Middlewares/Third_Party/LwIP/src/core/tcp.c ****  * Kills the oldest active connection that has the same or lower priority than
1459:Middlewares/Third_Party/LwIP/src/core/tcp.c ****  * 'prio'.
1460:Middlewares/Third_Party/LwIP/src/core/tcp.c ****  *
1461:Middlewares/Third_Party/LwIP/src/core/tcp.c ****  * @param prio minimum priority
1462:Middlewares/Third_Party/LwIP/src/core/tcp.c ****  */
1463:Middlewares/Third_Party/LwIP/src/core/tcp.c **** static void
1464:Middlewares/Third_Party/LwIP/src/core/tcp.c **** tcp_kill_prio(u8_t prio)
1465:Middlewares/Third_Party/LwIP/src/core/tcp.c **** {
1466:Middlewares/Third_Party/LwIP/src/core/tcp.c ****   struct tcp_pcb *pcb, *inactive;
1467:Middlewares/Third_Party/LwIP/src/core/tcp.c ****   u32_t inactivity;
1468:Middlewares/Third_Party/LwIP/src/core/tcp.c ****   u8_t mprio;
1469:Middlewares/Third_Party/LwIP/src/core/tcp.c **** 
1470:Middlewares/Third_Party/LwIP/src/core/tcp.c ****   mprio = LWIP_MIN(TCP_PRIO_MAX, prio);
1471:Middlewares/Third_Party/LwIP/src/core/tcp.c **** 
1472:Middlewares/Third_Party/LwIP/src/core/tcp.c ****   /* We kill the oldest active connection that has lower priority than prio. */
1473:Middlewares/Third_Party/LwIP/src/core/tcp.c ****   inactivity = 0;
1474:Middlewares/Third_Party/LwIP/src/core/tcp.c ****   inactive = NULL;
1475:Middlewares/Third_Party/LwIP/src/core/tcp.c ****   for (pcb = tcp_active_pcbs; pcb != NULL; pcb = pcb->next) {
1476:Middlewares/Third_Party/LwIP/src/core/tcp.c ****     if (pcb->prio <= mprio &&
1477:Middlewares/Third_Party/LwIP/src/core/tcp.c ****        (u32_t)(tcp_ticks - pcb->tmr) >= inactivity) {
1478:Middlewares/Third_Party/LwIP/src/core/tcp.c ****       inactivity = tcp_ticks - pcb->tmr;
1479:Middlewares/Third_Party/LwIP/src/core/tcp.c ****       inactive = pcb;
1480:Middlewares/Third_Party/LwIP/src/core/tcp.c ****       mprio = pcb->prio;
1481:Middlewares/Third_Party/LwIP/src/core/tcp.c ****     }
1482:Middlewares/Third_Party/LwIP/src/core/tcp.c ****   }
1483:Middlewares/Third_Party/LwIP/src/core/tcp.c ****   if (inactive != NULL) {
1484:Middlewares/Third_Party/LwIP/src/core/tcp.c ****     LWIP_DEBUGF(TCP_DEBUG, ("tcp_kill_prio: killing oldest PCB %p (%"S32_F")\n",
1485:Middlewares/Third_Party/LwIP/src/core/tcp.c ****            (void *)inactive, inactivity));
1486:Middlewares/Third_Party/LwIP/src/core/tcp.c ****     tcp_abort(inactive);
1487:Middlewares/Third_Party/LwIP/src/core/tcp.c ****   }
1488:Middlewares/Third_Party/LwIP/src/core/tcp.c **** }
1489:Middlewares/Third_Party/LwIP/src/core/tcp.c **** 
1490:Middlewares/Third_Party/LwIP/src/core/tcp.c **** /**
1491:Middlewares/Third_Party/LwIP/src/core/tcp.c ****  * Kills the oldest connection that is in specific state.
1492:Middlewares/Third_Party/LwIP/src/core/tcp.c ****  * Called from tcp_alloc() for LAST_ACK and CLOSING if no more connections are available.
1493:Middlewares/Third_Party/LwIP/src/core/tcp.c ****  */
1494:Middlewares/Third_Party/LwIP/src/core/tcp.c **** static void
1495:Middlewares/Third_Party/LwIP/src/core/tcp.c **** tcp_kill_state(enum tcp_state state)
1496:Middlewares/Third_Party/LwIP/src/core/tcp.c **** {
1497:Middlewares/Third_Party/LwIP/src/core/tcp.c ****   struct tcp_pcb *pcb, *inactive;
1498:Middlewares/Third_Party/LwIP/src/core/tcp.c ****   u32_t inactivity;
1499:Middlewares/Third_Party/LwIP/src/core/tcp.c **** 
1500:Middlewares/Third_Party/LwIP/src/core/tcp.c ****   LWIP_ASSERT("invalid state", (state == CLOSING) || (state == LAST_ACK));
1501:Middlewares/Third_Party/LwIP/src/core/tcp.c **** 
1502:Middlewares/Third_Party/LwIP/src/core/tcp.c ****   inactivity = 0;
1503:Middlewares/Third_Party/LwIP/src/core/tcp.c ****   inactive = NULL;
1504:Middlewares/Third_Party/LwIP/src/core/tcp.c ****   /* Go through the list of active pcbs and get the oldest pcb that is in state
1505:Middlewares/Third_Party/LwIP/src/core/tcp.c ****      CLOSING/LAST_ACK. */
1506:Middlewares/Third_Party/LwIP/src/core/tcp.c ****   for (pcb = tcp_active_pcbs; pcb != NULL; pcb = pcb->next) {
1507:Middlewares/Third_Party/LwIP/src/core/tcp.c ****     if (pcb->state == state) {
1508:Middlewares/Third_Party/LwIP/src/core/tcp.c ****       if ((u32_t)(tcp_ticks - pcb->tmr) >= inactivity) {
1509:Middlewares/Third_Party/LwIP/src/core/tcp.c ****         inactivity = tcp_ticks - pcb->tmr;
1510:Middlewares/Third_Party/LwIP/src/core/tcp.c ****         inactive = pcb;
1511:Middlewares/Third_Party/LwIP/src/core/tcp.c ****       }
1512:Middlewares/Third_Party/LwIP/src/core/tcp.c ****     }
ARM GAS  /var/folders/0d/93p3r6493yg7p0rvl_4r983m0000gn/T//ccIusu9n.s 			page 51


1513:Middlewares/Third_Party/LwIP/src/core/tcp.c ****   }
1514:Middlewares/Third_Party/LwIP/src/core/tcp.c ****   if (inactive != NULL) {
1515:Middlewares/Third_Party/LwIP/src/core/tcp.c ****     LWIP_DEBUGF(TCP_DEBUG, ("tcp_kill_closing: killing oldest %s PCB %p (%"S32_F")\n",
1516:Middlewares/Third_Party/LwIP/src/core/tcp.c ****            tcp_state_str[state], (void *)inactive, inactivity));
1517:Middlewares/Third_Party/LwIP/src/core/tcp.c ****     /* Don't send a RST, since no data is lost. */
1518:Middlewares/Third_Party/LwIP/src/core/tcp.c ****     tcp_abandon(inactive, 0);
1519:Middlewares/Third_Party/LwIP/src/core/tcp.c ****   }
1520:Middlewares/Third_Party/LwIP/src/core/tcp.c **** }
1521:Middlewares/Third_Party/LwIP/src/core/tcp.c **** 
1522:Middlewares/Third_Party/LwIP/src/core/tcp.c **** /**
1523:Middlewares/Third_Party/LwIP/src/core/tcp.c ****  * Kills the oldest connection that is in TIME_WAIT state.
1524:Middlewares/Third_Party/LwIP/src/core/tcp.c ****  * Called from tcp_alloc() if no more connections are available.
1525:Middlewares/Third_Party/LwIP/src/core/tcp.c ****  */
1526:Middlewares/Third_Party/LwIP/src/core/tcp.c **** static void
1527:Middlewares/Third_Party/LwIP/src/core/tcp.c **** tcp_kill_timewait(void)
1528:Middlewares/Third_Party/LwIP/src/core/tcp.c **** {
1529:Middlewares/Third_Party/LwIP/src/core/tcp.c ****   struct tcp_pcb *pcb, *inactive;
1530:Middlewares/Third_Party/LwIP/src/core/tcp.c ****   u32_t inactivity;
1531:Middlewares/Third_Party/LwIP/src/core/tcp.c **** 
1532:Middlewares/Third_Party/LwIP/src/core/tcp.c ****   inactivity = 0;
1533:Middlewares/Third_Party/LwIP/src/core/tcp.c ****   inactive = NULL;
1534:Middlewares/Third_Party/LwIP/src/core/tcp.c ****   /* Go through the list of TIME_WAIT pcbs and get the oldest pcb. */
1535:Middlewares/Third_Party/LwIP/src/core/tcp.c ****   for (pcb = tcp_tw_pcbs; pcb != NULL; pcb = pcb->next) {
1536:Middlewares/Third_Party/LwIP/src/core/tcp.c ****     if ((u32_t)(tcp_ticks - pcb->tmr) >= inactivity) {
1537:Middlewares/Third_Party/LwIP/src/core/tcp.c ****       inactivity = tcp_ticks - pcb->tmr;
1538:Middlewares/Third_Party/LwIP/src/core/tcp.c ****       inactive = pcb;
1539:Middlewares/Third_Party/LwIP/src/core/tcp.c ****     }
1540:Middlewares/Third_Party/LwIP/src/core/tcp.c ****   }
1541:Middlewares/Third_Party/LwIP/src/core/tcp.c ****   if (inactive != NULL) {
1542:Middlewares/Third_Party/LwIP/src/core/tcp.c ****     LWIP_DEBUGF(TCP_DEBUG, ("tcp_kill_timewait: killing oldest TIME-WAIT PCB %p (%"S32_F")\n",
1543:Middlewares/Third_Party/LwIP/src/core/tcp.c ****            (void *)inactive, inactivity));
1544:Middlewares/Third_Party/LwIP/src/core/tcp.c ****     tcp_abort(inactive);
1545:Middlewares/Third_Party/LwIP/src/core/tcp.c ****   }
1546:Middlewares/Third_Party/LwIP/src/core/tcp.c **** }
1547:Middlewares/Third_Party/LwIP/src/core/tcp.c **** 
1548:Middlewares/Third_Party/LwIP/src/core/tcp.c **** /**
1549:Middlewares/Third_Party/LwIP/src/core/tcp.c ****  * Allocate a new tcp_pcb structure.
1550:Middlewares/Third_Party/LwIP/src/core/tcp.c ****  *
1551:Middlewares/Third_Party/LwIP/src/core/tcp.c ****  * @param prio priority for the new pcb
1552:Middlewares/Third_Party/LwIP/src/core/tcp.c ****  * @return a new tcp_pcb that initially is in state CLOSED
1553:Middlewares/Third_Party/LwIP/src/core/tcp.c ****  */
1554:Middlewares/Third_Party/LwIP/src/core/tcp.c **** struct tcp_pcb *
1555:Middlewares/Third_Party/LwIP/src/core/tcp.c **** tcp_alloc(u8_t prio)
1556:Middlewares/Third_Party/LwIP/src/core/tcp.c **** {
1557:Middlewares/Third_Party/LwIP/src/core/tcp.c ****   struct tcp_pcb *pcb;
1558:Middlewares/Third_Party/LwIP/src/core/tcp.c **** 
1559:Middlewares/Third_Party/LwIP/src/core/tcp.c ****   pcb = (struct tcp_pcb *)memp_malloc(MEMP_TCP_PCB);
1560:Middlewares/Third_Party/LwIP/src/core/tcp.c ****   if (pcb == NULL) {
1561:Middlewares/Third_Party/LwIP/src/core/tcp.c ****     /* Try killing oldest connection in TIME-WAIT. */
1562:Middlewares/Third_Party/LwIP/src/core/tcp.c ****     LWIP_DEBUGF(TCP_DEBUG, ("tcp_alloc: killing off oldest TIME-WAIT connection\n"));
1563:Middlewares/Third_Party/LwIP/src/core/tcp.c ****     tcp_kill_timewait();
1564:Middlewares/Third_Party/LwIP/src/core/tcp.c ****     /* Try to allocate a tcp_pcb again. */
1565:Middlewares/Third_Party/LwIP/src/core/tcp.c ****     pcb = (struct tcp_pcb *)memp_malloc(MEMP_TCP_PCB);
1566:Middlewares/Third_Party/LwIP/src/core/tcp.c ****     if (pcb == NULL) {
1567:Middlewares/Third_Party/LwIP/src/core/tcp.c ****       /* Try killing oldest connection in LAST-ACK (these wouldn't go to TIME-WAIT). */
1568:Middlewares/Third_Party/LwIP/src/core/tcp.c ****       LWIP_DEBUGF(TCP_DEBUG, ("tcp_alloc: killing off oldest LAST-ACK connection\n"));
1569:Middlewares/Third_Party/LwIP/src/core/tcp.c ****       tcp_kill_state(LAST_ACK);
ARM GAS  /var/folders/0d/93p3r6493yg7p0rvl_4r983m0000gn/T//ccIusu9n.s 			page 52


1570:Middlewares/Third_Party/LwIP/src/core/tcp.c ****       /* Try to allocate a tcp_pcb again. */
1571:Middlewares/Third_Party/LwIP/src/core/tcp.c ****       pcb = (struct tcp_pcb *)memp_malloc(MEMP_TCP_PCB);
1572:Middlewares/Third_Party/LwIP/src/core/tcp.c ****       if (pcb == NULL) {
1573:Middlewares/Third_Party/LwIP/src/core/tcp.c ****         /* Try killing oldest connection in CLOSING. */
1574:Middlewares/Third_Party/LwIP/src/core/tcp.c ****         LWIP_DEBUGF(TCP_DEBUG, ("tcp_alloc: killing off oldest CLOSING connection\n"));
1575:Middlewares/Third_Party/LwIP/src/core/tcp.c ****         tcp_kill_state(CLOSING);
1576:Middlewares/Third_Party/LwIP/src/core/tcp.c ****         /* Try to allocate a tcp_pcb again. */
1577:Middlewares/Third_Party/LwIP/src/core/tcp.c ****         pcb = (struct tcp_pcb *)memp_malloc(MEMP_TCP_PCB);
1578:Middlewares/Third_Party/LwIP/src/core/tcp.c ****         if (pcb == NULL) {
1579:Middlewares/Third_Party/LwIP/src/core/tcp.c ****           /* Try killing active connections with lower priority than the new one. */
1580:Middlewares/Third_Party/LwIP/src/core/tcp.c ****           LWIP_DEBUGF(TCP_DEBUG, ("tcp_alloc: killing connection with prio lower than %d\n", prio))
1581:Middlewares/Third_Party/LwIP/src/core/tcp.c ****           tcp_kill_prio(prio);
1582:Middlewares/Third_Party/LwIP/src/core/tcp.c ****           /* Try to allocate a tcp_pcb again. */
1583:Middlewares/Third_Party/LwIP/src/core/tcp.c ****           pcb = (struct tcp_pcb *)memp_malloc(MEMP_TCP_PCB);
1584:Middlewares/Third_Party/LwIP/src/core/tcp.c ****           if (pcb != NULL) {
1585:Middlewares/Third_Party/LwIP/src/core/tcp.c ****             /* adjust err stats: memp_malloc failed multiple times before */
1586:Middlewares/Third_Party/LwIP/src/core/tcp.c ****             MEMP_STATS_DEC(err, MEMP_TCP_PCB);
1587:Middlewares/Third_Party/LwIP/src/core/tcp.c ****           }
1588:Middlewares/Third_Party/LwIP/src/core/tcp.c ****         }
1589:Middlewares/Third_Party/LwIP/src/core/tcp.c ****         if (pcb != NULL) {
1590:Middlewares/Third_Party/LwIP/src/core/tcp.c ****           /* adjust err stats: memp_malloc failed multiple times before */
1591:Middlewares/Third_Party/LwIP/src/core/tcp.c ****           MEMP_STATS_DEC(err, MEMP_TCP_PCB);
1592:Middlewares/Third_Party/LwIP/src/core/tcp.c ****         }
1593:Middlewares/Third_Party/LwIP/src/core/tcp.c ****       }
1594:Middlewares/Third_Party/LwIP/src/core/tcp.c ****       if (pcb != NULL) {
1595:Middlewares/Third_Party/LwIP/src/core/tcp.c ****         /* adjust err stats: memp_malloc failed multiple times before */
1596:Middlewares/Third_Party/LwIP/src/core/tcp.c ****         MEMP_STATS_DEC(err, MEMP_TCP_PCB);
1597:Middlewares/Third_Party/LwIP/src/core/tcp.c ****       }
1598:Middlewares/Third_Party/LwIP/src/core/tcp.c ****     }
1599:Middlewares/Third_Party/LwIP/src/core/tcp.c ****     if (pcb != NULL) {
1600:Middlewares/Third_Party/LwIP/src/core/tcp.c ****       /* adjust err stats: memp_malloc failed above */
1601:Middlewares/Third_Party/LwIP/src/core/tcp.c ****       MEMP_STATS_DEC(err, MEMP_TCP_PCB);
1602:Middlewares/Third_Party/LwIP/src/core/tcp.c ****     }
1603:Middlewares/Third_Party/LwIP/src/core/tcp.c ****   }
1604:Middlewares/Third_Party/LwIP/src/core/tcp.c ****   if (pcb != NULL) {
1605:Middlewares/Third_Party/LwIP/src/core/tcp.c ****     /* zero out the whole pcb, so there is no need to initialize members to zero */
1606:Middlewares/Third_Party/LwIP/src/core/tcp.c ****     memset(pcb, 0, sizeof(struct tcp_pcb));
1607:Middlewares/Third_Party/LwIP/src/core/tcp.c ****     pcb->prio = prio;
1608:Middlewares/Third_Party/LwIP/src/core/tcp.c ****     pcb->snd_buf = TCP_SND_BUF;
1609:Middlewares/Third_Party/LwIP/src/core/tcp.c ****     /* Start with a window that does not need scaling. When window scaling is
1610:Middlewares/Third_Party/LwIP/src/core/tcp.c ****        enabled and used, the window is enlarged when both sides agree on scaling. */
1611:Middlewares/Third_Party/LwIP/src/core/tcp.c ****     pcb->rcv_wnd = pcb->rcv_ann_wnd = TCPWND_MIN16(TCP_WND);
1612:Middlewares/Third_Party/LwIP/src/core/tcp.c ****     pcb->ttl = TCP_TTL;
1613:Middlewares/Third_Party/LwIP/src/core/tcp.c ****     /* As initial send MSS, we use TCP_MSS but limit it to 536.
1614:Middlewares/Third_Party/LwIP/src/core/tcp.c ****        The send MSS is updated when an MSS option is received. */
1615:Middlewares/Third_Party/LwIP/src/core/tcp.c ****     pcb->mss = INITIAL_MSS;
1616:Middlewares/Third_Party/LwIP/src/core/tcp.c ****     pcb->rto = 3000 / TCP_SLOW_INTERVAL;
1617:Middlewares/Third_Party/LwIP/src/core/tcp.c ****     pcb->sv = 3000 / TCP_SLOW_INTERVAL;
1618:Middlewares/Third_Party/LwIP/src/core/tcp.c ****     pcb->rtime = -1;
1619:Middlewares/Third_Party/LwIP/src/core/tcp.c ****     pcb->cwnd = 1;
1620:Middlewares/Third_Party/LwIP/src/core/tcp.c ****     pcb->tmr = tcp_ticks;
1621:Middlewares/Third_Party/LwIP/src/core/tcp.c ****     pcb->last_timer = tcp_timer_ctr;
1622:Middlewares/Third_Party/LwIP/src/core/tcp.c **** 
1623:Middlewares/Third_Party/LwIP/src/core/tcp.c ****     /* RFC 5681 recommends setting ssthresh abritrarily high and gives an example
1624:Middlewares/Third_Party/LwIP/src/core/tcp.c ****     of using the largest advertised receive window.  We've seen complications with
1625:Middlewares/Third_Party/LwIP/src/core/tcp.c ****     receiving TCPs that use window scaling and/or window auto-tuning where the
1626:Middlewares/Third_Party/LwIP/src/core/tcp.c ****     initial advertised window is very small and then grows rapidly once the
ARM GAS  /var/folders/0d/93p3r6493yg7p0rvl_4r983m0000gn/T//ccIusu9n.s 			page 53


1627:Middlewares/Third_Party/LwIP/src/core/tcp.c ****     connection is established. To avoid these complications, we set ssthresh to the
1628:Middlewares/Third_Party/LwIP/src/core/tcp.c ****     largest effective cwnd (amount of in-flight data) that the sender can have. */
1629:Middlewares/Third_Party/LwIP/src/core/tcp.c ****     pcb->ssthresh = TCP_SND_BUF;
1630:Middlewares/Third_Party/LwIP/src/core/tcp.c **** 
1631:Middlewares/Third_Party/LwIP/src/core/tcp.c **** #if LWIP_CALLBACK_API
1632:Middlewares/Third_Party/LwIP/src/core/tcp.c ****     pcb->recv = tcp_recv_null;
1633:Middlewares/Third_Party/LwIP/src/core/tcp.c **** #endif /* LWIP_CALLBACK_API */
1634:Middlewares/Third_Party/LwIP/src/core/tcp.c **** 
1635:Middlewares/Third_Party/LwIP/src/core/tcp.c ****     /* Init KEEPALIVE timer */
1636:Middlewares/Third_Party/LwIP/src/core/tcp.c ****     pcb->keep_idle  = TCP_KEEPIDLE_DEFAULT;
1637:Middlewares/Third_Party/LwIP/src/core/tcp.c **** 
1638:Middlewares/Third_Party/LwIP/src/core/tcp.c **** #if LWIP_TCP_KEEPALIVE
1639:Middlewares/Third_Party/LwIP/src/core/tcp.c ****     pcb->keep_intvl = TCP_KEEPINTVL_DEFAULT;
1640:Middlewares/Third_Party/LwIP/src/core/tcp.c ****     pcb->keep_cnt   = TCP_KEEPCNT_DEFAULT;
1641:Middlewares/Third_Party/LwIP/src/core/tcp.c **** #endif /* LWIP_TCP_KEEPALIVE */
1642:Middlewares/Third_Party/LwIP/src/core/tcp.c ****   }
1643:Middlewares/Third_Party/LwIP/src/core/tcp.c ****   return pcb;
1644:Middlewares/Third_Party/LwIP/src/core/tcp.c **** }
1645:Middlewares/Third_Party/LwIP/src/core/tcp.c **** 
1646:Middlewares/Third_Party/LwIP/src/core/tcp.c **** /**
1647:Middlewares/Third_Party/LwIP/src/core/tcp.c ****  * @ingroup tcp_raw
1648:Middlewares/Third_Party/LwIP/src/core/tcp.c ****  * Creates a new TCP protocol control block but doesn't place it on
1649:Middlewares/Third_Party/LwIP/src/core/tcp.c ****  * any of the TCP PCB lists.
1650:Middlewares/Third_Party/LwIP/src/core/tcp.c ****  * The pcb is not put on any list until binding using tcp_bind().
1651:Middlewares/Third_Party/LwIP/src/core/tcp.c ****  *
1652:Middlewares/Third_Party/LwIP/src/core/tcp.c ****  * @internal: Maybe there should be a idle TCP PCB list where these
1653:Middlewares/Third_Party/LwIP/src/core/tcp.c ****  * PCBs are put on. Port reservation using tcp_bind() is implemented but
1654:Middlewares/Third_Party/LwIP/src/core/tcp.c ****  * allocated pcbs that are not bound can't be killed automatically if wanting
1655:Middlewares/Third_Party/LwIP/src/core/tcp.c ****  * to allocate a pcb with higher prio (@see tcp_kill_prio())
1656:Middlewares/Third_Party/LwIP/src/core/tcp.c ****  *
1657:Middlewares/Third_Party/LwIP/src/core/tcp.c ****  * @return a new tcp_pcb that initially is in state CLOSED
1658:Middlewares/Third_Party/LwIP/src/core/tcp.c ****  */
1659:Middlewares/Third_Party/LwIP/src/core/tcp.c **** struct tcp_pcb *
1660:Middlewares/Third_Party/LwIP/src/core/tcp.c **** tcp_new(void)
1661:Middlewares/Third_Party/LwIP/src/core/tcp.c **** {
1662:Middlewares/Third_Party/LwIP/src/core/tcp.c ****   return tcp_alloc(TCP_PRIO_NORMAL);
1663:Middlewares/Third_Party/LwIP/src/core/tcp.c **** }
1664:Middlewares/Third_Party/LwIP/src/core/tcp.c **** 
1665:Middlewares/Third_Party/LwIP/src/core/tcp.c **** /**
1666:Middlewares/Third_Party/LwIP/src/core/tcp.c ****  * @ingroup tcp_raw
1667:Middlewares/Third_Party/LwIP/src/core/tcp.c ****  * Creates a new TCP protocol control block but doesn't
1668:Middlewares/Third_Party/LwIP/src/core/tcp.c ****  * place it on any of the TCP PCB lists.
1669:Middlewares/Third_Party/LwIP/src/core/tcp.c ****  * The pcb is not put on any list until binding using tcp_bind().
1670:Middlewares/Third_Party/LwIP/src/core/tcp.c ****  *
1671:Middlewares/Third_Party/LwIP/src/core/tcp.c ****  * @param type IP address type, see @ref lwip_ip_addr_type definitions.
1672:Middlewares/Third_Party/LwIP/src/core/tcp.c ****  * If you want to listen to IPv4 and IPv6 (dual-stack) connections,
1673:Middlewares/Third_Party/LwIP/src/core/tcp.c ****  * supply @ref IPADDR_TYPE_ANY as argument and bind to @ref IP_ANY_TYPE.
1674:Middlewares/Third_Party/LwIP/src/core/tcp.c ****  * @return a new tcp_pcb that initially is in state CLOSED
1675:Middlewares/Third_Party/LwIP/src/core/tcp.c ****  */
1676:Middlewares/Third_Party/LwIP/src/core/tcp.c **** struct tcp_pcb *
1677:Middlewares/Third_Party/LwIP/src/core/tcp.c **** tcp_new_ip_type(u8_t type)
1678:Middlewares/Third_Party/LwIP/src/core/tcp.c **** {
1679:Middlewares/Third_Party/LwIP/src/core/tcp.c ****   struct tcp_pcb * pcb;
1680:Middlewares/Third_Party/LwIP/src/core/tcp.c ****   pcb = tcp_alloc(TCP_PRIO_NORMAL);
1681:Middlewares/Third_Party/LwIP/src/core/tcp.c **** #if LWIP_IPV4 && LWIP_IPV6
1682:Middlewares/Third_Party/LwIP/src/core/tcp.c ****   if (pcb != NULL) {
1683:Middlewares/Third_Party/LwIP/src/core/tcp.c ****     IP_SET_TYPE_VAL(pcb->local_ip, type);
ARM GAS  /var/folders/0d/93p3r6493yg7p0rvl_4r983m0000gn/T//ccIusu9n.s 			page 54


1684:Middlewares/Third_Party/LwIP/src/core/tcp.c ****     IP_SET_TYPE_VAL(pcb->remote_ip, type);
1685:Middlewares/Third_Party/LwIP/src/core/tcp.c ****   }
1686:Middlewares/Third_Party/LwIP/src/core/tcp.c **** #else
1687:Middlewares/Third_Party/LwIP/src/core/tcp.c ****   LWIP_UNUSED_ARG(type);
1688:Middlewares/Third_Party/LwIP/src/core/tcp.c **** #endif /* LWIP_IPV4 && LWIP_IPV6 */
1689:Middlewares/Third_Party/LwIP/src/core/tcp.c ****   return pcb;
1690:Middlewares/Third_Party/LwIP/src/core/tcp.c **** }
1691:Middlewares/Third_Party/LwIP/src/core/tcp.c **** 
1692:Middlewares/Third_Party/LwIP/src/core/tcp.c **** /**
1693:Middlewares/Third_Party/LwIP/src/core/tcp.c ****  * @ingroup tcp_raw
1694:Middlewares/Third_Party/LwIP/src/core/tcp.c ****  * Used to specify the argument that should be passed callback
1695:Middlewares/Third_Party/LwIP/src/core/tcp.c ****  * functions.
1696:Middlewares/Third_Party/LwIP/src/core/tcp.c ****  *
1697:Middlewares/Third_Party/LwIP/src/core/tcp.c ****  * @param pcb tcp_pcb to set the callback argument
1698:Middlewares/Third_Party/LwIP/src/core/tcp.c ****  * @param arg void pointer argument to pass to callback functions
1699:Middlewares/Third_Party/LwIP/src/core/tcp.c ****  */
1700:Middlewares/Third_Party/LwIP/src/core/tcp.c **** void
1701:Middlewares/Third_Party/LwIP/src/core/tcp.c **** tcp_arg(struct tcp_pcb *pcb, void *arg)
1702:Middlewares/Third_Party/LwIP/src/core/tcp.c **** {
 1221              		.loc 1 1702 0
 1222              		.cfi_startproc
 1223              		@ args = 0, pretend = 0, frame = 0
 1224              		@ frame_needed = 0, uses_anonymous_args = 0
 1225              		@ link register save eliminated.
 1226              	.LVL135:
1703:Middlewares/Third_Party/LwIP/src/core/tcp.c ****   /* This function is allowed to be called for both listen pcbs and
1704:Middlewares/Third_Party/LwIP/src/core/tcp.c ****      connection pcbs. */
1705:Middlewares/Third_Party/LwIP/src/core/tcp.c ****   if (pcb != NULL) {
 1227              		.loc 1 1705 0
 1228 0000 00B1     		cbz	r0, .L147
1706:Middlewares/Third_Party/LwIP/src/core/tcp.c ****     pcb->callback_arg = arg;
 1229              		.loc 1 1706 0
 1230 0002 0161     		str	r1, [r0, #16]
 1231              	.L147:
1707:Middlewares/Third_Party/LwIP/src/core/tcp.c ****   }
1708:Middlewares/Third_Party/LwIP/src/core/tcp.c **** }
 1232              		.loc 1 1708 0
 1233 0004 7047     		bx	lr
 1234              		.cfi_endproc
 1235              	.LFE175:
 1237              		.section	.text.tcp_recv,"ax",%progbits
 1238              		.align	1
 1239              		.global	tcp_recv
 1240              		.syntax unified
 1241              		.thumb
 1242              		.thumb_func
 1243              		.fpu fpv4-sp-d16
 1245              	tcp_recv:
 1246              	.LFB176:
1709:Middlewares/Third_Party/LwIP/src/core/tcp.c **** #if LWIP_CALLBACK_API
1710:Middlewares/Third_Party/LwIP/src/core/tcp.c **** 
1711:Middlewares/Third_Party/LwIP/src/core/tcp.c **** /**
1712:Middlewares/Third_Party/LwIP/src/core/tcp.c ****  * @ingroup tcp_raw
1713:Middlewares/Third_Party/LwIP/src/core/tcp.c ****  * Used to specify the function that should be called when a TCP
1714:Middlewares/Third_Party/LwIP/src/core/tcp.c ****  * connection receives data.
1715:Middlewares/Third_Party/LwIP/src/core/tcp.c ****  *
1716:Middlewares/Third_Party/LwIP/src/core/tcp.c ****  * @param pcb tcp_pcb to set the recv callback
ARM GAS  /var/folders/0d/93p3r6493yg7p0rvl_4r983m0000gn/T//ccIusu9n.s 			page 55


1717:Middlewares/Third_Party/LwIP/src/core/tcp.c ****  * @param recv callback function to call for this pcb when data is received
1718:Middlewares/Third_Party/LwIP/src/core/tcp.c ****  */
1719:Middlewares/Third_Party/LwIP/src/core/tcp.c **** void
1720:Middlewares/Third_Party/LwIP/src/core/tcp.c **** tcp_recv(struct tcp_pcb *pcb, tcp_recv_fn recv)
1721:Middlewares/Third_Party/LwIP/src/core/tcp.c **** {
 1247              		.loc 1 1721 0
 1248              		.cfi_startproc
 1249              		@ args = 0, pretend = 0, frame = 0
 1250              		@ frame_needed = 0, uses_anonymous_args = 0
 1251              	.LVL136:
1722:Middlewares/Third_Party/LwIP/src/core/tcp.c ****   if (pcb != NULL) {
 1252              		.loc 1 1722 0
 1253 0000 80B1     		cbz	r0, .L153
1721:Middlewares/Third_Party/LwIP/src/core/tcp.c ****   if (pcb != NULL) {
 1254              		.loc 1 1721 0
 1255 0002 38B5     		push	{r3, r4, r5, lr}
 1256              	.LCFI16:
 1257              		.cfi_def_cfa_offset 16
 1258              		.cfi_offset 3, -16
 1259              		.cfi_offset 4, -12
 1260              		.cfi_offset 5, -8
 1261              		.cfi_offset 14, -4
 1262 0004 0446     		mov	r4, r0
 1263 0006 0D46     		mov	r5, r1
1723:Middlewares/Third_Party/LwIP/src/core/tcp.c ****     LWIP_ASSERT("invalid socket state for recv callback", pcb->state != LISTEN);
 1264              		.loc 1 1723 0
 1265 0008 037D     		ldrb	r3, [r0, #20]	@ zero_extendqisi2
 1266 000a 012B     		cmp	r3, #1
 1267 000c 02D0     		beq	.L156
 1268              	.LVL137:
 1269              	.L151:
1724:Middlewares/Third_Party/LwIP/src/core/tcp.c ****     pcb->recv = recv;
 1270              		.loc 1 1724 0
 1271 000e C4F88050 		str	r5, [r4, #128]
1725:Middlewares/Third_Party/LwIP/src/core/tcp.c ****   }
1726:Middlewares/Third_Party/LwIP/src/core/tcp.c **** }
 1272              		.loc 1 1726 0
 1273 0012 38BD     		pop	{r3, r4, r5, pc}
 1274              	.LVL138:
 1275              	.L156:
1723:Middlewares/Third_Party/LwIP/src/core/tcp.c ****     pcb->recv = recv;
 1276              		.loc 1 1723 0 discriminator 1
 1277 0014 044B     		ldr	r3, .L157
 1278 0016 40F2BB62 		movw	r2, #1723
 1279 001a 0449     		ldr	r1, .L157+4
 1280              	.LVL139:
 1281 001c 0448     		ldr	r0, .L157+8
 1282              	.LVL140:
 1283 001e FFF7FEFF 		bl	printf
 1284              	.LVL141:
 1285 0022 F4E7     		b	.L151
 1286              	.LVL142:
 1287              	.L153:
 1288              	.LCFI17:
 1289              		.cfi_def_cfa_offset 0
 1290              		.cfi_restore 3
 1291              		.cfi_restore 4
ARM GAS  /var/folders/0d/93p3r6493yg7p0rvl_4r983m0000gn/T//ccIusu9n.s 			page 56


 1292              		.cfi_restore 5
 1293              		.cfi_restore 14
 1294 0024 7047     		bx	lr
 1295              	.L158:
 1296 0026 00BF     		.align	2
 1297              	.L157:
 1298 0028 00000000 		.word	.LC0
 1299 002c 00000000 		.word	.LC9
 1300 0030 38000000 		.word	.LC2
 1301              		.cfi_endproc
 1302              	.LFE176:
 1304              		.section	.text.tcp_sent,"ax",%progbits
 1305              		.align	1
 1306              		.global	tcp_sent
 1307              		.syntax unified
 1308              		.thumb
 1309              		.thumb_func
 1310              		.fpu fpv4-sp-d16
 1312              	tcp_sent:
 1313              	.LFB177:
1727:Middlewares/Third_Party/LwIP/src/core/tcp.c **** 
1728:Middlewares/Third_Party/LwIP/src/core/tcp.c **** /**
1729:Middlewares/Third_Party/LwIP/src/core/tcp.c ****  * @ingroup tcp_raw
1730:Middlewares/Third_Party/LwIP/src/core/tcp.c ****  * Used to specify the function that should be called when TCP data
1731:Middlewares/Third_Party/LwIP/src/core/tcp.c ****  * has been successfully delivered to the remote host.
1732:Middlewares/Third_Party/LwIP/src/core/tcp.c ****  *
1733:Middlewares/Third_Party/LwIP/src/core/tcp.c ****  * @param pcb tcp_pcb to set the sent callback
1734:Middlewares/Third_Party/LwIP/src/core/tcp.c ****  * @param sent callback function to call for this pcb when data is successfully sent
1735:Middlewares/Third_Party/LwIP/src/core/tcp.c ****  */
1736:Middlewares/Third_Party/LwIP/src/core/tcp.c **** void
1737:Middlewares/Third_Party/LwIP/src/core/tcp.c **** tcp_sent(struct tcp_pcb *pcb, tcp_sent_fn sent)
1738:Middlewares/Third_Party/LwIP/src/core/tcp.c **** {
 1314              		.loc 1 1738 0
 1315              		.cfi_startproc
 1316              		@ args = 0, pretend = 0, frame = 0
 1317              		@ frame_needed = 0, uses_anonymous_args = 0
 1318              	.LVL143:
1739:Middlewares/Third_Party/LwIP/src/core/tcp.c ****   if (pcb != NULL) {
 1319              		.loc 1 1739 0
 1320 0000 78B1     		cbz	r0, .L163
1738:Middlewares/Third_Party/LwIP/src/core/tcp.c ****   if (pcb != NULL) {
 1321              		.loc 1 1738 0
 1322 0002 38B5     		push	{r3, r4, r5, lr}
 1323              	.LCFI18:
 1324              		.cfi_def_cfa_offset 16
 1325              		.cfi_offset 3, -16
 1326              		.cfi_offset 4, -12
 1327              		.cfi_offset 5, -8
 1328              		.cfi_offset 14, -4
 1329 0004 0446     		mov	r4, r0
 1330 0006 0D46     		mov	r5, r1
1740:Middlewares/Third_Party/LwIP/src/core/tcp.c ****     LWIP_ASSERT("invalid socket state for sent callback", pcb->state != LISTEN);
 1331              		.loc 1 1740 0
 1332 0008 037D     		ldrb	r3, [r0, #20]	@ zero_extendqisi2
 1333 000a 012B     		cmp	r3, #1
 1334 000c 01D0     		beq	.L166
 1335              	.LVL144:
ARM GAS  /var/folders/0d/93p3r6493yg7p0rvl_4r983m0000gn/T//ccIusu9n.s 			page 57


 1336              	.L161:
1741:Middlewares/Third_Party/LwIP/src/core/tcp.c ****     pcb->sent = sent;
 1337              		.loc 1 1741 0
 1338 000e E567     		str	r5, [r4, #124]
1742:Middlewares/Third_Party/LwIP/src/core/tcp.c ****   }
1743:Middlewares/Third_Party/LwIP/src/core/tcp.c **** }
 1339              		.loc 1 1743 0
 1340 0010 38BD     		pop	{r3, r4, r5, pc}
 1341              	.LVL145:
 1342              	.L166:
1740:Middlewares/Third_Party/LwIP/src/core/tcp.c ****     pcb->sent = sent;
 1343              		.loc 1 1740 0 discriminator 1
 1344 0012 044B     		ldr	r3, .L167
 1345 0014 40F2CC62 		movw	r2, #1740
 1346 0018 0349     		ldr	r1, .L167+4
 1347              	.LVL146:
 1348 001a 0448     		ldr	r0, .L167+8
 1349              	.LVL147:
 1350 001c FFF7FEFF 		bl	printf
 1351              	.LVL148:
 1352 0020 F5E7     		b	.L161
 1353              	.LVL149:
 1354              	.L163:
 1355              	.LCFI19:
 1356              		.cfi_def_cfa_offset 0
 1357              		.cfi_restore 3
 1358              		.cfi_restore 4
 1359              		.cfi_restore 5
 1360              		.cfi_restore 14
 1361 0022 7047     		bx	lr
 1362              	.L168:
 1363              		.align	2
 1364              	.L167:
 1365 0024 00000000 		.word	.LC0
 1366 0028 00000000 		.word	.LC10
 1367 002c 38000000 		.word	.LC2
 1368              		.cfi_endproc
 1369              	.LFE177:
 1371              		.section	.text.tcp_err,"ax",%progbits
 1372              		.align	1
 1373              		.global	tcp_err
 1374              		.syntax unified
 1375              		.thumb
 1376              		.thumb_func
 1377              		.fpu fpv4-sp-d16
 1379              	tcp_err:
 1380              	.LFB178:
1744:Middlewares/Third_Party/LwIP/src/core/tcp.c **** 
1745:Middlewares/Third_Party/LwIP/src/core/tcp.c **** /**
1746:Middlewares/Third_Party/LwIP/src/core/tcp.c ****  * @ingroup tcp_raw
1747:Middlewares/Third_Party/LwIP/src/core/tcp.c ****  * Used to specify the function that should be called when a fatal error
1748:Middlewares/Third_Party/LwIP/src/core/tcp.c ****  * has occurred on the connection.
1749:Middlewares/Third_Party/LwIP/src/core/tcp.c ****  *
1750:Middlewares/Third_Party/LwIP/src/core/tcp.c ****  * @note The corresponding pcb is already freed when this callback is called!
1751:Middlewares/Third_Party/LwIP/src/core/tcp.c ****  * 
1752:Middlewares/Third_Party/LwIP/src/core/tcp.c ****  * @param pcb tcp_pcb to set the err callback
1753:Middlewares/Third_Party/LwIP/src/core/tcp.c ****  * @param err callback function to call for this pcb when a fatal error
ARM GAS  /var/folders/0d/93p3r6493yg7p0rvl_4r983m0000gn/T//ccIusu9n.s 			page 58


1754:Middlewares/Third_Party/LwIP/src/core/tcp.c ****  *        has occurred on the connection
1755:Middlewares/Third_Party/LwIP/src/core/tcp.c ****  */
1756:Middlewares/Third_Party/LwIP/src/core/tcp.c **** void
1757:Middlewares/Third_Party/LwIP/src/core/tcp.c **** tcp_err(struct tcp_pcb *pcb, tcp_err_fn err)
1758:Middlewares/Third_Party/LwIP/src/core/tcp.c **** {
 1381              		.loc 1 1758 0
 1382              		.cfi_startproc
 1383              		@ args = 0, pretend = 0, frame = 0
 1384              		@ frame_needed = 0, uses_anonymous_args = 0
 1385              	.LVL150:
1759:Middlewares/Third_Party/LwIP/src/core/tcp.c ****   if (pcb != NULL) {
 1386              		.loc 1 1759 0
 1387 0000 80B1     		cbz	r0, .L173
1758:Middlewares/Third_Party/LwIP/src/core/tcp.c ****   if (pcb != NULL) {
 1388              		.loc 1 1758 0
 1389 0002 38B5     		push	{r3, r4, r5, lr}
 1390              	.LCFI20:
 1391              		.cfi_def_cfa_offset 16
 1392              		.cfi_offset 3, -16
 1393              		.cfi_offset 4, -12
 1394              		.cfi_offset 5, -8
 1395              		.cfi_offset 14, -4
 1396 0004 0446     		mov	r4, r0
 1397 0006 0D46     		mov	r5, r1
1760:Middlewares/Third_Party/LwIP/src/core/tcp.c ****     LWIP_ASSERT("invalid socket state for err callback", pcb->state != LISTEN);
 1398              		.loc 1 1760 0
 1399 0008 037D     		ldrb	r3, [r0, #20]	@ zero_extendqisi2
 1400 000a 012B     		cmp	r3, #1
 1401 000c 02D0     		beq	.L176
 1402              	.LVL151:
 1403              	.L171:
1761:Middlewares/Third_Party/LwIP/src/core/tcp.c ****     pcb->errf = err;
 1404              		.loc 1 1761 0
 1405 000e C4F88C50 		str	r5, [r4, #140]
1762:Middlewares/Third_Party/LwIP/src/core/tcp.c ****   }
1763:Middlewares/Third_Party/LwIP/src/core/tcp.c **** }
 1406              		.loc 1 1763 0
 1407 0012 38BD     		pop	{r3, r4, r5, pc}
 1408              	.LVL152:
 1409              	.L176:
1760:Middlewares/Third_Party/LwIP/src/core/tcp.c ****     pcb->errf = err;
 1410              		.loc 1 1760 0 discriminator 1
 1411 0014 044B     		ldr	r3, .L177
 1412 0016 4FF4DC62 		mov	r2, #1760
 1413 001a 0449     		ldr	r1, .L177+4
 1414              	.LVL153:
 1415 001c 0448     		ldr	r0, .L177+8
 1416              	.LVL154:
 1417 001e FFF7FEFF 		bl	printf
 1418              	.LVL155:
 1419 0022 F4E7     		b	.L171
 1420              	.LVL156:
 1421              	.L173:
 1422              	.LCFI21:
 1423              		.cfi_def_cfa_offset 0
 1424              		.cfi_restore 3
 1425              		.cfi_restore 4
ARM GAS  /var/folders/0d/93p3r6493yg7p0rvl_4r983m0000gn/T//ccIusu9n.s 			page 59


 1426              		.cfi_restore 5
 1427              		.cfi_restore 14
 1428 0024 7047     		bx	lr
 1429              	.L178:
 1430 0026 00BF     		.align	2
 1431              	.L177:
 1432 0028 00000000 		.word	.LC0
 1433 002c 00000000 		.word	.LC11
 1434 0030 38000000 		.word	.LC2
 1435              		.cfi_endproc
 1436              	.LFE178:
 1438              		.section	.text.tcp_accept,"ax",%progbits
 1439              		.align	1
 1440              		.global	tcp_accept
 1441              		.syntax unified
 1442              		.thumb
 1443              		.thumb_func
 1444              		.fpu fpv4-sp-d16
 1446              	tcp_accept:
 1447              	.LFB179:
1764:Middlewares/Third_Party/LwIP/src/core/tcp.c **** 
1765:Middlewares/Third_Party/LwIP/src/core/tcp.c **** /**
1766:Middlewares/Third_Party/LwIP/src/core/tcp.c ****  * @ingroup tcp_raw
1767:Middlewares/Third_Party/LwIP/src/core/tcp.c ****  * Used for specifying the function that should be called when a
1768:Middlewares/Third_Party/LwIP/src/core/tcp.c ****  * LISTENing connection has been connected to another host.
1769:Middlewares/Third_Party/LwIP/src/core/tcp.c ****  *
1770:Middlewares/Third_Party/LwIP/src/core/tcp.c ****  * @param pcb tcp_pcb to set the accept callback
1771:Middlewares/Third_Party/LwIP/src/core/tcp.c ****  * @param accept callback function to call for this pcb when LISTENing
1772:Middlewares/Third_Party/LwIP/src/core/tcp.c ****  *        connection has been connected to another host
1773:Middlewares/Third_Party/LwIP/src/core/tcp.c ****  */
1774:Middlewares/Third_Party/LwIP/src/core/tcp.c **** void
1775:Middlewares/Third_Party/LwIP/src/core/tcp.c **** tcp_accept(struct tcp_pcb *pcb, tcp_accept_fn accept)
1776:Middlewares/Third_Party/LwIP/src/core/tcp.c **** {
 1448              		.loc 1 1776 0
 1449              		.cfi_startproc
 1450              		@ args = 0, pretend = 0, frame = 0
 1451              		@ frame_needed = 0, uses_anonymous_args = 0
 1452              		@ link register save eliminated.
 1453              	.LVL157:
1777:Middlewares/Third_Party/LwIP/src/core/tcp.c ****   if ((pcb != NULL) && (pcb->state == LISTEN)) {
 1454              		.loc 1 1777 0
 1455 0000 10B1     		cbz	r0, .L179
 1456              		.loc 1 1777 0 is_stmt 0 discriminator 1
 1457 0002 027D     		ldrb	r2, [r0, #20]	@ zero_extendqisi2
 1458 0004 012A     		cmp	r2, #1
 1459 0006 00D0     		beq	.L181
 1460              	.L179:
1778:Middlewares/Third_Party/LwIP/src/core/tcp.c ****     struct tcp_pcb_listen *lpcb = (struct tcp_pcb_listen*)pcb;
1779:Middlewares/Third_Party/LwIP/src/core/tcp.c ****     lpcb->accept = accept;
1780:Middlewares/Third_Party/LwIP/src/core/tcp.c ****   }
1781:Middlewares/Third_Party/LwIP/src/core/tcp.c **** }
 1461              		.loc 1 1781 0 is_stmt 1
 1462 0008 7047     		bx	lr
 1463              	.L181:
 1464              	.LVL158:
 1465              	.LBB7:
1779:Middlewares/Third_Party/LwIP/src/core/tcp.c ****   }
ARM GAS  /var/folders/0d/93p3r6493yg7p0rvl_4r983m0000gn/T//ccIusu9n.s 			page 60


 1466              		.loc 1 1779 0
 1467 000a 8161     		str	r1, [r0, #24]
 1468              	.LBE7:
 1469              		.loc 1 1781 0
 1470 000c FCE7     		b	.L179
 1471              		.cfi_endproc
 1472              	.LFE179:
 1474              		.section	.text.tcp_poll,"ax",%progbits
 1475              		.align	1
 1476              		.global	tcp_poll
 1477              		.syntax unified
 1478              		.thumb
 1479              		.thumb_func
 1480              		.fpu fpv4-sp-d16
 1482              	tcp_poll:
 1483              	.LFB180:
1782:Middlewares/Third_Party/LwIP/src/core/tcp.c **** #endif /* LWIP_CALLBACK_API */
1783:Middlewares/Third_Party/LwIP/src/core/tcp.c **** 
1784:Middlewares/Third_Party/LwIP/src/core/tcp.c **** 
1785:Middlewares/Third_Party/LwIP/src/core/tcp.c **** /**
1786:Middlewares/Third_Party/LwIP/src/core/tcp.c ****  * @ingroup tcp_raw
1787:Middlewares/Third_Party/LwIP/src/core/tcp.c ****  * Used to specify the function that should be called periodically
1788:Middlewares/Third_Party/LwIP/src/core/tcp.c ****  * from TCP. The interval is specified in terms of the TCP coarse
1789:Middlewares/Third_Party/LwIP/src/core/tcp.c ****  * timer interval, which is called twice a second.
1790:Middlewares/Third_Party/LwIP/src/core/tcp.c ****  *
1791:Middlewares/Third_Party/LwIP/src/core/tcp.c ****  */
1792:Middlewares/Third_Party/LwIP/src/core/tcp.c **** void
1793:Middlewares/Third_Party/LwIP/src/core/tcp.c **** tcp_poll(struct tcp_pcb *pcb, tcp_poll_fn poll, u8_t interval)
1794:Middlewares/Third_Party/LwIP/src/core/tcp.c **** {
 1484              		.loc 1 1794 0
 1485              		.cfi_startproc
 1486              		@ args = 0, pretend = 0, frame = 0
 1487              		@ frame_needed = 0, uses_anonymous_args = 0
 1488              	.LVL159:
 1489 0000 70B5     		push	{r4, r5, r6, lr}
 1490              	.LCFI22:
 1491              		.cfi_def_cfa_offset 16
 1492              		.cfi_offset 4, -16
 1493              		.cfi_offset 5, -12
 1494              		.cfi_offset 6, -8
 1495              		.cfi_offset 14, -4
 1496 0002 0446     		mov	r4, r0
 1497 0004 0E46     		mov	r6, r1
 1498 0006 1546     		mov	r5, r2
1795:Middlewares/Third_Party/LwIP/src/core/tcp.c ****   LWIP_ASSERT("invalid socket state for poll", pcb->state != LISTEN);
 1499              		.loc 1 1795 0
 1500 0008 037D     		ldrb	r3, [r0, #20]	@ zero_extendqisi2
 1501 000a 012B     		cmp	r3, #1
 1502 000c 03D0     		beq	.L185
 1503              	.LVL160:
 1504              	.L183:
1796:Middlewares/Third_Party/LwIP/src/core/tcp.c **** #if LWIP_CALLBACK_API
1797:Middlewares/Third_Party/LwIP/src/core/tcp.c ****   pcb->poll = poll;
 1505              		.loc 1 1797 0
 1506 000e C4F88860 		str	r6, [r4, #136]
1798:Middlewares/Third_Party/LwIP/src/core/tcp.c **** #else /* LWIP_CALLBACK_API */
1799:Middlewares/Third_Party/LwIP/src/core/tcp.c ****   LWIP_UNUSED_ARG(poll);
ARM GAS  /var/folders/0d/93p3r6493yg7p0rvl_4r983m0000gn/T//ccIusu9n.s 			page 61


1800:Middlewares/Third_Party/LwIP/src/core/tcp.c **** #endif /* LWIP_CALLBACK_API */
1801:Middlewares/Third_Party/LwIP/src/core/tcp.c ****   pcb->pollinterval = interval;
 1507              		.loc 1 1801 0
 1508 0012 2577     		strb	r5, [r4, #28]
1802:Middlewares/Third_Party/LwIP/src/core/tcp.c **** }
 1509              		.loc 1 1802 0
 1510 0014 70BD     		pop	{r4, r5, r6, pc}
 1511              	.LVL161:
 1512              	.L185:
1795:Middlewares/Third_Party/LwIP/src/core/tcp.c **** #if LWIP_CALLBACK_API
 1513              		.loc 1 1795 0 discriminator 1
 1514 0016 044B     		ldr	r3, .L186
 1515 0018 40F20372 		movw	r2, #1795
 1516              	.LVL162:
 1517 001c 0349     		ldr	r1, .L186+4
 1518              	.LVL163:
 1519 001e 0448     		ldr	r0, .L186+8
 1520              	.LVL164:
 1521 0020 FFF7FEFF 		bl	printf
 1522              	.LVL165:
 1523 0024 F3E7     		b	.L183
 1524              	.L187:
 1525 0026 00BF     		.align	2
 1526              	.L186:
 1527 0028 00000000 		.word	.LC0
 1528 002c 00000000 		.word	.LC12
 1529 0030 38000000 		.word	.LC2
 1530              		.cfi_endproc
 1531              	.LFE180:
 1533              		.section	.text.tcp_pcb_purge,"ax",%progbits
 1534              		.align	1
 1535              		.global	tcp_pcb_purge
 1536              		.syntax unified
 1537              		.thumb
 1538              		.thumb_func
 1539              		.fpu fpv4-sp-d16
 1541              	tcp_pcb_purge:
 1542              	.LFB181:
1803:Middlewares/Third_Party/LwIP/src/core/tcp.c **** 
1804:Middlewares/Third_Party/LwIP/src/core/tcp.c **** /**
1805:Middlewares/Third_Party/LwIP/src/core/tcp.c ****  * Purges a TCP PCB. Removes any buffered data and frees the buffer memory
1806:Middlewares/Third_Party/LwIP/src/core/tcp.c ****  * (pcb->ooseq, pcb->unsent and pcb->unacked are freed).
1807:Middlewares/Third_Party/LwIP/src/core/tcp.c ****  *
1808:Middlewares/Third_Party/LwIP/src/core/tcp.c ****  * @param pcb tcp_pcb to purge. The pcb itself is not deallocated!
1809:Middlewares/Third_Party/LwIP/src/core/tcp.c ****  */
1810:Middlewares/Third_Party/LwIP/src/core/tcp.c **** void
1811:Middlewares/Third_Party/LwIP/src/core/tcp.c **** tcp_pcb_purge(struct tcp_pcb *pcb)
1812:Middlewares/Third_Party/LwIP/src/core/tcp.c **** {
 1543              		.loc 1 1812 0
 1544              		.cfi_startproc
 1545              		@ args = 0, pretend = 0, frame = 0
 1546              		@ frame_needed = 0, uses_anonymous_args = 0
 1547              	.LVL166:
 1548 0000 38B5     		push	{r3, r4, r5, lr}
 1549              	.LCFI23:
 1550              		.cfi_def_cfa_offset 16
 1551              		.cfi_offset 3, -16
ARM GAS  /var/folders/0d/93p3r6493yg7p0rvl_4r983m0000gn/T//ccIusu9n.s 			page 62


 1552              		.cfi_offset 4, -12
 1553              		.cfi_offset 5, -8
 1554              		.cfi_offset 14, -4
1813:Middlewares/Third_Party/LwIP/src/core/tcp.c ****   if (pcb->state != CLOSED &&
 1555              		.loc 1 1813 0
 1556 0002 037D     		ldrb	r3, [r0, #20]	@ zero_extendqisi2
 1557 0004 E3B1     		cbz	r3, .L188
 1558              		.loc 1 1813 0 is_stmt 0 discriminator 1
 1559 0006 0A2B     		cmp	r3, #10
 1560 0008 1AD0     		beq	.L188
1814:Middlewares/Third_Party/LwIP/src/core/tcp.c ****      pcb->state != TIME_WAIT &&
 1561              		.loc 1 1814 0 is_stmt 1
 1562 000a 012B     		cmp	r3, #1
 1563 000c 18D0     		beq	.L188
 1564 000e 0446     		mov	r4, r0
1815:Middlewares/Third_Party/LwIP/src/core/tcp.c ****      pcb->state != LISTEN) {
1816:Middlewares/Third_Party/LwIP/src/core/tcp.c **** 
1817:Middlewares/Third_Party/LwIP/src/core/tcp.c ****     LWIP_DEBUGF(TCP_DEBUG, ("tcp_pcb_purge\n"));
1818:Middlewares/Third_Party/LwIP/src/core/tcp.c **** 
1819:Middlewares/Third_Party/LwIP/src/core/tcp.c ****     tcp_backlog_accepted(pcb);
1820:Middlewares/Third_Party/LwIP/src/core/tcp.c **** 
1821:Middlewares/Third_Party/LwIP/src/core/tcp.c ****     if (pcb->refused_data != NULL) {
 1565              		.loc 1 1821 0
 1566 0010 406F     		ldr	r0, [r0, #116]
 1567              	.LVL167:
 1568 0012 18B1     		cbz	r0, .L190
1822:Middlewares/Third_Party/LwIP/src/core/tcp.c ****       LWIP_DEBUGF(TCP_DEBUG, ("tcp_pcb_purge: data left on ->refused_data\n"));
1823:Middlewares/Third_Party/LwIP/src/core/tcp.c ****       pbuf_free(pcb->refused_data);
 1569              		.loc 1 1823 0
 1570 0014 FFF7FEFF 		bl	pbuf_free
 1571              	.LVL168:
1824:Middlewares/Third_Party/LwIP/src/core/tcp.c ****       pcb->refused_data = NULL;
 1572              		.loc 1 1824 0
 1573 0018 0023     		movs	r3, #0
 1574 001a 6367     		str	r3, [r4, #116]
 1575              	.L190:
1825:Middlewares/Third_Party/LwIP/src/core/tcp.c ****     }
1826:Middlewares/Third_Party/LwIP/src/core/tcp.c ****     if (pcb->unsent != NULL) {
1827:Middlewares/Third_Party/LwIP/src/core/tcp.c ****       LWIP_DEBUGF(TCP_DEBUG, ("tcp_pcb_purge: not all data sent\n"));
1828:Middlewares/Third_Party/LwIP/src/core/tcp.c ****     }
1829:Middlewares/Third_Party/LwIP/src/core/tcp.c ****     if (pcb->unacked != NULL) {
1830:Middlewares/Third_Party/LwIP/src/core/tcp.c ****       LWIP_DEBUGF(TCP_DEBUG, ("tcp_pcb_purge: data left on ->unacked\n"));
1831:Middlewares/Third_Party/LwIP/src/core/tcp.c ****     }
1832:Middlewares/Third_Party/LwIP/src/core/tcp.c **** #if TCP_QUEUE_OOSEQ
1833:Middlewares/Third_Party/LwIP/src/core/tcp.c ****     if (pcb->ooseq != NULL) {
1834:Middlewares/Third_Party/LwIP/src/core/tcp.c ****       LWIP_DEBUGF(TCP_DEBUG, ("tcp_pcb_purge: data left on ->ooseq\n"));
1835:Middlewares/Third_Party/LwIP/src/core/tcp.c ****     }
1836:Middlewares/Third_Party/LwIP/src/core/tcp.c ****     tcp_segs_free(pcb->ooseq);
 1576              		.loc 1 1836 0
 1577 001c 206F     		ldr	r0, [r4, #112]
 1578 001e FFF7FEFF 		bl	tcp_segs_free
 1579              	.LVL169:
1837:Middlewares/Third_Party/LwIP/src/core/tcp.c ****     pcb->ooseq = NULL;
 1580              		.loc 1 1837 0
 1581 0022 0025     		movs	r5, #0
 1582 0024 2567     		str	r5, [r4, #112]
1838:Middlewares/Third_Party/LwIP/src/core/tcp.c **** #endif /* TCP_QUEUE_OOSEQ */
ARM GAS  /var/folders/0d/93p3r6493yg7p0rvl_4r983m0000gn/T//ccIusu9n.s 			page 63


1839:Middlewares/Third_Party/LwIP/src/core/tcp.c **** 
1840:Middlewares/Third_Party/LwIP/src/core/tcp.c ****     /* Stop the retransmission timer as it will expect data on unacked
1841:Middlewares/Third_Party/LwIP/src/core/tcp.c ****        queue if it fires */
1842:Middlewares/Third_Party/LwIP/src/core/tcp.c ****     pcb->rtime = -1;
 1583              		.loc 1 1842 0
 1584 0026 4FF6FF73 		movw	r3, #65535
 1585 002a 2386     		strh	r3, [r4, #48]	@ movhi
1843:Middlewares/Third_Party/LwIP/src/core/tcp.c **** 
1844:Middlewares/Third_Party/LwIP/src/core/tcp.c ****     tcp_segs_free(pcb->unsent);
 1586              		.loc 1 1844 0
 1587 002c A06E     		ldr	r0, [r4, #104]
 1588 002e FFF7FEFF 		bl	tcp_segs_free
 1589              	.LVL170:
1845:Middlewares/Third_Party/LwIP/src/core/tcp.c ****     tcp_segs_free(pcb->unacked);
 1590              		.loc 1 1845 0
 1591 0032 E06E     		ldr	r0, [r4, #108]
 1592 0034 FFF7FEFF 		bl	tcp_segs_free
 1593              	.LVL171:
1846:Middlewares/Third_Party/LwIP/src/core/tcp.c ****     pcb->unacked = pcb->unsent = NULL;
 1594              		.loc 1 1846 0
 1595 0038 A566     		str	r5, [r4, #104]
 1596 003a E566     		str	r5, [r4, #108]
1847:Middlewares/Third_Party/LwIP/src/core/tcp.c **** #if TCP_OVERSIZE
1848:Middlewares/Third_Party/LwIP/src/core/tcp.c ****     pcb->unsent_oversize = 0;
 1597              		.loc 1 1848 0
 1598 003c A4F86450 		strh	r5, [r4, #100]	@ movhi
 1599              	.LVL172:
 1600              	.L188:
1849:Middlewares/Third_Party/LwIP/src/core/tcp.c **** #endif /* TCP_OVERSIZE */
1850:Middlewares/Third_Party/LwIP/src/core/tcp.c ****   }
1851:Middlewares/Third_Party/LwIP/src/core/tcp.c **** }
 1601              		.loc 1 1851 0
 1602 0040 38BD     		pop	{r3, r4, r5, pc}
 1603              		.cfi_endproc
 1604              	.LFE181:
 1606              		.section	.text.tcp_slowtmr,"ax",%progbits
 1607              		.align	1
 1608              		.global	tcp_slowtmr
 1609              		.syntax unified
 1610              		.thumb
 1611              		.thumb_func
 1612              		.fpu fpv4-sp-d16
 1614              	tcp_slowtmr:
 1615              	.LFB160:
 987:Middlewares/Third_Party/LwIP/src/core/tcp.c ****   struct tcp_pcb *pcb, *prev;
 1616              		.loc 1 987 0
 1617              		.cfi_startproc
 1618              		@ args = 0, pretend = 0, frame = 0
 1619              		@ frame_needed = 0, uses_anonymous_args = 0
 1620 0000 2DE9F041 		push	{r4, r5, r6, r7, r8, lr}
 1621              	.LCFI24:
 1622              		.cfi_def_cfa_offset 24
 1623              		.cfi_offset 4, -24
 1624              		.cfi_offset 5, -20
 1625              		.cfi_offset 6, -16
 1626              		.cfi_offset 7, -12
 1627              		.cfi_offset 8, -8
ARM GAS  /var/folders/0d/93p3r6493yg7p0rvl_4r983m0000gn/T//ccIusu9n.s 			page 64


 1628              		.cfi_offset 14, -4
 1629 0004 82B0     		sub	sp, sp, #8
 1630              	.LCFI25:
 1631              		.cfi_def_cfa_offset 32
 1632              	.LVL173:
 996:Middlewares/Third_Party/LwIP/src/core/tcp.c ****   ++tcp_timer_ctr;
 1633              		.loc 1 996 0
 1634 0006 AD4A     		ldr	r2, .L264
 1635 0008 1368     		ldr	r3, [r2]
 1636 000a 0133     		adds	r3, r3, #1
 1637 000c 1360     		str	r3, [r2]
 997:Middlewares/Third_Party/LwIP/src/core/tcp.c **** 
 1638              		.loc 1 997 0
 1639 000e AC4A     		ldr	r2, .L264+4
 1640 0010 1378     		ldrb	r3, [r2]	@ zero_extendqisi2
 1641 0012 0133     		adds	r3, r3, #1
 1642 0014 1370     		strb	r3, [r2]
 1643              	.L194:
 1644              	.LVL174:
 1645              	.L193:
1002:Middlewares/Third_Party/LwIP/src/core/tcp.c ****   if (pcb == NULL) {
 1646              		.loc 1 1002 0
 1647 0016 AB4B     		ldr	r3, .L264+8
 1648 0018 1C68     		ldr	r4, [r3]
 1649              	.LVL175:
1001:Middlewares/Third_Party/LwIP/src/core/tcp.c ****   pcb = tcp_active_pcbs;
 1650              		.loc 1 1001 0
 1651 001a 0026     		movs	r6, #0
1006:Middlewares/Third_Party/LwIP/src/core/tcp.c ****     LWIP_DEBUGF(TCP_DEBUG, ("tcp_slowtmr: processing active pcb\n"));
 1652              		.loc 1 1006 0
 1653 001c 6CE1     		b	.L195
 1654              	.LVL176:
 1655              	.L256:
1008:Middlewares/Third_Party/LwIP/src/core/tcp.c ****     LWIP_ASSERT("tcp_slowtmr: active pcb->state != LISTEN\n", pcb->state != LISTEN);
 1656              		.loc 1 1008 0 discriminator 1
 1657 001e AA4B     		ldr	r3, .L264+12
 1658 0020 4FF47C72 		mov	r2, #1008
 1659 0024 A949     		ldr	r1, .L264+16
 1660 0026 AA48     		ldr	r0, .L264+20
 1661 0028 FFF7FEFF 		bl	printf
 1662              	.LVL177:
 1663 002c 69E1     		b	.L196
 1664              	.L257:
1009:Middlewares/Third_Party/LwIP/src/core/tcp.c ****     LWIP_ASSERT("tcp_slowtmr: active pcb->state != TIME-WAIT\n", pcb->state != TIME_WAIT);
 1665              		.loc 1 1009 0 discriminator 1
 1666 002e A64B     		ldr	r3, .L264+12
 1667 0030 40F2F132 		movw	r2, #1009
 1668 0034 A749     		ldr	r1, .L264+24
 1669 0036 A648     		ldr	r0, .L264+20
 1670 0038 FFF7FEFF 		bl	printf
 1671              	.LVL178:
 1672 003c 65E1     		b	.L197
 1673              	.L258:
1010:Middlewares/Third_Party/LwIP/src/core/tcp.c ****     if (pcb->last_timer == tcp_timer_ctr) {
 1674              		.loc 1 1010 0 discriminator 1
 1675 003e A24B     		ldr	r3, .L264+12
 1676 0040 40F2F232 		movw	r2, #1010
ARM GAS  /var/folders/0d/93p3r6493yg7p0rvl_4r983m0000gn/T//ccIusu9n.s 			page 65


 1677 0044 A449     		ldr	r1, .L264+28
 1678 0046 A248     		ldr	r0, .L264+20
 1679 0048 FFF7FEFF 		bl	printf
 1680              	.LVL179:
 1681 004c 61E1     		b	.L198
 1682              	.L259:
1013:Middlewares/Third_Party/LwIP/src/core/tcp.c ****       continue;
 1683              		.loc 1 1013 0
 1684 004e E468     		ldr	r4, [r4, #12]
 1685              	.LVL180:
1014:Middlewares/Third_Party/LwIP/src/core/tcp.c ****     }
 1686              		.loc 1 1014 0
 1687 0050 52E1     		b	.L195
 1688              	.LVL181:
 1689              	.L260:
1021:Middlewares/Third_Party/LwIP/src/core/tcp.c ****       ++pcb_remove;
 1690              		.loc 1 1021 0 discriminator 1
 1691 0052 94F84220 		ldrb	r2, [r4, #66]	@ zero_extendqisi2
 1692 0056 052A     		cmp	r2, #5
 1693 0058 40F26681 		bls	.L201
1022:Middlewares/Third_Party/LwIP/src/core/tcp.c ****       LWIP_DEBUGF(TCP_DEBUG, ("tcp_slowtmr: max SYN retries reached\n"));
 1694              		.loc 1 1022 0
 1695 005c 0125     		movs	r5, #1
 1696 005e 48E0     		b	.L202
 1697              	.LVL182:
 1698              	.L261:
 1699              	.LBB8:
1037:Middlewares/Third_Party/LwIP/src/core/tcp.c ****             pcb->persist_cnt = 0;
 1700              		.loc 1 1037 0
 1701 0060 2046     		mov	r0, r4
 1702 0062 FFF7FEFF 		bl	tcp_zero_window_probe
 1703              	.LVL183:
 1704 0066 0028     		cmp	r0, #0
 1705 0068 50D1     		bne	.L236
1038:Middlewares/Third_Party/LwIP/src/core/tcp.c ****             if (pcb->persist_backoff < sizeof(tcp_persist_backoff)) {
 1706              		.loc 1 1038 0
 1707 006a 0023     		movs	r3, #0
 1708 006c 84F89430 		strb	r3, [r4, #148]
1039:Middlewares/Third_Party/LwIP/src/core/tcp.c ****               pcb->persist_backoff++;
 1709              		.loc 1 1039 0
 1710 0070 94F89530 		ldrb	r3, [r4, #149]	@ zero_extendqisi2
 1711 0074 062B     		cmp	r3, #6
 1712 0076 4BD8     		bhi	.L237
1040:Middlewares/Third_Party/LwIP/src/core/tcp.c ****             }
 1713              		.loc 1 1040 0
 1714 0078 0133     		adds	r3, r3, #1
 1715 007a 84F89530 		strb	r3, [r4, #149]
 1716              	.LBE8:
1018:Middlewares/Third_Party/LwIP/src/core/tcp.c ****     pcb_reset = 0;
 1717              		.loc 1 1018 0
 1718 007e 0025     		movs	r5, #0
 1719              	.LVL184:
 1720 0080 37E0     		b	.L202
 1721              	.L203:
1046:Middlewares/Third_Party/LwIP/src/core/tcp.c ****           ++pcb->rtime;
 1722              		.loc 1 1046 0
 1723 0082 B4F93010 		ldrsh	r1, [r4, #48]
ARM GAS  /var/folders/0d/93p3r6493yg7p0rvl_4r983m0000gn/T//ccIusu9n.s 			page 66


 1724 0086 0029     		cmp	r1, #0
 1725 0088 01DB     		blt	.L205
1047:Middlewares/Third_Party/LwIP/src/core/tcp.c ****         }
 1726              		.loc 1 1047 0
 1727 008a 0131     		adds	r1, r1, #1
 1728 008c 2186     		strh	r1, [r4, #48]	@ movhi
 1729              	.L205:
1050:Middlewares/Third_Party/LwIP/src/core/tcp.c ****           /* Time for a retransmission. */
 1730              		.loc 1 1050 0
 1731 008e E16E     		ldr	r1, [r4, #108]
 1732 0090 79B3     		cbz	r1, .L202
1050:Middlewares/Third_Party/LwIP/src/core/tcp.c ****           /* Time for a retransmission. */
 1733              		.loc 1 1050 0 is_stmt 0 discriminator 1
 1734 0092 B4F93000 		ldrsh	r0, [r4, #48]
 1735 0096 B4F94010 		ldrsh	r1, [r4, #64]
 1736 009a 8842     		cmp	r0, r1
 1737 009c 29DB     		blt	.L202
1058:Middlewares/Third_Party/LwIP/src/core/tcp.c ****             u8_t backoff_idx = LWIP_MIN(pcb->nrtx, sizeof(tcp_backoff)-1);
 1738              		.loc 1 1058 0 is_stmt 1
 1739 009e 022B     		cmp	r3, #2
 1740 00a0 0DD0     		beq	.L206
 1741              	.LBB9:
1059:Middlewares/Third_Party/LwIP/src/core/tcp.c ****             pcb->rto = ((pcb->sa >> 3) + pcb->sv) << tcp_backoff[backoff_idx];
 1742              		.loc 1 1059 0
 1743 00a2 0C2A     		cmp	r2, #12
 1744 00a4 28BF     		it	cs
 1745 00a6 0C22     		movcs	r2, #12
 1746              	.LVL185:
1060:Middlewares/Third_Party/LwIP/src/core/tcp.c ****           }
 1747              		.loc 1 1060 0
 1748 00a8 B4F93C10 		ldrsh	r1, [r4, #60]
 1749 00ac B4F93E30 		ldrsh	r3, [r4, #62]
 1750 00b0 03EBE103 		add	r3, r3, r1, asr #3
 1751 00b4 8949     		ldr	r1, .L264+32
 1752 00b6 8A5C     		ldrb	r2, [r1, r2]	@ zero_extendqisi2
 1753              	.LVL186:
 1754 00b8 9340     		lsls	r3, r3, r2
 1755 00ba A4F84030 		strh	r3, [r4, #64]	@ movhi
 1756              	.LVL187:
 1757              	.L206:
 1758              	.LBE9:
1064:Middlewares/Third_Party/LwIP/src/core/tcp.c **** 
 1759              		.loc 1 1064 0
 1760 00be 0023     		movs	r3, #0
 1761 00c0 2386     		strh	r3, [r4, #48]	@ movhi
1067:Middlewares/Third_Party/LwIP/src/core/tcp.c ****           pcb->ssthresh = eff_wnd >> 1;
 1762              		.loc 1 1067 0
 1763 00c2 B4F85C30 		ldrh	r3, [r4, #92]
 1764 00c6 B4F84820 		ldrh	r2, [r4, #72]
 1765 00ca 9342     		cmp	r3, r2
 1766 00cc 28BF     		it	cs
 1767 00ce 1346     		movcs	r3, r2
 1768              	.LVL188:
1068:Middlewares/Third_Party/LwIP/src/core/tcp.c ****           if (pcb->ssthresh < (tcpwnd_size_t)(pcb->mss << 1)) {
 1769              		.loc 1 1068 0
 1770 00d0 5B08     		lsrs	r3, r3, #1
 1771              	.LVL189:
ARM GAS  /var/folders/0d/93p3r6493yg7p0rvl_4r983m0000gn/T//ccIusu9n.s 			page 67


 1772 00d2 A4F84A30 		strh	r3, [r4, #74]	@ movhi
1069:Middlewares/Third_Party/LwIP/src/core/tcp.c ****             pcb->ssthresh = (pcb->mss << 1);
 1773              		.loc 1 1069 0
 1774 00d6 618E     		ldrh	r1, [r4, #50]
 1775 00d8 4A00     		lsls	r2, r1, #1
 1776              	.LVL190:
 1777 00da 92B2     		uxth	r2, r2
 1778 00dc 9342     		cmp	r3, r2
 1779              	.LVL191:
 1780 00de 01D2     		bcs	.L207
1070:Middlewares/Third_Party/LwIP/src/core/tcp.c ****           }
 1781              		.loc 1 1070 0
 1782 00e0 A4F84A20 		strh	r2, [r4, #74]	@ movhi
 1783              	.L207:
1072:Middlewares/Third_Party/LwIP/src/core/tcp.c ****           LWIP_DEBUGF(TCP_CWND_DEBUG, ("tcp_slowtmr: cwnd %"TCPWNDSIZE_F
 1784              		.loc 1 1072 0
 1785 00e4 A4F84810 		strh	r1, [r4, #72]	@ movhi
 1786              	.LVL192:
1079:Middlewares/Third_Party/LwIP/src/core/tcp.c ****         }
 1787              		.loc 1 1079 0
 1788 00e8 2046     		mov	r0, r4
 1789 00ea FFF7FEFF 		bl	tcp_rexmit_rto
 1790              	.LVL193:
 1791 00ee 00E0     		b	.L202
 1792              	.L234:
1026:Middlewares/Third_Party/LwIP/src/core/tcp.c ****       LWIP_DEBUGF(TCP_DEBUG, ("tcp_slowtmr: max DATA retries reached\n"));
 1793              		.loc 1 1026 0
 1794 00f0 0125     		movs	r5, #1
 1795              	.L202:
 1796              	.LVL194:
1084:Middlewares/Third_Party/LwIP/src/core/tcp.c ****       /* If this PCB is in FIN_WAIT_2 because of SHUT_WR don't let it time out. */
 1797              		.loc 1 1084 0
 1798 00f2 237D     		ldrb	r3, [r4, #20]	@ zero_extendqisi2
 1799 00f4 062B     		cmp	r3, #6
 1800 00f6 0DD0     		beq	.L246
 1801              	.L208:
1098:Middlewares/Third_Party/LwIP/src/core/tcp.c ****        ((pcb->state == ESTABLISHED) ||
 1802              		.loc 1 1098 0
 1803 00f8 227A     		ldrb	r2, [r4, #8]	@ zero_extendqisi2
 1804 00fa 12F0080F 		tst	r2, #8
 1805 00fe 43D0     		beq	.L238
1098:Middlewares/Third_Party/LwIP/src/core/tcp.c ****        ((pcb->state == ESTABLISHED) ||
 1806              		.loc 1 1098 0 is_stmt 0 discriminator 1
 1807 0100 042B     		cmp	r3, #4
 1808 0102 14D0     		beq	.L210
1099:Middlewares/Third_Party/LwIP/src/core/tcp.c ****         (pcb->state == CLOSE_WAIT))) {
 1809              		.loc 1 1099 0 is_stmt 1
 1810 0104 072B     		cmp	r3, #7
 1811 0106 12D0     		beq	.L210
1019:Middlewares/Third_Party/LwIP/src/core/tcp.c **** 
 1812              		.loc 1 1019 0
 1813 0108 0027     		movs	r7, #0
 1814 010a 3EE0     		b	.L209
 1815              	.LVL195:
 1816              	.L236:
1018:Middlewares/Third_Party/LwIP/src/core/tcp.c ****     pcb_reset = 0;
 1817              		.loc 1 1018 0
ARM GAS  /var/folders/0d/93p3r6493yg7p0rvl_4r983m0000gn/T//ccIusu9n.s 			page 68


 1818 010c 0025     		movs	r5, #0
 1819              	.LVL196:
 1820 010e F0E7     		b	.L202
 1821              	.LVL197:
 1822              	.L237:
 1823 0110 0025     		movs	r5, #0
 1824              	.LVL198:
 1825 0112 EEE7     		b	.L202
 1826              	.LVL199:
 1827              	.L246:
1086:Middlewares/Third_Party/LwIP/src/core/tcp.c ****         /* PCB was fully closed (either through close() or SHUT_RDWR):
 1828              		.loc 1 1086 0
 1829 0114 A27E     		ldrb	r2, [r4, #26]	@ zero_extendqisi2
 1830 0116 12F0100F 		tst	r2, #16
 1831 011a EDD0     		beq	.L208
1089:Middlewares/Third_Party/LwIP/src/core/tcp.c ****             TCP_FIN_WAIT_TIMEOUT / TCP_SLOW_INTERVAL) {
 1832              		.loc 1 1089 0
 1833 011c 216A     		ldr	r1, [r4, #32]
 1834 011e 674A     		ldr	r2, .L264
 1835 0120 1268     		ldr	r2, [r2]
 1836 0122 521A     		subs	r2, r2, r1
 1837 0124 282A     		cmp	r2, #40
 1838 0126 E7D9     		bls	.L208
1091:Middlewares/Third_Party/LwIP/src/core/tcp.c ****           LWIP_DEBUGF(TCP_DEBUG, ("tcp_slowtmr: removing pcb stuck in FIN-WAIT-2\n"));
 1839              		.loc 1 1091 0
 1840 0128 0135     		adds	r5, r5, #1
 1841              	.LVL200:
 1842 012a EDB2     		uxtb	r5, r5
 1843              	.LVL201:
 1844 012c E4E7     		b	.L208
 1845              	.L210:
1101:Middlewares/Third_Party/LwIP/src/core/tcp.c ****          (pcb->keep_idle + TCP_KEEP_DUR(pcb)) / TCP_SLOW_INTERVAL)
 1846              		.loc 1 1101 0
 1847 012e 634B     		ldr	r3, .L264
 1848 0130 1A68     		ldr	r2, [r3]
 1849 0132 236A     		ldr	r3, [r4, #32]
 1850 0134 D21A     		subs	r2, r2, r3
1102:Middlewares/Third_Party/LwIP/src/core/tcp.c ****       {
 1851              		.loc 1 1102 0
 1852 0136 D4F89010 		ldr	r1, [r4, #144]
 1853 013a 01F52423 		add	r3, r1, #671744
 1854 013e 03F6B843 		addw	r3, r3, #3256
 1855 0142 6748     		ldr	r0, .L264+36
 1856 0144 A0FB0303 		umull	r0, r3, r0, r3
1101:Middlewares/Third_Party/LwIP/src/core/tcp.c ****          (pcb->keep_idle + TCP_KEEP_DUR(pcb)) / TCP_SLOW_INTERVAL)
 1857              		.loc 1 1101 0
 1858 0148 B2EB531F 		cmp	r2, r3, lsr #5
 1859 014c 03D9     		bls	.L211
1108:Middlewares/Third_Party/LwIP/src/core/tcp.c ****         ++pcb_reset;
 1860              		.loc 1 1108 0
 1861 014e 0135     		adds	r5, r5, #1
 1862              	.LVL202:
 1863 0150 EDB2     		uxtb	r5, r5
 1864              	.LVL203:
1109:Middlewares/Third_Party/LwIP/src/core/tcp.c ****       } else if ((u32_t)(tcp_ticks - pcb->tmr) >
 1865              		.loc 1 1109 0
 1866 0152 0127     		movs	r7, #1
ARM GAS  /var/folders/0d/93p3r6493yg7p0rvl_4r983m0000gn/T//ccIusu9n.s 			page 69


 1867 0154 19E0     		b	.L209
 1868              	.LVL204:
 1869              	.L211:
1111:Middlewares/Third_Party/LwIP/src/core/tcp.c ****                 / TCP_SLOW_INTERVAL)
 1870              		.loc 1 1111 0
 1871 0156 94F89630 		ldrb	r3, [r4, #150]	@ zero_extendqisi2
 1872 015a 6248     		ldr	r0, .L264+40
 1873 015c 00FB0313 		mla	r3, r0, r3, r1
1112:Middlewares/Third_Party/LwIP/src/core/tcp.c ****       {
 1874              		.loc 1 1112 0
 1875 0160 5F49     		ldr	r1, .L264+36
 1876 0162 A1FB0313 		umull	r1, r3, r1, r3
1110:Middlewares/Third_Party/LwIP/src/core/tcp.c ****                 (pcb->keep_idle + pcb->keep_cnt_sent * TCP_KEEP_INTVL(pcb))
 1877              		.loc 1 1110 0
 1878 0166 B2EB531F 		cmp	r2, r3, lsr #5
 1879 016a 01D8     		bhi	.L247
1019:Middlewares/Third_Party/LwIP/src/core/tcp.c **** 
 1880              		.loc 1 1019 0
 1881 016c 0027     		movs	r7, #0
 1882 016e 0CE0     		b	.L209
 1883              	.L247:
1114:Middlewares/Third_Party/LwIP/src/core/tcp.c ****         if (err == ERR_OK) {
 1884              		.loc 1 1114 0
 1885 0170 2046     		mov	r0, r4
 1886 0172 FFF7FEFF 		bl	tcp_keepalive
 1887              	.LVL205:
1115:Middlewares/Third_Party/LwIP/src/core/tcp.c ****           pcb->keep_cnt_sent++;
 1888              		.loc 1 1115 0
 1889 0176 0028     		cmp	r0, #0
 1890 0178 39D1     		bne	.L241
1116:Middlewares/Third_Party/LwIP/src/core/tcp.c ****         }
 1891              		.loc 1 1116 0
 1892 017a 94F89630 		ldrb	r3, [r4, #150]	@ zero_extendqisi2
 1893 017e 0133     		adds	r3, r3, #1
 1894 0180 84F89630 		strb	r3, [r4, #150]
1019:Middlewares/Third_Party/LwIP/src/core/tcp.c **** 
 1895              		.loc 1 1019 0
 1896 0184 0027     		movs	r7, #0
 1897 0186 00E0     		b	.L209
 1898              	.LVL206:
 1899              	.L238:
 1900 0188 0027     		movs	r7, #0
 1901              	.LVL207:
 1902              	.L209:
1125:Middlewares/Third_Party/LwIP/src/core/tcp.c ****         (u32_t)tcp_ticks - pcb->tmr >= pcb->rto * TCP_OOSEQ_TIMEOUT) {
 1903              		.loc 1 1125 0
 1904 018a 206F     		ldr	r0, [r4, #112]
 1905 018c 50B1     		cbz	r0, .L212
1126:Middlewares/Third_Party/LwIP/src/core/tcp.c ****       tcp_segs_free(pcb->ooseq);
 1906              		.loc 1 1126 0 discriminator 1
 1907 018e 4B4B     		ldr	r3, .L264
 1908 0190 1A68     		ldr	r2, [r3]
 1909 0192 236A     		ldr	r3, [r4, #32]
 1910 0194 D21A     		subs	r2, r2, r3
 1911 0196 B4F94030 		ldrsh	r3, [r4, #64]
 1912 019a 03EB4303 		add	r3, r3, r3, lsl #1
 1913 019e 5900     		lsls	r1, r3, #1
ARM GAS  /var/folders/0d/93p3r6493yg7p0rvl_4r983m0000gn/T//ccIusu9n.s 			page 70


1125:Middlewares/Third_Party/LwIP/src/core/tcp.c ****         (u32_t)tcp_ticks - pcb->tmr >= pcb->rto * TCP_OOSEQ_TIMEOUT) {
 1914              		.loc 1 1125 0 discriminator 1
 1915 01a0 8A42     		cmp	r2, r1
 1916 01a2 26D2     		bcs	.L248
 1917              	.L212:
1134:Middlewares/Third_Party/LwIP/src/core/tcp.c ****       if ((u32_t)(tcp_ticks - pcb->tmr) >
 1918              		.loc 1 1134 0
 1919 01a4 237D     		ldrb	r3, [r4, #20]	@ zero_extendqisi2
 1920 01a6 032B     		cmp	r3, #3
 1921 01a8 28D0     		beq	.L249
 1922              	.L213:
1143:Middlewares/Third_Party/LwIP/src/core/tcp.c ****       if ((u32_t)(tcp_ticks - pcb->tmr) > 2 * TCP_MSL / TCP_SLOW_INTERVAL) {
 1923              		.loc 1 1143 0
 1924 01aa 092B     		cmp	r3, #9
 1925 01ac 2FD0     		beq	.L250
 1926              	.L214:
1151:Middlewares/Third_Party/LwIP/src/core/tcp.c ****       struct tcp_pcb *pcb2;
 1927              		.loc 1 1151 0
 1928 01ae 002D     		cmp	r5, #0
 1929 01b0 36D1     		bne	.L251
 1930              	.LVL208:
1188:Middlewares/Third_Party/LwIP/src/core/tcp.c **** 
 1931              		.loc 1 1188 0
 1932 01b2 E568     		ldr	r5, [r4, #12]
 1933              	.LVL209:
1191:Middlewares/Third_Party/LwIP/src/core/tcp.c ****       if (prev->polltmr >= prev->pollinterval) {
 1934              		.loc 1 1191 0
 1935 01b4 E37E     		ldrb	r3, [r4, #27]	@ zero_extendqisi2
 1936 01b6 0133     		adds	r3, r3, #1
 1937 01b8 DBB2     		uxtb	r3, r3
 1938 01ba E376     		strb	r3, [r4, #27]
1192:Middlewares/Third_Party/LwIP/src/core/tcp.c ****         prev->polltmr = 0;
 1939              		.loc 1 1192 0
 1940 01bc 227F     		ldrb	r2, [r4, #28]	@ zero_extendqisi2
 1941 01be 9342     		cmp	r3, r2
 1942 01c0 C0F09880 		bcc	.L242
1193:Middlewares/Third_Party/LwIP/src/core/tcp.c ****         LWIP_DEBUGF(TCP_DEBUG, ("tcp_slowtmr: polling application\n"));
 1943              		.loc 1 1193 0
 1944 01c4 0023     		movs	r3, #0
 1945 01c6 E376     		strb	r3, [r4, #27]
1195:Middlewares/Third_Party/LwIP/src/core/tcp.c ****         TCP_EVENT_POLL(prev, err);
 1946              		.loc 1 1195 0
 1947 01c8 474A     		ldr	r2, .L264+44
 1948 01ca 1370     		strb	r3, [r2]
1196:Middlewares/Third_Party/LwIP/src/core/tcp.c ****         if (tcp_active_pcbs_changed) {
 1949              		.loc 1 1196 0
 1950 01cc D4F88830 		ldr	r3, [r4, #136]
