ARM GAS  /var/folders/0d/93p3r6493yg7p0rvl_4r983m0000gn/T//cciOArKx.s 			page 1


   1              		.cpu cortex-m4
   2              		.eabi_attribute 27, 1
   3              		.eabi_attribute 28, 1
   4              		.eabi_attribute 20, 1
   5              		.eabi_attribute 21, 1
   6              		.eabi_attribute 23, 3
   7              		.eabi_attribute 24, 1
   8              		.eabi_attribute 25, 1
   9              		.eabi_attribute 26, 1
  10              		.eabi_attribute 30, 1
  11              		.eabi_attribute 34, 1
  12              		.eabi_attribute 18, 4
  13              		.file	"uri.c"
  14              		.text
  15              	.Ltext0:
  16              		.cfi_sections	.debug_frame
  17              		.section	.text.prv_parseNumber,"ax",%progbits
  18              		.align	1
  19              		.syntax unified
  20              		.thumb
  21              		.thumb_func
  22              		.fpu fpv4-sp-d16
  24              	prv_parseNumber:
  25              	.LFB3:
  26              		.file 1 "Middlewares/Third_Party/wakaama/uri.c"
   1:Middlewares/Third_Party/wakaama/uri.c **** /*******************************************************************************
   2:Middlewares/Third_Party/wakaama/uri.c ****  *
   3:Middlewares/Third_Party/wakaama/uri.c ****  * Copyright (c) 2013, 2014 Intel Corporation and others.
   4:Middlewares/Third_Party/wakaama/uri.c ****  * All rights reserved. This program and the accompanying materials
   5:Middlewares/Third_Party/wakaama/uri.c ****  * are made available under the terms of the Eclipse Public License v1.0
   6:Middlewares/Third_Party/wakaama/uri.c ****  * and Eclipse Distribution License v1.0 which accompany this distribution.
   7:Middlewares/Third_Party/wakaama/uri.c ****  *
   8:Middlewares/Third_Party/wakaama/uri.c ****  * The Eclipse Public License is available at
   9:Middlewares/Third_Party/wakaama/uri.c ****  *    http://www.eclipse.org/legal/epl-v10.html
  10:Middlewares/Third_Party/wakaama/uri.c ****  * The Eclipse Distribution License is available at
  11:Middlewares/Third_Party/wakaama/uri.c ****  *    http://www.eclipse.org/org/documents/edl-v10.php.
  12:Middlewares/Third_Party/wakaama/uri.c ****  *
  13:Middlewares/Third_Party/wakaama/uri.c ****  * Contributors:
  14:Middlewares/Third_Party/wakaama/uri.c ****  *    David Navarro, Intel Corporation - initial API and implementation
  15:Middlewares/Third_Party/wakaama/uri.c ****  *    Fabien Fleutot - Please refer to git log
  16:Middlewares/Third_Party/wakaama/uri.c ****  *    Toby Jaffey - Please refer to git log
  17:Middlewares/Third_Party/wakaama/uri.c ****  *    Bosch Software Innovations GmbH - Please refer to git log
  18:Middlewares/Third_Party/wakaama/uri.c ****  *    Pascal Rieux - Please refer to git log
  19:Middlewares/Third_Party/wakaama/uri.c ****  *    
  20:Middlewares/Third_Party/wakaama/uri.c ****  *******************************************************************************/
  21:Middlewares/Third_Party/wakaama/uri.c **** 
  22:Middlewares/Third_Party/wakaama/uri.c **** /*
  23:Middlewares/Third_Party/wakaama/uri.c ****  Copyright (c) 2013, 2014 Intel Corporation
  24:Middlewares/Third_Party/wakaama/uri.c **** 
  25:Middlewares/Third_Party/wakaama/uri.c ****  Redistribution and use in source and binary forms, with or without modification,
  26:Middlewares/Third_Party/wakaama/uri.c ****  are permitted provided that the following conditions are met:
  27:Middlewares/Third_Party/wakaama/uri.c **** 
  28:Middlewares/Third_Party/wakaama/uri.c ****      * Redistributions of source code must retain the above copyright notice,
  29:Middlewares/Third_Party/wakaama/uri.c ****        this list of conditions and the following disclaimer.
  30:Middlewares/Third_Party/wakaama/uri.c ****      * Redistributions in binary form must reproduce the above copyright notice,
  31:Middlewares/Third_Party/wakaama/uri.c ****        this list of conditions and the following disclaimer in the documentation
  32:Middlewares/Third_Party/wakaama/uri.c ****        and/or other materials provided with the distribution.
ARM GAS  /var/folders/0d/93p3r6493yg7p0rvl_4r983m0000gn/T//cciOArKx.s 			page 2


  33:Middlewares/Third_Party/wakaama/uri.c ****      * Neither the name of Intel Corporation nor the names of its contributors
  34:Middlewares/Third_Party/wakaama/uri.c ****        may be used to endorse or promote products derived from this software
  35:Middlewares/Third_Party/wakaama/uri.c ****        without specific prior written permission.
  36:Middlewares/Third_Party/wakaama/uri.c **** 
  37:Middlewares/Third_Party/wakaama/uri.c ****  THIS SOFTWARE IS PROVIDED BY THE COPYRIGHT HOLDERS AND CONTRIBUTORS "AS IS" AND
  38:Middlewares/Third_Party/wakaama/uri.c ****  ANY EXPRESS OR IMPLIED WARRANTIES, INCLUDING, BUT NOT LIMITED TO, THE IMPLIED
  39:Middlewares/Third_Party/wakaama/uri.c ****  WARRANTIES OF MERCHANTABILITY AND FITNESS FOR A PARTICULAR PURPOSE ARE DISCLAIMED.
  40:Middlewares/Third_Party/wakaama/uri.c ****  IN NO EVENT SHALL THE COPYRIGHT OWNER OR CONTRIBUTORS BE LIABLE FOR ANY DIRECT,
  41:Middlewares/Third_Party/wakaama/uri.c ****  INDIRECT, INCIDENTAL, SPECIAL, EXEMPLARY, OR CONSEQUENTIAL DAMAGES (INCLUDING,
  42:Middlewares/Third_Party/wakaama/uri.c ****  BUT NOT LIMITED TO, PROCUREMENT OF SUBSTITUTE GOODS OR SERVICES; LOSS OF USE,
  43:Middlewares/Third_Party/wakaama/uri.c ****  DATA, OR PROFITS; OR BUSINESS INTERRUPTION) HOWEVER CAUSED AND ON ANY THEORY OF
  44:Middlewares/Third_Party/wakaama/uri.c ****  LIABILITY, WHETHER IN CONTRACT, STRICT LIABILITY, OR TORT (INCLUDING NEGLIGENCE OR
  45:Middlewares/Third_Party/wakaama/uri.c ****  OTHERWISE) ARISING IN ANY WAY OUT OF THE USE OF THIS SOFTWARE, EVEN IF ADVISED OF
  46:Middlewares/Third_Party/wakaama/uri.c ****  THE POSSIBILITY OF SUCH DAMAGE.
  47:Middlewares/Third_Party/wakaama/uri.c **** 
  48:Middlewares/Third_Party/wakaama/uri.c ****  David Navarro <david.navarro@intel.com>
  49:Middlewares/Third_Party/wakaama/uri.c **** 
  50:Middlewares/Third_Party/wakaama/uri.c **** */
  51:Middlewares/Third_Party/wakaama/uri.c **** 
  52:Middlewares/Third_Party/wakaama/uri.c **** #include "internals.h"
  53:Middlewares/Third_Party/wakaama/uri.c **** #include <stdlib.h>
  54:Middlewares/Third_Party/wakaama/uri.c **** #include <string.h>
  55:Middlewares/Third_Party/wakaama/uri.c **** #include <ctype.h>
  56:Middlewares/Third_Party/wakaama/uri.c **** 
  57:Middlewares/Third_Party/wakaama/uri.c **** static int prv_parseNumber(uint8_t * uriString,
  58:Middlewares/Third_Party/wakaama/uri.c ****                             size_t uriLength,
  59:Middlewares/Third_Party/wakaama/uri.c ****                             size_t * headP)
  60:Middlewares/Third_Party/wakaama/uri.c **** {
  27              		.loc 1 60 0
  28              		.cfi_startproc
  29              		@ args = 0, pretend = 0, frame = 0
  30              		@ frame_needed = 0, uses_anonymous_args = 0
  31              		@ link register save eliminated.
  32              	.LVL0:
  61:Middlewares/Third_Party/wakaama/uri.c ****     int result = 0;
  62:Middlewares/Third_Party/wakaama/uri.c **** 
  63:Middlewares/Third_Party/wakaama/uri.c ****     if (uriString[*headP] == '/')
  33              		.loc 1 63 0
  34 0000 1368     		ldr	r3, [r2]
  35 0002 C35C     		ldrb	r3, [r0, r3]	@ zero_extendqisi2
  36 0004 2F2B     		cmp	r3, #47
  37 0006 1CD0     		beq	.L6
  60:Middlewares/Third_Party/wakaama/uri.c ****     int result = 0;
  38              		.loc 1 60 0
  39 0008 70B4     		push	{r4, r5, r6}
  40              	.LCFI0:
  41              		.cfi_def_cfa_offset 12
  42              		.cfi_offset 4, -12
  43              		.cfi_offset 5, -8
  44              		.cfi_offset 6, -4
  61:Middlewares/Third_Party/wakaama/uri.c ****     int result = 0;
  45              		.loc 1 61 0
  46 000a 0025     		movs	r5, #0
  47              	.LVL1:
  48              	.L3:
  64:Middlewares/Third_Party/wakaama/uri.c ****     {
  65:Middlewares/Third_Party/wakaama/uri.c ****         // empty Object Instance ID with resource ID is not allowed
ARM GAS  /var/folders/0d/93p3r6493yg7p0rvl_4r983m0000gn/T//cciOArKx.s 			page 3


  66:Middlewares/Third_Party/wakaama/uri.c ****         return -1;
  67:Middlewares/Third_Party/wakaama/uri.c ****     }
  68:Middlewares/Third_Party/wakaama/uri.c ****     while (*headP < uriLength && uriString[*headP] != '/')
  49              		.loc 1 68 0
  50 000c 1468     		ldr	r4, [r2]
  51 000e 8C42     		cmp	r4, r1
  52 0010 0FD2     		bcs	.L4
  53              		.loc 1 68 0 is_stmt 0 discriminator 1
  54 0012 035D     		ldrb	r3, [r0, r4]	@ zero_extendqisi2
  55 0014 2F2B     		cmp	r3, #47
  56 0016 0CD0     		beq	.L4
  69:Middlewares/Third_Party/wakaama/uri.c ****     {
  70:Middlewares/Third_Party/wakaama/uri.c ****         if ('0' <= uriString[*headP] && uriString[*headP] <= '9')
  57              		.loc 1 70 0 is_stmt 1
  58 0018 A3F13006 		sub	r6, r3, #48
  59 001c F6B2     		uxtb	r6, r6
  60 001e 092E     		cmp	r6, #9
  61 0020 12D8     		bhi	.L7
  71:Middlewares/Third_Party/wakaama/uri.c ****         {
  72:Middlewares/Third_Party/wakaama/uri.c ****             result += uriString[*headP] - '0';
  62              		.loc 1 72 0
  63 0022 303B     		subs	r3, r3, #48
  64 0024 2B44     		add	r3, r3, r5
  65              	.LVL2:
  73:Middlewares/Third_Party/wakaama/uri.c ****             result *= 10;
  66              		.loc 1 73 0
  67 0026 03EB8303 		add	r3, r3, r3, lsl #2
  68              	.LVL3:
  69 002a 5D00     		lsls	r5, r3, #1
  70              	.LVL4:
  74:Middlewares/Third_Party/wakaama/uri.c ****         }
  75:Middlewares/Third_Party/wakaama/uri.c ****         else
  76:Middlewares/Third_Party/wakaama/uri.c ****         {
  77:Middlewares/Third_Party/wakaama/uri.c ****             return -1;
  78:Middlewares/Third_Party/wakaama/uri.c ****         }
  79:Middlewares/Third_Party/wakaama/uri.c ****         *headP += 1;
  71              		.loc 1 79 0
  72 002c 0134     		adds	r4, r4, #1
  73 002e 1460     		str	r4, [r2]
  74 0030 ECE7     		b	.L3
  75              	.L4:
  80:Middlewares/Third_Party/wakaama/uri.c ****     }
  81:Middlewares/Third_Party/wakaama/uri.c **** 
  82:Middlewares/Third_Party/wakaama/uri.c ****     result /= 10;
  76              		.loc 1 82 0
  77 0032 0748     		ldr	r0, .L12
  78              	.LVL5:
  79 0034 80FB0530 		smull	r3, r0, r0, r5
  80 0038 ED17     		asrs	r5, r5, #31
  81              	.LVL6:
  82 003a C5EBA000 		rsb	r0, r5, r0, asr #2
  83              	.LVL7:
  84              	.L1:
  83:Middlewares/Third_Party/wakaama/uri.c ****     return result;
  84:Middlewares/Third_Party/wakaama/uri.c **** }
  85              		.loc 1 84 0
  86 003e 70BC     		pop	{r4, r5, r6}
ARM GAS  /var/folders/0d/93p3r6493yg7p0rvl_4r983m0000gn/T//cciOArKx.s 			page 4


  87              	.LCFI1:
  88              		.cfi_restore 6
  89              		.cfi_restore 5
  90              		.cfi_restore 4
  91              		.cfi_def_cfa_offset 0
  92 0040 7047     		bx	lr
  93              	.LVL8:
  94              	.L6:
  66:Middlewares/Third_Party/wakaama/uri.c ****     }
  95              		.loc 1 66 0
  96 0042 4FF0FF30 		mov	r0, #-1
  97              	.LVL9:
  98              		.loc 1 84 0
  99 0046 7047     		bx	lr
 100              	.LVL10:
 101              	.L7:
 102              	.LCFI2:
 103              		.cfi_def_cfa_offset 12
 104              		.cfi_offset 4, -12
 105              		.cfi_offset 5, -8
 106              		.cfi_offset 6, -4
  77:Middlewares/Third_Party/wakaama/uri.c ****         }
 107              		.loc 1 77 0
 108 0048 4FF0FF30 		mov	r0, #-1
 109              	.LVL11:
 110 004c F7E7     		b	.L1
 111              	.L13:
 112 004e 00BF     		.align	2
 113              	.L12:
 114 0050 67666666 		.word	1717986919
 115              		.cfi_endproc
 116              	.LFE3:
 118              		.section	.text.uri_getNumber,"ax",%progbits
 119              		.align	1
 120              		.global	uri_getNumber
 121              		.syntax unified
 122              		.thumb
 123              		.thumb_func
 124              		.fpu fpv4-sp-d16
 126              	uri_getNumber:
 127              	.LFB4:
  85:Middlewares/Third_Party/wakaama/uri.c **** 
  86:Middlewares/Third_Party/wakaama/uri.c **** 
  87:Middlewares/Third_Party/wakaama/uri.c **** int uri_getNumber(uint8_t * uriString,
  88:Middlewares/Third_Party/wakaama/uri.c ****                    size_t uriLength)
  89:Middlewares/Third_Party/wakaama/uri.c **** {
 128              		.loc 1 89 0
 129              		.cfi_startproc
 130              		@ args = 0, pretend = 0, frame = 8
 131              		@ frame_needed = 0, uses_anonymous_args = 0
 132              	.LVL12:
 133 0000 00B5     		push	{lr}
 134              	.LCFI3:
 135              		.cfi_def_cfa_offset 4
 136              		.cfi_offset 14, -4
 137 0002 83B0     		sub	sp, sp, #12
 138              	.LCFI4:
ARM GAS  /var/folders/0d/93p3r6493yg7p0rvl_4r983m0000gn/T//cciOArKx.s 			page 5


 139              		.cfi_def_cfa_offset 16
  90:Middlewares/Third_Party/wakaama/uri.c ****     size_t index = 0;
 140              		.loc 1 90 0
 141 0004 02AA     		add	r2, sp, #8
 142 0006 0023     		movs	r3, #0
 143 0008 42F8043D 		str	r3, [r2, #-4]!
  91:Middlewares/Third_Party/wakaama/uri.c **** 
  92:Middlewares/Third_Party/wakaama/uri.c ****     return prv_parseNumber(uriString, uriLength, &index);
 144              		.loc 1 92 0
 145 000c FFF7FEFF 		bl	prv_parseNumber
 146              	.LVL13:
  93:Middlewares/Third_Party/wakaama/uri.c **** }
 147              		.loc 1 93 0
 148 0010 03B0     		add	sp, sp, #12
 149              	.LCFI5:
 150              		.cfi_def_cfa_offset 4
 151              		@ sp needed
 152 0012 5DF804FB 		ldr	pc, [sp], #4
 153              		.cfi_endproc
 154              	.LFE4:
 156              		.section	.text.uri_decode,"ax",%progbits
 157              		.align	1
 158              		.global	uri_decode
 159              		.syntax unified
 160              		.thumb
 161              		.thumb_func
 162              		.fpu fpv4-sp-d16
 164              	uri_decode:
 165              	.LFB5:
  94:Middlewares/Third_Party/wakaama/uri.c **** 
  95:Middlewares/Third_Party/wakaama/uri.c **** 
  96:Middlewares/Third_Party/wakaama/uri.c **** lwm2m_uri_t * uri_decode(char * altPath,
  97:Middlewares/Third_Party/wakaama/uri.c ****                          multi_option_t *uriPath)
  98:Middlewares/Third_Party/wakaama/uri.c **** {
 166              		.loc 1 98 0
 167              		.cfi_startproc
 168              		@ args = 0, pretend = 0, frame = 0
 169              		@ frame_needed = 0, uses_anonymous_args = 0
 170              	.LVL14:
 171 0000 70B5     		push	{r4, r5, r6, lr}
 172              	.LCFI6:
 173              		.cfi_def_cfa_offset 16
 174              		.cfi_offset 4, -16
 175              		.cfi_offset 5, -12
 176              		.cfi_offset 6, -8
 177              		.cfi_offset 14, -4
 178 0002 0646     		mov	r6, r0
 179 0004 0C46     		mov	r4, r1
  99:Middlewares/Third_Party/wakaama/uri.c ****     lwm2m_uri_t * uriP;
 100:Middlewares/Third_Party/wakaama/uri.c ****     int readNum;
 101:Middlewares/Third_Party/wakaama/uri.c **** 
 102:Middlewares/Third_Party/wakaama/uri.c ****     LOG_ARG("altPath: \"%s\"", altPath);
 103:Middlewares/Third_Party/wakaama/uri.c **** 
 104:Middlewares/Third_Party/wakaama/uri.c ****     uriP = (lwm2m_uri_t *)lwm2m_malloc(sizeof(lwm2m_uri_t));
 180              		.loc 1 104 0
 181 0006 0820     		movs	r0, #8
 182              	.LVL15:
ARM GAS  /var/folders/0d/93p3r6493yg7p0rvl_4r983m0000gn/T//cciOArKx.s 			page 6


 183 0008 FFF7FEFF 		bl	lwm2m_malloc
 184              	.LVL16:
 105:Middlewares/Third_Party/wakaama/uri.c ****     if (NULL == uriP) return NULL;
 185              		.loc 1 105 0
 186 000c 0546     		mov	r5, r0
 187 000e 0028     		cmp	r0, #0
 188 0010 75D0     		beq	.L16
 106:Middlewares/Third_Party/wakaama/uri.c **** 
 107:Middlewares/Third_Party/wakaama/uri.c ****     memset(uriP, 0, sizeof(lwm2m_uri_t));
 189              		.loc 1 107 0
 190 0012 0023     		movs	r3, #0
 191 0014 0360     		str	r3, [r0]	@ unaligned
 192 0016 4360     		str	r3, [r0, #4]	@ unaligned
 108:Middlewares/Third_Party/wakaama/uri.c **** 
 109:Middlewares/Third_Party/wakaama/uri.c ****     // Read object ID
 110:Middlewares/Third_Party/wakaama/uri.c ****     if (NULL != uriPath
 193              		.loc 1 110 0
 194 0018 14B1     		cbz	r4, .L18
 111:Middlewares/Third_Party/wakaama/uri.c ****      && URI_REGISTRATION_SEGMENT_LEN == uriPath->len
 195              		.loc 1 111 0
 196 001a 6279     		ldrb	r2, [r4, #5]	@ zero_extendqisi2
 197 001c 022A     		cmp	r2, #2
 198 001e 17D0     		beq	.L32
 199              	.LVL17:
 200              	.L18:
 112:Middlewares/Third_Party/wakaama/uri.c ****      && 0 == strncmp(URI_REGISTRATION_SEGMENT, (char *)uriPath->data, uriPath->len))
 113:Middlewares/Third_Party/wakaama/uri.c ****     {
 114:Middlewares/Third_Party/wakaama/uri.c ****         uriP->flag |= LWM2M_URI_FLAG_REGISTRATION;
 115:Middlewares/Third_Party/wakaama/uri.c ****         uriPath = uriPath->next;
 116:Middlewares/Third_Party/wakaama/uri.c ****         if (uriPath == NULL) return uriP;
 117:Middlewares/Third_Party/wakaama/uri.c ****     }
 118:Middlewares/Third_Party/wakaama/uri.c ****     else if (NULL != uriPath
 201              		.loc 1 118 0
 202 0020 14B1     		cbz	r4, .L19
 119:Middlewares/Third_Party/wakaama/uri.c ****      && URI_BOOTSTRAP_SEGMENT_LEN == uriPath->len
 203              		.loc 1 119 0
 204 0022 6279     		ldrb	r2, [r4, #5]	@ zero_extendqisi2
 205 0024 022A     		cmp	r2, #2
 206 0026 21D0     		beq	.L33
 207              	.L19:
 120:Middlewares/Third_Party/wakaama/uri.c ****      && 0 == strncmp(URI_BOOTSTRAP_SEGMENT, (char *)uriPath->data, uriPath->len))
 121:Middlewares/Third_Party/wakaama/uri.c ****     {
 122:Middlewares/Third_Party/wakaama/uri.c ****         uriP->flag |= LWM2M_URI_FLAG_BOOTSTRAP;
 123:Middlewares/Third_Party/wakaama/uri.c ****         uriPath = uriPath->next;
 124:Middlewares/Third_Party/wakaama/uri.c ****         if (uriPath != NULL) goto error;
 125:Middlewares/Third_Party/wakaama/uri.c ****         return uriP;
 126:Middlewares/Third_Party/wakaama/uri.c ****     }
 127:Middlewares/Third_Party/wakaama/uri.c **** 
 128:Middlewares/Third_Party/wakaama/uri.c ****     if ((uriP->flag & LWM2M_URI_MASK_TYPE) != LWM2M_URI_FLAG_REGISTRATION)
 208              		.loc 1 128 0
 209 0028 2878     		ldrb	r0, [r5]	@ zero_extendqisi2
 210 002a 00F07003 		and	r3, r0, #112
 211 002e 202B     		cmp	r3, #32
 212 0030 38D0     		beq	.L21
 129:Middlewares/Third_Party/wakaama/uri.c ****     {
 130:Middlewares/Third_Party/wakaama/uri.c ****         // Read altPath if any
 131:Middlewares/Third_Party/wakaama/uri.c ****         if (altPath != NULL)
ARM GAS  /var/folders/0d/93p3r6493yg7p0rvl_4r983m0000gn/T//cciOArKx.s 			page 7


 213              		.loc 1 131 0
 214 0032 002E     		cmp	r6, #0
 215 0034 33D0     		beq	.L22
 216              	.LBB2:
 132:Middlewares/Third_Party/wakaama/uri.c ****         {
 133:Middlewares/Third_Party/wakaama/uri.c ****             int i;
 134:Middlewares/Third_Party/wakaama/uri.c ****             if (NULL == uriPath)
 217              		.loc 1 134 0
 218 0036 3CB3     		cbz	r4, .L34
 135:Middlewares/Third_Party/wakaama/uri.c ****             {
 136:Middlewares/Third_Party/wakaama/uri.c ****                 lwm2m_free(uriP);
 137:Middlewares/Third_Party/wakaama/uri.c ****                 return NULL;
 138:Middlewares/Third_Party/wakaama/uri.c ****             }
 139:Middlewares/Third_Party/wakaama/uri.c ****             for (i = 0 ; i < uriPath->len ; i++)
 219              		.loc 1 139 0
 220 0038 0023     		movs	r3, #0
 221              	.L23:
 222              	.LVL18:
 223              		.loc 1 139 0 is_stmt 0 discriminator 1
 224 003a 6279     		ldrb	r2, [r4, #5]	@ zero_extendqisi2
 225 003c 9A42     		cmp	r2, r3
 226 003e 2DDD     		ble	.L35
 140:Middlewares/Third_Party/wakaama/uri.c ****             {
 141:Middlewares/Third_Party/wakaama/uri.c ****                 if (uriPath->data[i] != altPath[i+1])
 227              		.loc 1 141 0 is_stmt 1
 228 0040 A268     		ldr	r2, [r4, #8]
 229 0042 D15C     		ldrb	r1, [r2, r3]	@ zero_extendqisi2
 230 0044 F218     		adds	r2, r6, r3
 231 0046 5278     		ldrb	r2, [r2, #1]	@ zero_extendqisi2
 232 0048 9142     		cmp	r1, r2
 233 004a 22D1     		bne	.L36
 139:Middlewares/Third_Party/wakaama/uri.c ****             {
 234              		.loc 1 139 0 discriminator 2
 235 004c 0133     		adds	r3, r3, #1
 236              	.LVL19:
 237 004e F4E7     		b	.L23
 238              	.LVL20:
 239              	.L32:
 240              	.LBE2:
 112:Middlewares/Third_Party/wakaama/uri.c ****     {
 241              		.loc 1 112 0
 242 0050 A168     		ldr	r1, [r4, #8]
 243 0052 3648     		ldr	r0, .L39
 244              	.LVL21:
 245 0054 FFF7FEFF 		bl	strncmp
 246              	.LVL22:
 247 0058 0028     		cmp	r0, #0
 248 005a E1D1     		bne	.L18
 114:Middlewares/Third_Party/wakaama/uri.c ****         uriPath = uriPath->next;
 249              		.loc 1 114 0
 250 005c 2B78     		ldrb	r3, [r5]	@ zero_extendqisi2
 251 005e 43F02003 		orr	r3, r3, #32
 252 0062 2B70     		strb	r3, [r5]
 115:Middlewares/Third_Party/wakaama/uri.c ****         if (uriPath == NULL) return uriP;
 253              		.loc 1 115 0
 254 0064 2468     		ldr	r4, [r4]
 255              	.LVL23:
ARM GAS  /var/folders/0d/93p3r6493yg7p0rvl_4r983m0000gn/T//cciOArKx.s 			page 8


 116:Middlewares/Third_Party/wakaama/uri.c ****     }
 256              		.loc 1 116 0
 257 0066 002C     		cmp	r4, #0
 258 0068 DED1     		bne	.L19
 259 006a 48E0     		b	.L16
 260              	.L33:
 120:Middlewares/Third_Party/wakaama/uri.c ****     {
 261              		.loc 1 120 0
 262 006c A168     		ldr	r1, [r4, #8]
 263 006e 3048     		ldr	r0, .L39+4
 264 0070 FFF7FEFF 		bl	strncmp
 265              	.LVL24:
 266 0074 0028     		cmp	r0, #0
 267 0076 D7D1     		bne	.L19
 122:Middlewares/Third_Party/wakaama/uri.c ****         uriPath = uriPath->next;
 268              		.loc 1 122 0
 269 0078 2B78     		ldrb	r3, [r5]	@ zero_extendqisi2
 270 007a 43F04003 		orr	r3, r3, #64
 271 007e 2B70     		strb	r3, [r5]
 123:Middlewares/Third_Party/wakaama/uri.c ****         if (uriPath != NULL) goto error;
 272              		.loc 1 123 0
 273 0080 2368     		ldr	r3, [r4]
 274              	.LVL25:
 124:Middlewares/Third_Party/wakaama/uri.c ****         return uriP;
 275              		.loc 1 124 0
 276 0082 002B     		cmp	r3, #0
 277 0084 3BD0     		beq	.L16
 278 0086 3EE0     		b	.L20
 279              	.LVL26:
 280              	.L34:
 281              	.LBB3:
 136:Middlewares/Third_Party/wakaama/uri.c ****                 return NULL;
 282              		.loc 1 136 0
 283 0088 2846     		mov	r0, r5
 284 008a FFF7FEFF 		bl	lwm2m_free
 285              	.LVL27:
 137:Middlewares/Third_Party/wakaama/uri.c ****             }
 286              		.loc 1 137 0
 287 008e 0025     		movs	r5, #0
 288              	.LVL28:
 289 0090 35E0     		b	.L16
 290              	.LVL29:
 291              	.L36:
 142:Middlewares/Third_Party/wakaama/uri.c ****                 {
 143:Middlewares/Third_Party/wakaama/uri.c ****                     lwm2m_free(uriP);
 292              		.loc 1 143 0
 293 0092 2846     		mov	r0, r5
 294 0094 FFF7FEFF 		bl	lwm2m_free
 295              	.LVL30:
 144:Middlewares/Third_Party/wakaama/uri.c ****                     return NULL;
 296              		.loc 1 144 0
 297 0098 0025     		movs	r5, #0
 298              	.LVL31:
 299 009a 30E0     		b	.L16
 300              	.LVL32:
 301              	.L35:
 145:Middlewares/Third_Party/wakaama/uri.c ****                 }
ARM GAS  /var/folders/0d/93p3r6493yg7p0rvl_4r983m0000gn/T//cciOArKx.s 			page 9


 146:Middlewares/Third_Party/wakaama/uri.c ****             }
 147:Middlewares/Third_Party/wakaama/uri.c ****             uriPath = uriPath->next;
 302              		.loc 1 147 0
 303 009c 2468     		ldr	r4, [r4]
 304              	.LVL33:
 305              	.L22:
 306              	.LBE3:
 148:Middlewares/Third_Party/wakaama/uri.c ****         }
 149:Middlewares/Third_Party/wakaama/uri.c ****         if (NULL == uriPath || uriPath->len == 0)
 307              		.loc 1 149 0
 308 009e 5CB3     		cbz	r4, .L26
 309              		.loc 1 149 0 is_stmt 0 discriminator 1
 310 00a0 6379     		ldrb	r3, [r4, #5]	@ zero_extendqisi2
 311 00a2 4BB3     		cbz	r3, .L26
 312              	.L21:
 150:Middlewares/Third_Party/wakaama/uri.c ****         {
 151:Middlewares/Third_Party/wakaama/uri.c ****             uriP->flag |= LWM2M_URI_FLAG_DELETE_ALL;
 152:Middlewares/Third_Party/wakaama/uri.c ****             return uriP;
 153:Middlewares/Third_Party/wakaama/uri.c ****         }
 154:Middlewares/Third_Party/wakaama/uri.c ****     }
 155:Middlewares/Third_Party/wakaama/uri.c **** 
 156:Middlewares/Third_Party/wakaama/uri.c ****     readNum = uri_getNumber(uriPath->data, uriPath->len);
 313              		.loc 1 156 0 is_stmt 1
 314 00a4 6179     		ldrb	r1, [r4, #5]	@ zero_extendqisi2
 315 00a6 A068     		ldr	r0, [r4, #8]
 316 00a8 FFF7FEFF 		bl	uri_getNumber
 317              	.LVL34:
 157:Middlewares/Third_Party/wakaama/uri.c ****     if (readNum < 0 || readNum > LWM2M_MAX_ID) goto error;
 318              		.loc 1 157 0
 319 00ac B0F5803F 		cmp	r0, #65536
 320 00b0 29D2     		bcs	.L20
 158:Middlewares/Third_Party/wakaama/uri.c ****     uriP->objectId = (uint16_t)readNum;
 321              		.loc 1 158 0
 322 00b2 6880     		strh	r0, [r5, #2]	@ movhi
 159:Middlewares/Third_Party/wakaama/uri.c ****     uriP->flag |= LWM2M_URI_FLAG_OBJECT_ID;
 323              		.loc 1 159 0
 324 00b4 2B78     		ldrb	r3, [r5]	@ zero_extendqisi2
 325 00b6 43F00403 		orr	r3, r3, #4
 326 00ba 2B70     		strb	r3, [r5]
 160:Middlewares/Third_Party/wakaama/uri.c ****     uriPath = uriPath->next;
 327              		.loc 1 160 0
 328 00bc 2468     		ldr	r4, [r4]
 329              	.LVL35:
 161:Middlewares/Third_Party/wakaama/uri.c **** 
 162:Middlewares/Third_Party/wakaama/uri.c ****     if ((uriP->flag & LWM2M_URI_MASK_TYPE) == LWM2M_URI_FLAG_REGISTRATION)
 330              		.loc 1 162 0
 331 00be 03F07003 		and	r3, r3, #112
 332 00c2 202B     		cmp	r3, #32
 333 00c4 1DD0     		beq	.L37
 163:Middlewares/Third_Party/wakaama/uri.c ****     {
 164:Middlewares/Third_Party/wakaama/uri.c ****         if (uriPath != NULL) goto error;
 165:Middlewares/Third_Party/wakaama/uri.c ****         return uriP;
 166:Middlewares/Third_Party/wakaama/uri.c ****     }
 167:Middlewares/Third_Party/wakaama/uri.c ****     uriP->flag |= LWM2M_URI_FLAG_DM;
 168:Middlewares/Third_Party/wakaama/uri.c **** 
 169:Middlewares/Third_Party/wakaama/uri.c ****     if (uriPath == NULL) return uriP;
 334              		.loc 1 169 0
ARM GAS  /var/folders/0d/93p3r6493yg7p0rvl_4r983m0000gn/T//cciOArKx.s 			page 10


 335 00c6 D4B1     		cbz	r4, .L16
 170:Middlewares/Third_Party/wakaama/uri.c **** 
 171:Middlewares/Third_Party/wakaama/uri.c ****     // Read object instance
 172:Middlewares/Third_Party/wakaama/uri.c ****     if (uriPath->len != 0)
 336              		.loc 1 172 0
 337 00c8 6179     		ldrb	r1, [r4, #5]	@ zero_extendqisi2
 338 00ca 09BB     		cbnz	r1, .L38
 339              	.L28:
 173:Middlewares/Third_Party/wakaama/uri.c ****     {
 174:Middlewares/Third_Party/wakaama/uri.c ****         readNum = uri_getNumber(uriPath->data, uriPath->len);
 175:Middlewares/Third_Party/wakaama/uri.c ****         if (readNum < 0 || readNum >= LWM2M_MAX_ID) goto error;
 176:Middlewares/Third_Party/wakaama/uri.c ****         uriP->instanceId = (uint16_t)readNum;
 177:Middlewares/Third_Party/wakaama/uri.c ****         uriP->flag |= LWM2M_URI_FLAG_INSTANCE_ID;
 178:Middlewares/Third_Party/wakaama/uri.c ****     }
 179:Middlewares/Third_Party/wakaama/uri.c ****     uriPath = uriPath->next;
 340              		.loc 1 179 0
 341 00cc 2468     		ldr	r4, [r4]
 342              	.LVL36:
 180:Middlewares/Third_Party/wakaama/uri.c **** 
 181:Middlewares/Third_Party/wakaama/uri.c ****     if (uriPath == NULL) return uriP;
 343              		.loc 1 181 0
 344 00ce B4B1     		cbz	r4, .L16
 182:Middlewares/Third_Party/wakaama/uri.c **** 
 183:Middlewares/Third_Party/wakaama/uri.c ****     // Read resource ID
 184:Middlewares/Third_Party/wakaama/uri.c ****     if (uriPath->len != 0)
 345              		.loc 1 184 0
 346 00d0 6179     		ldrb	r1, [r4, #5]	@ zero_extendqisi2
 347 00d2 71B1     		cbz	r1, .L29
 185:Middlewares/Third_Party/wakaama/uri.c ****     {
 186:Middlewares/Third_Party/wakaama/uri.c ****         // resource ID without an instance ID is not allowed
 187:Middlewares/Third_Party/wakaama/uri.c ****         if ((uriP->flag & LWM2M_URI_FLAG_INSTANCE_ID) == 0) goto error;
 348              		.loc 1 187 0
 349 00d4 2B78     		ldrb	r3, [r5]	@ zero_extendqisi2
 350 00d6 13F0020F 		tst	r3, #2
 351 00da 14D0     		beq	.L20
 188:Middlewares/Third_Party/wakaama/uri.c **** 
 189:Middlewares/Third_Party/wakaama/uri.c ****         readNum = uri_getNumber(uriPath->data, uriPath->len);
 352              		.loc 1 189 0
 353 00dc A068     		ldr	r0, [r4, #8]
 354              	.LVL37:
 355 00de FFF7FEFF 		bl	uri_getNumber
 356              	.LVL38:
 190:Middlewares/Third_Party/wakaama/uri.c ****         if (readNum < 0 || readNum > LWM2M_MAX_ID) goto error;
 357              		.loc 1 190 0
 358 00e2 B0F5803F 		cmp	r0, #65536
 359 00e6 0ED2     		bcs	.L20
 191:Middlewares/Third_Party/wakaama/uri.c ****         uriP->resourceId = (uint16_t)readNum;
 360              		.loc 1 191 0
 361 00e8 E880     		strh	r0, [r5, #6]	@ movhi
 192:Middlewares/Third_Party/wakaama/uri.c ****         uriP->flag |= LWM2M_URI_FLAG_RESOURCE_ID;
 362              		.loc 1 192 0
 363 00ea 2B78     		ldrb	r3, [r5]	@ zero_extendqisi2
 364 00ec 43F00103 		orr	r3, r3, #1
 365 00f0 2B70     		strb	r3, [r5]
 366              	.L29:
 193:Middlewares/Third_Party/wakaama/uri.c ****     }
 194:Middlewares/Third_Party/wakaama/uri.c **** 
ARM GAS  /var/folders/0d/93p3r6493yg7p0rvl_4r983m0000gn/T//cciOArKx.s 			page 11


 195:Middlewares/Third_Party/wakaama/uri.c ****     // must be the last segment
 196:Middlewares/Third_Party/wakaama/uri.c ****     if (NULL == uriPath->next)
 367              		.loc 1 196 0
 368 00f2 2368     		ldr	r3, [r4]
 369 00f4 1BB1     		cbz	r3, .L16
 197:Middlewares/Third_Party/wakaama/uri.c ****     {
 198:Middlewares/Third_Party/wakaama/uri.c ****         LOG_URI(uriP);
 199:Middlewares/Third_Party/wakaama/uri.c ****         return uriP;
 200:Middlewares/Third_Party/wakaama/uri.c ****     }
 201:Middlewares/Third_Party/wakaama/uri.c **** 
 202:Middlewares/Third_Party/wakaama/uri.c **** error:
 370              		.loc 1 202 0
 371 00f6 06E0     		b	.L20
 372              	.LVL39:
 373              	.L26:
 151:Middlewares/Third_Party/wakaama/uri.c ****             return uriP;
 374              		.loc 1 151 0
 375 00f8 40F01000 		orr	r0, r0, #16
 376 00fc 2870     		strb	r0, [r5]
 377              	.LVL40:
 378              	.L16:
 203:Middlewares/Third_Party/wakaama/uri.c ****     LOG("Exiting on error");
 204:Middlewares/Third_Party/wakaama/uri.c ****     lwm2m_free(uriP);
 205:Middlewares/Third_Party/wakaama/uri.c ****     return NULL;
 206:Middlewares/Third_Party/wakaama/uri.c **** }
 379              		.loc 1 206 0
 380 00fe 2846     		mov	r0, r5
 381 0100 70BD     		pop	{r4, r5, r6, pc}
 382              	.LVL41:
 383              	.L37:
 164:Middlewares/Third_Party/wakaama/uri.c ****         return uriP;
 384              		.loc 1 164 0
 385 0102 002C     		cmp	r4, #0
 386 0104 FBD0     		beq	.L16
 387              	.LVL42:
 388              	.L20:
 204:Middlewares/Third_Party/wakaama/uri.c ****     return NULL;
 389              		.loc 1 204 0
 390 0106 2846     		mov	r0, r5
 391 0108 FFF7FEFF 		bl	lwm2m_free
 392              	.LVL43:
 205:Middlewares/Third_Party/wakaama/uri.c **** }
 393              		.loc 1 205 0
 394 010c 0025     		movs	r5, #0
 395              	.LVL44:
 396 010e F6E7     		b	.L16
 397              	.LVL45:
 398              	.L38:
 174:Middlewares/Third_Party/wakaama/uri.c ****         if (readNum < 0 || readNum >= LWM2M_MAX_ID) goto error;
 399              		.loc 1 174 0
 400 0110 A068     		ldr	r0, [r4, #8]
 401              	.LVL46:
 402 0112 FFF7FEFF 		bl	uri_getNumber
 403              	.LVL47:
 175:Middlewares/Third_Party/wakaama/uri.c ****         uriP->instanceId = (uint16_t)readNum;
 404              		.loc 1 175 0
 405 0116 4FF6FE73 		movw	r3, #65534
ARM GAS  /var/folders/0d/93p3r6493yg7p0rvl_4r983m0000gn/T//cciOArKx.s 			page 12


 406 011a 9842     		cmp	r0, r3
 407 011c F3D8     		bhi	.L20
 176:Middlewares/Third_Party/wakaama/uri.c ****         uriP->flag |= LWM2M_URI_FLAG_INSTANCE_ID;
 408              		.loc 1 176 0
 409 011e A880     		strh	r0, [r5, #4]	@ movhi
 177:Middlewares/Third_Party/wakaama/uri.c ****     }
 410              		.loc 1 177 0
 411 0120 2B78     		ldrb	r3, [r5]	@ zero_extendqisi2
 412 0122 43F00203 		orr	r3, r3, #2
 413 0126 2B70     		strb	r3, [r5]
 414 0128 D0E7     		b	.L28
 415              	.L40:
 416 012a 00BF     		.align	2
 417              	.L39:
 418 012c 00000000 		.word	.LC0
 419 0130 04000000 		.word	.LC1
 420              		.cfi_endproc
 421              	.LFE5:
 423              		.section	.text.lwm2m_stringToUri,"ax",%progbits
 424              		.align	1
 425              		.global	lwm2m_stringToUri
 426              		.syntax unified
 427              		.thumb
 428              		.thumb_func
 429              		.fpu fpv4-sp-d16
 431              	lwm2m_stringToUri:
 432              	.LFB6:
 207:Middlewares/Third_Party/wakaama/uri.c **** 
 208:Middlewares/Third_Party/wakaama/uri.c **** int lwm2m_stringToUri(const char * buffer,
 209:Middlewares/Third_Party/wakaama/uri.c ****                       size_t buffer_len,
 210:Middlewares/Third_Party/wakaama/uri.c ****                       lwm2m_uri_t * uriP)
 211:Middlewares/Third_Party/wakaama/uri.c **** {
 433              		.loc 1 211 0
 434              		.cfi_startproc
 435              		@ args = 0, pretend = 0, frame = 8
 436              		@ frame_needed = 0, uses_anonymous_args = 0
 437              	.LVL48:
 212:Middlewares/Third_Party/wakaama/uri.c ****     size_t head;
 213:Middlewares/Third_Party/wakaama/uri.c ****     int readNum;
 214:Middlewares/Third_Party/wakaama/uri.c **** 
 215:Middlewares/Third_Party/wakaama/uri.c ****     LOG_ARG("buffer_len: %u, buffer: \"%.*s\"", buffer_len, buffer_len, buffer);
 216:Middlewares/Third_Party/wakaama/uri.c **** 
 217:Middlewares/Third_Party/wakaama/uri.c ****     if (buffer == NULL || buffer_len == 0 || uriP == NULL) return 0;
 438              		.loc 1 217 0
 439 0000 0028     		cmp	r0, #0
 440 0002 69D0     		beq	.L50
 211:Middlewares/Third_Party/wakaama/uri.c ****     size_t head;
 441              		.loc 1 211 0 discriminator 2
 442 0004 F0B5     		push	{r4, r5, r6, r7, lr}
 443              	.LCFI7:
 444              		.cfi_def_cfa_offset 20
 445              		.cfi_offset 4, -20
 446              		.cfi_offset 5, -16
 447              		.cfi_offset 6, -12
 448              		.cfi_offset 7, -8
 449              		.cfi_offset 14, -4
 450 0006 83B0     		sub	sp, sp, #12
ARM GAS  /var/folders/0d/93p3r6493yg7p0rvl_4r983m0000gn/T//cciOArKx.s 			page 13


 451              	.LCFI8:
 452              		.cfi_def_cfa_offset 32
 453 0008 0646     		mov	r6, r0
 454              		.loc 1 217 0 discriminator 2
 455 000a 0029     		cmp	r1, #0
 456 000c 66D0     		beq	.L51
 457              		.loc 1 217 0 is_stmt 0 discriminator 4
 458 000e 002A     		cmp	r2, #0
 459 0010 67D0     		beq	.L52
 460 0012 1746     		mov	r7, r2
 461 0014 0D46     		mov	r5, r1
 218:Middlewares/Third_Party/wakaama/uri.c **** 
 219:Middlewares/Third_Party/wakaama/uri.c ****     memset(uriP, 0, sizeof(lwm2m_uri_t));
 462              		.loc 1 219 0 is_stmt 1
 463 0016 0023     		movs	r3, #0
 464 0018 1360     		str	r3, [r2]	@ unaligned
 465 001a 5360     		str	r3, [r2, #4]	@ unaligned
 220:Middlewares/Third_Party/wakaama/uri.c **** 
 221:Middlewares/Third_Party/wakaama/uri.c ****     // Skip any white space
 222:Middlewares/Third_Party/wakaama/uri.c ****     head = 0;
 466              		.loc 1 222 0
 467 001c 0193     		str	r3, [sp, #4]
 223:Middlewares/Third_Party/wakaama/uri.c ****     while (head < buffer_len && isspace(buffer[head]&0xFF))
 468              		.loc 1 223 0
 469 001e 01E0     		b	.L43
 470              	.LVL49:
 471              	.L45:
 224:Middlewares/Third_Party/wakaama/uri.c ****     {
 225:Middlewares/Third_Party/wakaama/uri.c ****         head++;
 472              		.loc 1 225 0
 473 0020 0133     		adds	r3, r3, #1
 474 0022 0193     		str	r3, [sp, #4]
 475              	.L43:
 223:Middlewares/Third_Party/wakaama/uri.c ****     while (head < buffer_len && isspace(buffer[head]&0xFF))
 476              		.loc 1 223 0
 477 0024 019B     		ldr	r3, [sp, #4]
 478 0026 AB42     		cmp	r3, r5
 479 0028 08D2     		bcs	.L44
 223:Middlewares/Third_Party/wakaama/uri.c ****     while (head < buffer_len && isspace(buffer[head]&0xFF))
 480              		.loc 1 223 0 is_stmt 0 discriminator 1
 481 002a FFF7FEFF 		bl	__locale_ctype_ptr
 482              	.LVL50:
 483 002e 019B     		ldr	r3, [sp, #4]
 484 0030 F45C     		ldrb	r4, [r6, r3]	@ zero_extendqisi2
 485 0032 0444     		add	r4, r4, r0
 486 0034 6278     		ldrb	r2, [r4, #1]	@ zero_extendqisi2
 487 0036 12F0080F 		tst	r2, #8
 488 003a F1D1     		bne	.L45
 489              	.L44:
 226:Middlewares/Third_Party/wakaama/uri.c ****     }
 227:Middlewares/Third_Party/wakaama/uri.c ****     if (head == buffer_len) return 0;
 490              		.loc 1 227 0 is_stmt 1
 491 003c 019B     		ldr	r3, [sp, #4]
 492 003e AB42     		cmp	r3, r5
 493 0040 51D0     		beq	.L53
 228:Middlewares/Third_Party/wakaama/uri.c **** 
 229:Middlewares/Third_Party/wakaama/uri.c ****     // Check the URI start with a '/'
ARM GAS  /var/folders/0d/93p3r6493yg7p0rvl_4r983m0000gn/T//cciOArKx.s 			page 14


 230:Middlewares/Third_Party/wakaama/uri.c ****     if (buffer[head] != '/') return 0;
 494              		.loc 1 230 0
 495 0042 F25C     		ldrb	r2, [r6, r3]	@ zero_extendqisi2
 496 0044 2F2A     		cmp	r2, #47
 497 0046 01D0     		beq	.L64
 498 0048 0020     		movs	r0, #0
 499 004a 48E0     		b	.L41
 500              	.L64:
 231:Middlewares/Third_Party/wakaama/uri.c ****     head++;
 501              		.loc 1 231 0
 502 004c 0133     		adds	r3, r3, #1
 503 004e 0193     		str	r3, [sp, #4]
 232:Middlewares/Third_Party/wakaama/uri.c ****     if (head == buffer_len) return 0;
 504              		.loc 1 232 0
 505 0050 AB42     		cmp	r3, r5
 506 0052 4AD0     		beq	.L55
 233:Middlewares/Third_Party/wakaama/uri.c **** 
 234:Middlewares/Third_Party/wakaama/uri.c ****     // Read object ID
 235:Middlewares/Third_Party/wakaama/uri.c ****     readNum = prv_parseNumber((uint8_t *)buffer, buffer_len, &head);
 507              		.loc 1 235 0
 508 0054 01AA     		add	r2, sp, #4
 509 0056 2946     		mov	r1, r5
 510 0058 3046     		mov	r0, r6
 511 005a FFF7FEFF 		bl	prv_parseNumber
 512              	.LVL51:
 236:Middlewares/Third_Party/wakaama/uri.c ****     if (readNum < 0 || readNum > LWM2M_MAX_ID) return 0;
 513              		.loc 1 236 0
 514 005e B0F5803F 		cmp	r0, #65536
 515 0062 44D2     		bcs	.L56
 237:Middlewares/Third_Party/wakaama/uri.c ****     uriP->objectId = (uint16_t)readNum;
 516              		.loc 1 237 0
 517 0064 7880     		strh	r0, [r7, #2]	@ movhi
 238:Middlewares/Third_Party/wakaama/uri.c ****     uriP->flag |= LWM2M_URI_FLAG_OBJECT_ID;
 518              		.loc 1 238 0
 519 0066 3B78     		ldrb	r3, [r7]	@ zero_extendqisi2
 520 0068 43F00403 		orr	r3, r3, #4
 521 006c 3B70     		strb	r3, [r7]
 239:Middlewares/Third_Party/wakaama/uri.c **** 
 240:Middlewares/Third_Party/wakaama/uri.c ****     if (buffer[head] == '/') head += 1;
 522              		.loc 1 240 0
 523 006e 019B     		ldr	r3, [sp, #4]
 524 0070 F25C     		ldrb	r2, [r6, r3]	@ zero_extendqisi2
 525 0072 2F2A     		cmp	r2, #47
 526 0074 2AD0     		beq	.L65
 527              	.L46:
 241:Middlewares/Third_Party/wakaama/uri.c ****     if (head >= buffer_len)
 528              		.loc 1 241 0
 529 0076 0198     		ldr	r0, [sp, #4]
 530              	.LVL52:
 531 0078 A842     		cmp	r0, r5
 532 007a 30D2     		bcs	.L41
 242:Middlewares/Third_Party/wakaama/uri.c ****     {
 243:Middlewares/Third_Party/wakaama/uri.c ****         LOG_ARG("Parsed characters: %u", head);
 244:Middlewares/Third_Party/wakaama/uri.c ****         LOG_URI(uriP);
 245:Middlewares/Third_Party/wakaama/uri.c ****         return head;
 246:Middlewares/Third_Party/wakaama/uri.c ****     }
 247:Middlewares/Third_Party/wakaama/uri.c **** 
ARM GAS  /var/folders/0d/93p3r6493yg7p0rvl_4r983m0000gn/T//cciOArKx.s 			page 15


 248:Middlewares/Third_Party/wakaama/uri.c ****     readNum = prv_parseNumber((uint8_t *)buffer, buffer_len, &head);
 533              		.loc 1 248 0
 534 007c 01AA     		add	r2, sp, #4
 535 007e 2946     		mov	r1, r5
 536 0080 3046     		mov	r0, r6
 537 0082 FFF7FEFF 		bl	prv_parseNumber
 538              	.LVL53:
 249:Middlewares/Third_Party/wakaama/uri.c ****     if (readNum < 0 || readNum >= LWM2M_MAX_ID) return 0;
 539              		.loc 1 249 0
 540 0086 4FF6FE73 		movw	r3, #65534
 541 008a 9842     		cmp	r0, r3
 542 008c 31D8     		bhi	.L57
 250:Middlewares/Third_Party/wakaama/uri.c ****     uriP->instanceId = (uint16_t)readNum;
 543              		.loc 1 250 0
 544 008e B880     		strh	r0, [r7, #4]	@ movhi
 251:Middlewares/Third_Party/wakaama/uri.c ****     uriP->flag |= LWM2M_URI_FLAG_INSTANCE_ID;
 545              		.loc 1 251 0
 546 0090 3B78     		ldrb	r3, [r7]	@ zero_extendqisi2
 547 0092 43F00203 		orr	r3, r3, #2
 548 0096 3B70     		strb	r3, [r7]
 252:Middlewares/Third_Party/wakaama/uri.c **** 
 253:Middlewares/Third_Party/wakaama/uri.c ****     if (buffer[head] == '/') head += 1;
 549              		.loc 1 253 0
 550 0098 019B     		ldr	r3, [sp, #4]
 551 009a F25C     		ldrb	r2, [r6, r3]	@ zero_extendqisi2
 552 009c 2F2A     		cmp	r2, #47
 553 009e 18D0     		beq	.L66
 554              	.L48:
 254:Middlewares/Third_Party/wakaama/uri.c ****     if (head >= buffer_len)
 555              		.loc 1 254 0
 556 00a0 0198     		ldr	r0, [sp, #4]
 557              	.LVL54:
 558 00a2 A842     		cmp	r0, r5
 559 00a4 1BD2     		bcs	.L41
 255:Middlewares/Third_Party/wakaama/uri.c ****     {
 256:Middlewares/Third_Party/wakaama/uri.c ****         LOG_ARG("Parsed characters: %u", head);
 257:Middlewares/Third_Party/wakaama/uri.c ****         LOG_URI(uriP);
 258:Middlewares/Third_Party/wakaama/uri.c ****         return head;
 259:Middlewares/Third_Party/wakaama/uri.c ****     }
 260:Middlewares/Third_Party/wakaama/uri.c **** 
 261:Middlewares/Third_Party/wakaama/uri.c ****     readNum = prv_parseNumber((uint8_t *)buffer, buffer_len, &head);
 560              		.loc 1 261 0
 561 00a6 01AA     		add	r2, sp, #4
 562 00a8 2946     		mov	r1, r5
 563 00aa 3046     		mov	r0, r6
 564 00ac FFF7FEFF 		bl	prv_parseNumber
 565              	.LVL55:
 262:Middlewares/Third_Party/wakaama/uri.c ****     if (readNum < 0 || readNum >= LWM2M_MAX_ID) return 0;
 566              		.loc 1 262 0
 567 00b0 4FF6FE73 		movw	r3, #65534
 568 00b4 9842     		cmp	r0, r3
 569 00b6 1ED8     		bhi	.L58
 263:Middlewares/Third_Party/wakaama/uri.c ****     uriP->resourceId = (uint16_t)readNum;
 570              		.loc 1 263 0
 571 00b8 F880     		strh	r0, [r7, #6]	@ movhi
 264:Middlewares/Third_Party/wakaama/uri.c ****     uriP->flag |= LWM2M_URI_FLAG_RESOURCE_ID;
 572              		.loc 1 264 0
ARM GAS  /var/folders/0d/93p3r6493yg7p0rvl_4r983m0000gn/T//cciOArKx.s 			page 16


 573 00ba 3B78     		ldrb	r3, [r7]	@ zero_extendqisi2
 574 00bc 43F00103 		orr	r3, r3, #1
 575 00c0 3B70     		strb	r3, [r7]
 265:Middlewares/Third_Party/wakaama/uri.c **** 
 266:Middlewares/Third_Party/wakaama/uri.c ****     if (head != buffer_len) return 0;
 576              		.loc 1 266 0
 577 00c2 0198     		ldr	r0, [sp, #4]
 578              	.LVL56:
 579 00c4 A842     		cmp	r0, r5
 580 00c6 0AD0     		beq	.L41
 581 00c8 0020     		movs	r0, #0
 582 00ca 08E0     		b	.L41
 583              	.LVL57:
 584              	.L65:
 240:Middlewares/Third_Party/wakaama/uri.c ****     if (head >= buffer_len)
 585              		.loc 1 240 0 discriminator 1
 586 00cc 0133     		adds	r3, r3, #1
 587 00ce 0193     		str	r3, [sp, #4]
 588 00d0 D1E7     		b	.L46
 589              	.L66:
 253:Middlewares/Third_Party/wakaama/uri.c ****     if (head >= buffer_len)
 590              		.loc 1 253 0 discriminator 1
 591 00d2 0133     		adds	r3, r3, #1
 592 00d4 0193     		str	r3, [sp, #4]
 593 00d6 E3E7     		b	.L48
 594              	.LVL58:
 595              	.L50:
 596              	.LCFI9:
 597              		.cfi_def_cfa_offset 0
 598              		.cfi_restore 4
 599              		.cfi_restore 5
 600              		.cfi_restore 6
 601              		.cfi_restore 7
 602              		.cfi_restore 14
 217:Middlewares/Third_Party/wakaama/uri.c **** 
 603              		.loc 1 217 0
 604 00d8 0020     		movs	r0, #0
 605              	.LVL59:
 267:Middlewares/Third_Party/wakaama/uri.c **** 
 268:Middlewares/Third_Party/wakaama/uri.c ****     LOG_ARG("Parsed characters: %u", head);
 269:Middlewares/Third_Party/wakaama/uri.c ****     LOG_URI(uriP);
 270:Middlewares/Third_Party/wakaama/uri.c **** 
 271:Middlewares/Third_Party/wakaama/uri.c ****     return head;
 272:Middlewares/Third_Party/wakaama/uri.c **** }
 606              		.loc 1 272 0
 607 00da 7047     		bx	lr
 608              	.LVL60:
 609              	.L51:
 610              	.LCFI10:
 611              		.cfi_def_cfa_offset 32
 612              		.cfi_offset 4, -20
 613              		.cfi_offset 5, -16
 614              		.cfi_offset 6, -12
 615              		.cfi_offset 7, -8
 616              		.cfi_offset 14, -4
 217:Middlewares/Third_Party/wakaama/uri.c **** 
 617              		.loc 1 217 0
ARM GAS  /var/folders/0d/93p3r6493yg7p0rvl_4r983m0000gn/T//cciOArKx.s 			page 17


 618 00dc 0020     		movs	r0, #0
 619              	.LVL61:
 620              	.L41:
 621              		.loc 1 272 0
 622 00de 03B0     		add	sp, sp, #12
 623              	.LCFI11:
 624              		.cfi_remember_state
 625              		.cfi_def_cfa_offset 20
 626              		@ sp needed
 627 00e0 F0BD     		pop	{r4, r5, r6, r7, pc}
 628              	.LVL62:
 629              	.L52:
 630              	.LCFI12:
 631              		.cfi_restore_state
 217:Middlewares/Third_Party/wakaama/uri.c **** 
 632              		.loc 1 217 0
 633 00e2 0020     		movs	r0, #0
 634              	.LVL63:
 635 00e4 FBE7     		b	.L41
 636              	.LVL64:
 637              	.L53:
 227:Middlewares/Third_Party/wakaama/uri.c **** 
 638              		.loc 1 227 0
 639 00e6 0020     		movs	r0, #0
 640 00e8 F9E7     		b	.L41
 641              	.L55:
 232:Middlewares/Third_Party/wakaama/uri.c **** 
 642              		.loc 1 232 0
 643 00ea 0020     		movs	r0, #0
 644 00ec F7E7     		b	.L41
 645              	.LVL65:
 646              	.L56:
 236:Middlewares/Third_Party/wakaama/uri.c ****     uriP->objectId = (uint16_t)readNum;
 647              		.loc 1 236 0
 648 00ee 0020     		movs	r0, #0
 649              	.LVL66:
 650 00f0 F5E7     		b	.L41
 651              	.LVL67:
 652              	.L57:
 249:Middlewares/Third_Party/wakaama/uri.c ****     uriP->instanceId = (uint16_t)readNum;
 653              		.loc 1 249 0
 654 00f2 0020     		movs	r0, #0
 655              	.LVL68:
 656 00f4 F3E7     		b	.L41
 657              	.LVL69:
 658              	.L58:
 262:Middlewares/Third_Party/wakaama/uri.c ****     uriP->resourceId = (uint16_t)readNum;
 659              		.loc 1 262 0
 660 00f6 0020     		movs	r0, #0
 661              	.LVL70:
 662 00f8 F1E7     		b	.L41
 663              		.cfi_endproc
 664              	.LFE6:
 666              		.section	.text.uri_toString,"ax",%progbits
 667              		.align	1
 668              		.global	uri_toString
 669              		.syntax unified
ARM GAS  /var/folders/0d/93p3r6493yg7p0rvl_4r983m0000gn/T//cciOArKx.s 			page 18


 670              		.thumb
 671              		.thumb_func
 672              		.fpu fpv4-sp-d16
 674              	uri_toString:
 675              	.LFB7:
 273:Middlewares/Third_Party/wakaama/uri.c **** 
 274:Middlewares/Third_Party/wakaama/uri.c **** int uri_toString(lwm2m_uri_t * uriP,
 275:Middlewares/Third_Party/wakaama/uri.c ****                  uint8_t * buffer,
 276:Middlewares/Third_Party/wakaama/uri.c ****                  size_t bufferLen,
 277:Middlewares/Third_Party/wakaama/uri.c ****                  uri_depth_t * depthP)
 278:Middlewares/Third_Party/wakaama/uri.c **** {
 676              		.loc 1 278 0
 677              		.cfi_startproc
 678              		@ args = 0, pretend = 0, frame = 0
 679              		@ frame_needed = 0, uses_anonymous_args = 0
 680              	.LVL71:
 681 0000 2DE9F843 		push	{r3, r4, r5, r6, r7, r8, r9, lr}
 682              	.LCFI13:
 683              		.cfi_def_cfa_offset 32
 684              		.cfi_offset 3, -32
 685              		.cfi_offset 4, -28
 686              		.cfi_offset 5, -24
 687              		.cfi_offset 6, -20
 688              		.cfi_offset 7, -16
 689              		.cfi_offset 8, -12
 690              		.cfi_offset 9, -8
 691              		.cfi_offset 14, -4
 279:Middlewares/Third_Party/wakaama/uri.c ****     size_t head;
 280:Middlewares/Third_Party/wakaama/uri.c ****     int res;
 281:Middlewares/Third_Party/wakaama/uri.c **** 
 282:Middlewares/Third_Party/wakaama/uri.c ****     LOG_ARG("bufferLen: %u", bufferLen);
 283:Middlewares/Third_Party/wakaama/uri.c ****     LOG_URI(uriP);
 284:Middlewares/Third_Party/wakaama/uri.c **** 
 285:Middlewares/Third_Party/wakaama/uri.c ****     buffer[0] = '/';
 692              		.loc 1 285 0
 693 0004 2F24     		movs	r4, #47
 694 0006 0C70     		strb	r4, [r1]
 286:Middlewares/Third_Party/wakaama/uri.c **** 
 287:Middlewares/Third_Party/wakaama/uri.c ****     if (uriP == NULL)
 695              		.loc 1 287 0
 696 0008 E0B1     		cbz	r0, .L81
 697 000a 0746     		mov	r7, r0
 698 000c 1E46     		mov	r6, r3
 699 000e 9046     		mov	r8, r2
 700 0010 0D46     		mov	r5, r1
 701              	.LVL72:
 288:Middlewares/Third_Party/wakaama/uri.c ****     {
 289:Middlewares/Third_Party/wakaama/uri.c ****         if (depthP) *depthP = URI_DEPTH_OBJECT;
 290:Middlewares/Third_Party/wakaama/uri.c ****         return 1;
 291:Middlewares/Third_Party/wakaama/uri.c ****     }
 292:Middlewares/Third_Party/wakaama/uri.c **** 
 293:Middlewares/Third_Party/wakaama/uri.c ****     head = 1;
 294:Middlewares/Third_Party/wakaama/uri.c **** 
 295:Middlewares/Third_Party/wakaama/uri.c ****     res = utils_intToText(uriP->objectId, buffer + head, bufferLen - head);
 702              		.loc 1 295 0
 703 0012 02F1FF39 		add	r9, r2, #-1
 704 0016 4B46     		mov	r3, r9
ARM GAS  /var/folders/0d/93p3r6493yg7p0rvl_4r983m0000gn/T//cciOArKx.s 			page 19


 705              	.LVL73:
 706 0018 4A1C     		adds	r2, r1, #1
 707              	.LVL74:
 708 001a 7888     		ldrh	r0, [r7, #2]
 709              	.LVL75:
 710 001c 0021     		movs	r1, #0
 711              	.LVL76:
 712 001e FFF7FEFF 		bl	utils_intToText
 713              	.LVL77:
 296:Middlewares/Third_Party/wakaama/uri.c ****     if (res <= 0) return -1;
 714              		.loc 1 296 0
 715 0022 0028     		cmp	r0, #0
 716 0024 3FDD     		ble	.L74
 297:Middlewares/Third_Party/wakaama/uri.c ****     head += res;
 717              		.loc 1 297 0
 718 0026 441C     		adds	r4, r0, #1
 719              	.LVL78:
 298:Middlewares/Third_Party/wakaama/uri.c ****     if (head >= bufferLen - 1) return -1;
 720              		.loc 1 298 0
 721 0028 A145     		cmp	r9, r4
 722 002a 3FD9     		bls	.L75
 299:Middlewares/Third_Party/wakaama/uri.c ****     if (depthP) *depthP = URI_DEPTH_OBJECT_INSTANCE;
 723              		.loc 1 299 0
 724 002c 0EB1     		cbz	r6, .L70
 725              		.loc 1 299 0 is_stmt 0 discriminator 1
 726 002e 0123     		movs	r3, #1
 727 0030 3370     		strb	r3, [r6]
 728              	.L70:
 300:Middlewares/Third_Party/wakaama/uri.c **** 
 301:Middlewares/Third_Party/wakaama/uri.c ****     if (LWM2M_URI_IS_SET_INSTANCE(uriP))
 729              		.loc 1 301 0 is_stmt 1
 730 0032 3B78     		ldrb	r3, [r7]	@ zero_extendqisi2
 731 0034 13F0020F 		tst	r3, #2
 732 0038 09D1     		bne	.L82
 733              	.L71:
 302:Middlewares/Third_Party/wakaama/uri.c ****     {
 303:Middlewares/Third_Party/wakaama/uri.c ****         buffer[head] = '/';
 304:Middlewares/Third_Party/wakaama/uri.c ****         head++;
 305:Middlewares/Third_Party/wakaama/uri.c ****         res = utils_intToText(uriP->instanceId, buffer + head, bufferLen - head);
 306:Middlewares/Third_Party/wakaama/uri.c ****         if (res <= 0) return -1;
 307:Middlewares/Third_Party/wakaama/uri.c ****         head += res;
 308:Middlewares/Third_Party/wakaama/uri.c ****         if (head >= bufferLen - 1) return -1;
 309:Middlewares/Third_Party/wakaama/uri.c ****         if (depthP) *depthP = URI_DEPTH_RESOURCE;
 310:Middlewares/Third_Party/wakaama/uri.c ****         if (LWM2M_URI_IS_SET_RESOURCE(uriP))
 311:Middlewares/Third_Party/wakaama/uri.c ****         {
 312:Middlewares/Third_Party/wakaama/uri.c ****             buffer[head] = '/';
 313:Middlewares/Third_Party/wakaama/uri.c ****             head++;
 314:Middlewares/Third_Party/wakaama/uri.c ****             res = utils_intToText(uriP->resourceId, buffer + head, bufferLen - head);
 315:Middlewares/Third_Party/wakaama/uri.c ****             if (res <= 0) return -1;
 316:Middlewares/Third_Party/wakaama/uri.c ****             head += res;
 317:Middlewares/Third_Party/wakaama/uri.c ****             if (head >= bufferLen - 1) return -1;
 318:Middlewares/Third_Party/wakaama/uri.c ****             if (depthP) *depthP = URI_DEPTH_RESOURCE_INSTANCE;
 319:Middlewares/Third_Party/wakaama/uri.c ****         }
 320:Middlewares/Third_Party/wakaama/uri.c ****     }
 321:Middlewares/Third_Party/wakaama/uri.c **** 
 322:Middlewares/Third_Party/wakaama/uri.c ****     buffer[head] = '/';
 734              		.loc 1 322 0
ARM GAS  /var/folders/0d/93p3r6493yg7p0rvl_4r983m0000gn/T//cciOArKx.s 			page 20


 735 003a 2F23     		movs	r3, #47
 736 003c 2B55     		strb	r3, [r5, r4]
 323:Middlewares/Third_Party/wakaama/uri.c ****     head++;
 737              		.loc 1 323 0
 738 003e 601C     		adds	r0, r4, #1
 739              	.LVL79:
 740              	.L67:
 324:Middlewares/Third_Party/wakaama/uri.c **** 
 325:Middlewares/Third_Party/wakaama/uri.c ****     LOG_ARG("length: %u, buffer: \"%.*s\"", head, head, buffer);
 326:Middlewares/Third_Party/wakaama/uri.c **** 
 327:Middlewares/Third_Party/wakaama/uri.c ****     return head;
 328:Middlewares/Third_Party/wakaama/uri.c **** }
 741              		.loc 1 328 0
 742 0040 BDE8F883 		pop	{r3, r4, r5, r6, r7, r8, r9, pc}
 743              	.LVL80:
 744              	.L81:
 289:Middlewares/Third_Party/wakaama/uri.c ****         return 1;
 745              		.loc 1 289 0
 746 0044 6BB3     		cbz	r3, .L73
 289:Middlewares/Third_Party/wakaama/uri.c ****         return 1;
 747              		.loc 1 289 0 is_stmt 0 discriminator 1
 748 0046 0022     		movs	r2, #0
 749              	.LVL81:
 750 0048 1A70     		strb	r2, [r3]
 290:Middlewares/Third_Party/wakaama/uri.c ****     }
 751              		.loc 1 290 0 is_stmt 1 discriminator 1
 752 004a 0120     		movs	r0, #1
 753              	.LVL82:
 754 004c F8E7     		b	.L67
 755              	.LVL83:
 756              	.L82:
 303:Middlewares/Third_Party/wakaama/uri.c ****         head++;
 757              		.loc 1 303 0
 758 004e 2F23     		movs	r3, #47
 759 0050 2B55     		strb	r3, [r5, r4]
 304:Middlewares/Third_Party/wakaama/uri.c ****         res = utils_intToText(uriP->instanceId, buffer + head, bufferLen - head);
 760              		.loc 1 304 0
 761 0052 841C     		adds	r4, r0, #2
 762              	.LVL84:
 305:Middlewares/Third_Party/wakaama/uri.c ****         if (res <= 0) return -1;
 763              		.loc 1 305 0
 764 0054 A8EB0403 		sub	r3, r8, r4
 765 0058 2A19     		adds	r2, r5, r4
 766 005a B888     		ldrh	r0, [r7, #4]
 767              	.LVL85:
 768 005c 0021     		movs	r1, #0
 769 005e FFF7FEFF 		bl	utils_intToText
 770              	.LVL86:
 306:Middlewares/Third_Party/wakaama/uri.c ****         head += res;
 771              		.loc 1 306 0
 772 0062 0028     		cmp	r0, #0
 773 0064 25DD     		ble	.L76
 307:Middlewares/Third_Party/wakaama/uri.c ****         if (head >= bufferLen - 1) return -1;
 774              		.loc 1 307 0
 775 0066 0444     		add	r4, r4, r0
 776              	.LVL87:
 308:Middlewares/Third_Party/wakaama/uri.c ****         if (depthP) *depthP = URI_DEPTH_RESOURCE;
ARM GAS  /var/folders/0d/93p3r6493yg7p0rvl_4r983m0000gn/T//cciOArKx.s 			page 21


 777              		.loc 1 308 0
 778 0068 A145     		cmp	r9, r4
 779 006a 25D9     		bls	.L77
 309:Middlewares/Third_Party/wakaama/uri.c ****         if (LWM2M_URI_IS_SET_RESOURCE(uriP))
 780              		.loc 1 309 0
 781 006c 0EB1     		cbz	r6, .L72
 309:Middlewares/Third_Party/wakaama/uri.c ****         if (LWM2M_URI_IS_SET_RESOURCE(uriP))
 782              		.loc 1 309 0 is_stmt 0 discriminator 1
 783 006e 0223     		movs	r3, #2
 784 0070 3370     		strb	r3, [r6]
 785              	.L72:
 310:Middlewares/Third_Party/wakaama/uri.c ****         {
 786              		.loc 1 310 0 is_stmt 1
 787 0072 3B78     		ldrb	r3, [r7]	@ zero_extendqisi2
 788 0074 13F0010F 		tst	r3, #1
 789 0078 DFD0     		beq	.L71
 312:Middlewares/Third_Party/wakaama/uri.c ****             head++;
 790              		.loc 1 312 0
 791 007a 2F23     		movs	r3, #47
 792 007c 2B55     		strb	r3, [r5, r4]
 313:Middlewares/Third_Party/wakaama/uri.c ****             res = utils_intToText(uriP->resourceId, buffer + head, bufferLen - head);
 793              		.loc 1 313 0
 794 007e 0134     		adds	r4, r4, #1
 795              	.LVL88:
 314:Middlewares/Third_Party/wakaama/uri.c ****             if (res <= 0) return -1;
 796              		.loc 1 314 0
 797 0080 A8EB0403 		sub	r3, r8, r4
 798 0084 2A19     		adds	r2, r5, r4
 799 0086 F888     		ldrh	r0, [r7, #6]
 800              	.LVL89:
 801 0088 0021     		movs	r1, #0
 802 008a FFF7FEFF 		bl	utils_intToText
 803              	.LVL90:
 315:Middlewares/Third_Party/wakaama/uri.c ****             head += res;
 804              		.loc 1 315 0
 805 008e 0028     		cmp	r0, #0
 806 0090 15DD     		ble	.L78
 316:Middlewares/Third_Party/wakaama/uri.c ****             if (head >= bufferLen - 1) return -1;
 807              		.loc 1 316 0
 808 0092 0444     		add	r4, r4, r0
 809              	.LVL91:
 317:Middlewares/Third_Party/wakaama/uri.c ****             if (depthP) *depthP = URI_DEPTH_RESOURCE_INSTANCE;
 810              		.loc 1 317 0
 811 0094 A145     		cmp	r9, r4
 812 0096 15D9     		bls	.L79
 318:Middlewares/Third_Party/wakaama/uri.c ****         }
 813              		.loc 1 318 0
 814 0098 002E     		cmp	r6, #0
 815 009a CED0     		beq	.L71
 318:Middlewares/Third_Party/wakaama/uri.c ****         }
 816              		.loc 1 318 0 is_stmt 0 discriminator 1
 817 009c 0323     		movs	r3, #3
 818 009e 3370     		strb	r3, [r6]
 819 00a0 CBE7     		b	.L71
 820              	.LVL92:
 821              	.L73:
 290:Middlewares/Third_Party/wakaama/uri.c ****     }
ARM GAS  /var/folders/0d/93p3r6493yg7p0rvl_4r983m0000gn/T//cciOArKx.s 			page 22


 822              		.loc 1 290 0 is_stmt 1
 823 00a2 0120     		movs	r0, #1
 824              	.LVL93:
 825 00a4 CCE7     		b	.L67
 826              	.LVL94:
 827              	.L74:
 296:Middlewares/Third_Party/wakaama/uri.c ****     head += res;
 828              		.loc 1 296 0
 829 00a6 4FF0FF30 		mov	r0, #-1
 830              	.LVL95:
 831 00aa C9E7     		b	.L67
 832              	.LVL96:
 833              	.L75:
 298:Middlewares/Third_Party/wakaama/uri.c ****     if (depthP) *depthP = URI_DEPTH_OBJECT_INSTANCE;
 834              		.loc 1 298 0
 835 00ac 4FF0FF30 		mov	r0, #-1
 836              	.LVL97:
 837 00b0 C6E7     		b	.L67
 838              	.LVL98:
 839              	.L76:
 306:Middlewares/Third_Party/wakaama/uri.c ****         head += res;
 840              		.loc 1 306 0
 841 00b2 4FF0FF30 		mov	r0, #-1
 842              	.LVL99:
 843 00b6 C3E7     		b	.L67
 844              	.LVL100:
 845              	.L77:
 308:Middlewares/Third_Party/wakaama/uri.c ****         if (depthP) *depthP = URI_DEPTH_RESOURCE;
 846              		.loc 1 308 0
 847 00b8 4FF0FF30 		mov	r0, #-1
 848              	.LVL101:
 849 00bc C0E7     		b	.L67
 850              	.LVL102:
 851              	.L78:
 315:Middlewares/Third_Party/wakaama/uri.c ****             head += res;
 852              		.loc 1 315 0
 853 00be 4FF0FF30 		mov	r0, #-1
 854              	.LVL103:
 855 00c2 BDE7     		b	.L67
 856              	.LVL104:
 857              	.L79:
 317:Middlewares/Third_Party/wakaama/uri.c ****             if (depthP) *depthP = URI_DEPTH_RESOURCE_INSTANCE;
 858              		.loc 1 317 0
 859 00c4 4FF0FF30 		mov	r0, #-1
 860              	.LVL105:
 861 00c8 BAE7     		b	.L67
 862              		.cfi_endproc
 863              	.LFE7:
 865              		.section	.rodata.uri_decode.str1.4,"aMS",%progbits,1
 866              		.align	2
 867              	.LC0:
 868 0000 726400   		.ascii	"rd\000"
 869 0003 00       		.space	1
 870              	.LC1:
 871 0004 627300   		.ascii	"bs\000"
 872              		.text
 873              	.Letext0:
ARM GAS  /var/folders/0d/93p3r6493yg7p0rvl_4r983m0000gn/T//cciOArKx.s 			page 23


 874              		.file 2 "/usr/local/gcc_arm/gcc-arm-none-eabi-7-2017-q4-major/arm-none-eabi/include/machine/_defau
 875              		.file 3 "/usr/local/gcc_arm/gcc-arm-none-eabi-7-2017-q4-major/arm-none-eabi/include/sys/_stdint.h"
 876              		.file 4 "/usr/local/gcc_arm/gcc-arm-none-eabi-7-2017-q4-major/lib/gcc/arm-none-eabi/7.2.1/include/
 877              		.file 5 "/usr/local/gcc_arm/gcc-arm-none-eabi-7-2017-q4-major/arm-none-eabi/include/sys/lock.h"
 878              		.file 6 "/usr/local/gcc_arm/gcc-arm-none-eabi-7-2017-q4-major/arm-none-eabi/include/sys/_types.h"
 879              		.file 7 "/usr/local/gcc_arm/gcc-arm-none-eabi-7-2017-q4-major/arm-none-eabi/include/sys/reent.h"
 880              		.file 8 "/usr/local/gcc_arm/gcc-arm-none-eabi-7-2017-q4-major/arm-none-eabi/include/time.h"
 881              		.file 9 "Middlewares/Third_Party/wakaama/liblwm2m.h"
 882              		.file 10 "/usr/local/gcc_arm/gcc-arm-none-eabi-7-2017-q4-major/arm-none-eabi/include/stdlib.h"
 883              		.file 11 "Middlewares/Third_Party/wakaama/er-coap-13/er-coap-13.h"
 884              		.file 12 "Middlewares/Third_Party/wakaama/internals.h"
 885              		.file 13 "/usr/local/gcc_arm/gcc-arm-none-eabi-7-2017-q4-major/arm-none-eabi/include/ctype.h"
 886              		.file 14 "/usr/local/gcc_arm/gcc-arm-none-eabi-7-2017-q4-major/arm-none-eabi/include/string.h"
ARM GAS  /var/folders/0d/93p3r6493yg7p0rvl_4r983m0000gn/T//cciOArKx.s 			page 24

