ARM GAS  /var/folders/0d/93p3r6493yg7p0rvl_4r983m0000gn/T//ccoyKrkN.s 			page 1


   1              		.cpu cortex-m4
   2              		.eabi_attribute 27, 1
   3              		.eabi_attribute 28, 1
   4              		.eabi_attribute 20, 1
   5              		.eabi_attribute 21, 1
   6              		.eabi_attribute 23, 3
   7              		.eabi_attribute 24, 1
   8              		.eabi_attribute 25, 1
   9              		.eabi_attribute 26, 1
  10              		.eabi_attribute 30, 1
  11              		.eabi_attribute 34, 1
  12              		.eabi_attribute 18, 4
  13              		.file	"usbh_core.c"
  14              		.text
  15              	.Ltext0:
  16              		.cfi_sections	.debug_frame
  17              		.section	.text.DeInitStateMachine,"ax",%progbits
  18              		.align	1
  19              		.syntax unified
  20              		.thumb
  21              		.thumb_func
  22              		.fpu fpv4-sp-d16
  24              	DeInitStateMachine:
  25              	.LFB133:
  26              		.file 1 "Middlewares/ST/STM32_USB_Host_Library/Core/Src/usbh_core.c"
   1:Middlewares/ST/STM32_USB_Host_Library/Core/Src/usbh_core.c **** /**
   2:Middlewares/ST/STM32_USB_Host_Library/Core/Src/usbh_core.c ****   ******************************************************************************
   3:Middlewares/ST/STM32_USB_Host_Library/Core/Src/usbh_core.c ****   * @file    usbh_core.c 
   4:Middlewares/ST/STM32_USB_Host_Library/Core/Src/usbh_core.c ****   * @author  MCD Application Team
   5:Middlewares/ST/STM32_USB_Host_Library/Core/Src/usbh_core.c ****   * @version V3.2.2
   6:Middlewares/ST/STM32_USB_Host_Library/Core/Src/usbh_core.c ****   * @date    07-July-2015
   7:Middlewares/ST/STM32_USB_Host_Library/Core/Src/usbh_core.c ****   * @brief   This file implements the functions for the core state machine process
   8:Middlewares/ST/STM32_USB_Host_Library/Core/Src/usbh_core.c ****   *          the enumeration and the control transfer process
   9:Middlewares/ST/STM32_USB_Host_Library/Core/Src/usbh_core.c ****   ******************************************************************************
  10:Middlewares/ST/STM32_USB_Host_Library/Core/Src/usbh_core.c ****   * @attention
  11:Middlewares/ST/STM32_USB_Host_Library/Core/Src/usbh_core.c ****   *
  12:Middlewares/ST/STM32_USB_Host_Library/Core/Src/usbh_core.c ****   * <h2><center>&copy; COPYRIGHT 2015 STMicroelectronics</center></h2>
  13:Middlewares/ST/STM32_USB_Host_Library/Core/Src/usbh_core.c ****   *
  14:Middlewares/ST/STM32_USB_Host_Library/Core/Src/usbh_core.c ****   * Licensed under MCD-ST Liberty SW License Agreement V2, (the "License");
  15:Middlewares/ST/STM32_USB_Host_Library/Core/Src/usbh_core.c ****   * You may not use this file except in compliance with the License.
  16:Middlewares/ST/STM32_USB_Host_Library/Core/Src/usbh_core.c ****   * You may obtain a copy of the License at:
  17:Middlewares/ST/STM32_USB_Host_Library/Core/Src/usbh_core.c ****   *
  18:Middlewares/ST/STM32_USB_Host_Library/Core/Src/usbh_core.c ****   *        http://www.st.com/software_license_agreement_liberty_v2
  19:Middlewares/ST/STM32_USB_Host_Library/Core/Src/usbh_core.c ****   *
  20:Middlewares/ST/STM32_USB_Host_Library/Core/Src/usbh_core.c ****   * Unless required by applicable law or agreed to in writing, software 
  21:Middlewares/ST/STM32_USB_Host_Library/Core/Src/usbh_core.c ****   * distributed under the License is distributed on an "AS IS" BASIS, 
  22:Middlewares/ST/STM32_USB_Host_Library/Core/Src/usbh_core.c ****   * WITHOUT WARRANTIES OR CONDITIONS OF ANY KIND, either express or implied.
  23:Middlewares/ST/STM32_USB_Host_Library/Core/Src/usbh_core.c ****   * See the License for the specific language governing permissions and
  24:Middlewares/ST/STM32_USB_Host_Library/Core/Src/usbh_core.c ****   * limitations under the License.
  25:Middlewares/ST/STM32_USB_Host_Library/Core/Src/usbh_core.c ****   *
  26:Middlewares/ST/STM32_USB_Host_Library/Core/Src/usbh_core.c ****   ******************************************************************************
  27:Middlewares/ST/STM32_USB_Host_Library/Core/Src/usbh_core.c ****   */ 
  28:Middlewares/ST/STM32_USB_Host_Library/Core/Src/usbh_core.c **** /* Includes ------------------------------------------------------------------*/
  29:Middlewares/ST/STM32_USB_Host_Library/Core/Src/usbh_core.c **** 
  30:Middlewares/ST/STM32_USB_Host_Library/Core/Src/usbh_core.c **** #include "usbh_core.h"
  31:Middlewares/ST/STM32_USB_Host_Library/Core/Src/usbh_core.c **** 
  32:Middlewares/ST/STM32_USB_Host_Library/Core/Src/usbh_core.c **** 
ARM GAS  /var/folders/0d/93p3r6493yg7p0rvl_4r983m0000gn/T//ccoyKrkN.s 			page 2


  33:Middlewares/ST/STM32_USB_Host_Library/Core/Src/usbh_core.c **** /** @addtogroup USBH_LIB
  34:Middlewares/ST/STM32_USB_Host_Library/Core/Src/usbh_core.c ****   * @{
  35:Middlewares/ST/STM32_USB_Host_Library/Core/Src/usbh_core.c ****   */
  36:Middlewares/ST/STM32_USB_Host_Library/Core/Src/usbh_core.c **** 
  37:Middlewares/ST/STM32_USB_Host_Library/Core/Src/usbh_core.c **** /** @addtogroup USBH_LIB_CORE
  38:Middlewares/ST/STM32_USB_Host_Library/Core/Src/usbh_core.c ****   * @{
  39:Middlewares/ST/STM32_USB_Host_Library/Core/Src/usbh_core.c ****   */
  40:Middlewares/ST/STM32_USB_Host_Library/Core/Src/usbh_core.c **** 
  41:Middlewares/ST/STM32_USB_Host_Library/Core/Src/usbh_core.c **** /** @defgroup USBH_CORE 
  42:Middlewares/ST/STM32_USB_Host_Library/Core/Src/usbh_core.c ****   * @brief This file handles the basic enumeration when a device is connected 
  43:Middlewares/ST/STM32_USB_Host_Library/Core/Src/usbh_core.c ****   *          to the host.
  44:Middlewares/ST/STM32_USB_Host_Library/Core/Src/usbh_core.c ****   * @{
  45:Middlewares/ST/STM32_USB_Host_Library/Core/Src/usbh_core.c ****   */ 
  46:Middlewares/ST/STM32_USB_Host_Library/Core/Src/usbh_core.c **** 
  47:Middlewares/ST/STM32_USB_Host_Library/Core/Src/usbh_core.c **** 
  48:Middlewares/ST/STM32_USB_Host_Library/Core/Src/usbh_core.c **** /** @defgroup USBH_CORE_Private_Defines
  49:Middlewares/ST/STM32_USB_Host_Library/Core/Src/usbh_core.c ****   * @{
  50:Middlewares/ST/STM32_USB_Host_Library/Core/Src/usbh_core.c ****   */ 
  51:Middlewares/ST/STM32_USB_Host_Library/Core/Src/usbh_core.c **** #define USBH_ADDRESS_DEFAULT                     0
  52:Middlewares/ST/STM32_USB_Host_Library/Core/Src/usbh_core.c **** #define USBH_ADDRESS_ASSIGNED                    1      
  53:Middlewares/ST/STM32_USB_Host_Library/Core/Src/usbh_core.c **** #define USBH_MPS_DEFAULT                         0x40
  54:Middlewares/ST/STM32_USB_Host_Library/Core/Src/usbh_core.c **** /**
  55:Middlewares/ST/STM32_USB_Host_Library/Core/Src/usbh_core.c ****   * @}
  56:Middlewares/ST/STM32_USB_Host_Library/Core/Src/usbh_core.c ****   */ 
  57:Middlewares/ST/STM32_USB_Host_Library/Core/Src/usbh_core.c **** 
  58:Middlewares/ST/STM32_USB_Host_Library/Core/Src/usbh_core.c **** /** @defgroup USBH_CORE_Private_Macros
  59:Middlewares/ST/STM32_USB_Host_Library/Core/Src/usbh_core.c ****   * @{
  60:Middlewares/ST/STM32_USB_Host_Library/Core/Src/usbh_core.c ****   */ 
  61:Middlewares/ST/STM32_USB_Host_Library/Core/Src/usbh_core.c **** /**
  62:Middlewares/ST/STM32_USB_Host_Library/Core/Src/usbh_core.c ****   * @}
  63:Middlewares/ST/STM32_USB_Host_Library/Core/Src/usbh_core.c ****   */ 
  64:Middlewares/ST/STM32_USB_Host_Library/Core/Src/usbh_core.c **** 
  65:Middlewares/ST/STM32_USB_Host_Library/Core/Src/usbh_core.c **** 
  66:Middlewares/ST/STM32_USB_Host_Library/Core/Src/usbh_core.c **** /** @defgroup USBH_CORE_Private_Variables
  67:Middlewares/ST/STM32_USB_Host_Library/Core/Src/usbh_core.c ****   * @{
  68:Middlewares/ST/STM32_USB_Host_Library/Core/Src/usbh_core.c ****   */ 
  69:Middlewares/ST/STM32_USB_Host_Library/Core/Src/usbh_core.c **** /**
  70:Middlewares/ST/STM32_USB_Host_Library/Core/Src/usbh_core.c ****   * @}
  71:Middlewares/ST/STM32_USB_Host_Library/Core/Src/usbh_core.c ****   */ 
  72:Middlewares/ST/STM32_USB_Host_Library/Core/Src/usbh_core.c ****  
  73:Middlewares/ST/STM32_USB_Host_Library/Core/Src/usbh_core.c **** 
  74:Middlewares/ST/STM32_USB_Host_Library/Core/Src/usbh_core.c **** /** @defgroup USBH_CORE_Private_Functions
  75:Middlewares/ST/STM32_USB_Host_Library/Core/Src/usbh_core.c ****   * @{
  76:Middlewares/ST/STM32_USB_Host_Library/Core/Src/usbh_core.c ****   */ 
  77:Middlewares/ST/STM32_USB_Host_Library/Core/Src/usbh_core.c **** static USBH_StatusTypeDef  USBH_HandleEnum    (USBH_HandleTypeDef *phost);
  78:Middlewares/ST/STM32_USB_Host_Library/Core/Src/usbh_core.c **** static void                USBH_HandleSof     (USBH_HandleTypeDef *phost);
  79:Middlewares/ST/STM32_USB_Host_Library/Core/Src/usbh_core.c **** static USBH_StatusTypeDef  DeInitStateMachine(USBH_HandleTypeDef *phost);
  80:Middlewares/ST/STM32_USB_Host_Library/Core/Src/usbh_core.c **** 
  81:Middlewares/ST/STM32_USB_Host_Library/Core/Src/usbh_core.c **** #if (USBH_USE_OS == 1)  
  82:Middlewares/ST/STM32_USB_Host_Library/Core/Src/usbh_core.c **** static void USBH_Process_OS(void const * argument);
  83:Middlewares/ST/STM32_USB_Host_Library/Core/Src/usbh_core.c **** #endif
  84:Middlewares/ST/STM32_USB_Host_Library/Core/Src/usbh_core.c **** 
  85:Middlewares/ST/STM32_USB_Host_Library/Core/Src/usbh_core.c **** /**
  86:Middlewares/ST/STM32_USB_Host_Library/Core/Src/usbh_core.c ****   * @brief  HCD_Init 
  87:Middlewares/ST/STM32_USB_Host_Library/Core/Src/usbh_core.c ****   *         Initialize the HOST Core.
  88:Middlewares/ST/STM32_USB_Host_Library/Core/Src/usbh_core.c ****   * @param  phost: Host Handle
  89:Middlewares/ST/STM32_USB_Host_Library/Core/Src/usbh_core.c ****   * @param  pUsrFunc: User Callback
ARM GAS  /var/folders/0d/93p3r6493yg7p0rvl_4r983m0000gn/T//ccoyKrkN.s 			page 3


  90:Middlewares/ST/STM32_USB_Host_Library/Core/Src/usbh_core.c ****   * @retval USBH Status
  91:Middlewares/ST/STM32_USB_Host_Library/Core/Src/usbh_core.c ****   */
  92:Middlewares/ST/STM32_USB_Host_Library/Core/Src/usbh_core.c **** USBH_StatusTypeDef  USBH_Init(USBH_HandleTypeDef *phost, void (*pUsrFunc)(USBH_HandleTypeDef *phost
  93:Middlewares/ST/STM32_USB_Host_Library/Core/Src/usbh_core.c **** {
  94:Middlewares/ST/STM32_USB_Host_Library/Core/Src/usbh_core.c ****   /* Check whether the USB Host handle is valid */
  95:Middlewares/ST/STM32_USB_Host_Library/Core/Src/usbh_core.c ****   if(phost == NULL)
  96:Middlewares/ST/STM32_USB_Host_Library/Core/Src/usbh_core.c ****   {
  97:Middlewares/ST/STM32_USB_Host_Library/Core/Src/usbh_core.c ****     USBH_ErrLog("Invalid Host handle");
  98:Middlewares/ST/STM32_USB_Host_Library/Core/Src/usbh_core.c ****     return USBH_FAIL; 
  99:Middlewares/ST/STM32_USB_Host_Library/Core/Src/usbh_core.c ****   }
 100:Middlewares/ST/STM32_USB_Host_Library/Core/Src/usbh_core.c ****   
 101:Middlewares/ST/STM32_USB_Host_Library/Core/Src/usbh_core.c ****   /* Set DRiver ID */
 102:Middlewares/ST/STM32_USB_Host_Library/Core/Src/usbh_core.c ****   phost->id = id;
 103:Middlewares/ST/STM32_USB_Host_Library/Core/Src/usbh_core.c ****   
 104:Middlewares/ST/STM32_USB_Host_Library/Core/Src/usbh_core.c ****   /* Unlink class*/
 105:Middlewares/ST/STM32_USB_Host_Library/Core/Src/usbh_core.c ****   phost->pActiveClass = NULL;
 106:Middlewares/ST/STM32_USB_Host_Library/Core/Src/usbh_core.c ****   phost->ClassNumber = 0;
 107:Middlewares/ST/STM32_USB_Host_Library/Core/Src/usbh_core.c ****   
 108:Middlewares/ST/STM32_USB_Host_Library/Core/Src/usbh_core.c ****   /* Restore default states and prepare EP0 */ 
 109:Middlewares/ST/STM32_USB_Host_Library/Core/Src/usbh_core.c ****   DeInitStateMachine(phost);
 110:Middlewares/ST/STM32_USB_Host_Library/Core/Src/usbh_core.c ****   
 111:Middlewares/ST/STM32_USB_Host_Library/Core/Src/usbh_core.c ****   /* Assign User process */
 112:Middlewares/ST/STM32_USB_Host_Library/Core/Src/usbh_core.c ****   if(pUsrFunc != NULL)
 113:Middlewares/ST/STM32_USB_Host_Library/Core/Src/usbh_core.c ****   {
 114:Middlewares/ST/STM32_USB_Host_Library/Core/Src/usbh_core.c ****     phost->pUser = pUsrFunc;
 115:Middlewares/ST/STM32_USB_Host_Library/Core/Src/usbh_core.c ****   }
 116:Middlewares/ST/STM32_USB_Host_Library/Core/Src/usbh_core.c ****   
 117:Middlewares/ST/STM32_USB_Host_Library/Core/Src/usbh_core.c **** #if (USBH_USE_OS == 1) 
 118:Middlewares/ST/STM32_USB_Host_Library/Core/Src/usbh_core.c ****   
 119:Middlewares/ST/STM32_USB_Host_Library/Core/Src/usbh_core.c ****   /* Create USB Host Queue */
 120:Middlewares/ST/STM32_USB_Host_Library/Core/Src/usbh_core.c ****   osMessageQDef(USBH_Queue, 10, uint16_t);
 121:Middlewares/ST/STM32_USB_Host_Library/Core/Src/usbh_core.c ****   phost->os_event = osMessageCreate (osMessageQ(USBH_Queue), NULL); 
 122:Middlewares/ST/STM32_USB_Host_Library/Core/Src/usbh_core.c ****   
 123:Middlewares/ST/STM32_USB_Host_Library/Core/Src/usbh_core.c ****   /*Create USB Host Task */
 124:Middlewares/ST/STM32_USB_Host_Library/Core/Src/usbh_core.c **** #if defined (USBH_PROCESS_STACK_SIZE)
 125:Middlewares/ST/STM32_USB_Host_Library/Core/Src/usbh_core.c ****   osThreadDef(USBH_Thread, USBH_Process_OS, USBH_PROCESS_PRIO, 0, USBH_PROCESS_STACK_SIZE);
 126:Middlewares/ST/STM32_USB_Host_Library/Core/Src/usbh_core.c **** #else
 127:Middlewares/ST/STM32_USB_Host_Library/Core/Src/usbh_core.c ****   osThreadDef(USBH_Thread, USBH_Process_OS, USBH_PROCESS_PRIO, 0, 8 * configMINIMAL_STACK_SIZE);
 128:Middlewares/ST/STM32_USB_Host_Library/Core/Src/usbh_core.c **** #endif  
 129:Middlewares/ST/STM32_USB_Host_Library/Core/Src/usbh_core.c ****   phost->thread = osThreadCreate (osThread(USBH_Thread), phost);
 130:Middlewares/ST/STM32_USB_Host_Library/Core/Src/usbh_core.c **** #endif  
 131:Middlewares/ST/STM32_USB_Host_Library/Core/Src/usbh_core.c ****   
 132:Middlewares/ST/STM32_USB_Host_Library/Core/Src/usbh_core.c ****   /* Initialize low level driver */
 133:Middlewares/ST/STM32_USB_Host_Library/Core/Src/usbh_core.c ****   USBH_LL_Init(phost);
 134:Middlewares/ST/STM32_USB_Host_Library/Core/Src/usbh_core.c ****   return USBH_OK;
 135:Middlewares/ST/STM32_USB_Host_Library/Core/Src/usbh_core.c **** }
 136:Middlewares/ST/STM32_USB_Host_Library/Core/Src/usbh_core.c **** 
 137:Middlewares/ST/STM32_USB_Host_Library/Core/Src/usbh_core.c **** /**
 138:Middlewares/ST/STM32_USB_Host_Library/Core/Src/usbh_core.c ****   * @brief  HCD_Init 
 139:Middlewares/ST/STM32_USB_Host_Library/Core/Src/usbh_core.c ****   *         De-Initialize the Host portion of the driver.
 140:Middlewares/ST/STM32_USB_Host_Library/Core/Src/usbh_core.c ****   * @param  phost: Host Handle
 141:Middlewares/ST/STM32_USB_Host_Library/Core/Src/usbh_core.c ****   * @retval USBH Status
 142:Middlewares/ST/STM32_USB_Host_Library/Core/Src/usbh_core.c ****   */
 143:Middlewares/ST/STM32_USB_Host_Library/Core/Src/usbh_core.c **** USBH_StatusTypeDef  USBH_DeInit(USBH_HandleTypeDef *phost)
 144:Middlewares/ST/STM32_USB_Host_Library/Core/Src/usbh_core.c **** {
 145:Middlewares/ST/STM32_USB_Host_Library/Core/Src/usbh_core.c ****   DeInitStateMachine(phost);
 146:Middlewares/ST/STM32_USB_Host_Library/Core/Src/usbh_core.c ****   
ARM GAS  /var/folders/0d/93p3r6493yg7p0rvl_4r983m0000gn/T//ccoyKrkN.s 			page 4


 147:Middlewares/ST/STM32_USB_Host_Library/Core/Src/usbh_core.c ****   if(phost->pData != NULL)
 148:Middlewares/ST/STM32_USB_Host_Library/Core/Src/usbh_core.c ****   {
 149:Middlewares/ST/STM32_USB_Host_Library/Core/Src/usbh_core.c ****     phost->pActiveClass->pData = NULL;
 150:Middlewares/ST/STM32_USB_Host_Library/Core/Src/usbh_core.c ****     USBH_LL_Stop(phost);
 151:Middlewares/ST/STM32_USB_Host_Library/Core/Src/usbh_core.c ****   }
 152:Middlewares/ST/STM32_USB_Host_Library/Core/Src/usbh_core.c **** 
 153:Middlewares/ST/STM32_USB_Host_Library/Core/Src/usbh_core.c ****   return USBH_OK;
 154:Middlewares/ST/STM32_USB_Host_Library/Core/Src/usbh_core.c **** }
 155:Middlewares/ST/STM32_USB_Host_Library/Core/Src/usbh_core.c **** 
 156:Middlewares/ST/STM32_USB_Host_Library/Core/Src/usbh_core.c **** /**
 157:Middlewares/ST/STM32_USB_Host_Library/Core/Src/usbh_core.c ****   * @brief  DeInitStateMachine 
 158:Middlewares/ST/STM32_USB_Host_Library/Core/Src/usbh_core.c ****   *         De-Initialize the Host state machine.
 159:Middlewares/ST/STM32_USB_Host_Library/Core/Src/usbh_core.c ****   * @param  phost: Host Handle
 160:Middlewares/ST/STM32_USB_Host_Library/Core/Src/usbh_core.c ****   * @retval USBH Status
 161:Middlewares/ST/STM32_USB_Host_Library/Core/Src/usbh_core.c ****   */
 162:Middlewares/ST/STM32_USB_Host_Library/Core/Src/usbh_core.c **** static USBH_StatusTypeDef  DeInitStateMachine(USBH_HandleTypeDef *phost)
 163:Middlewares/ST/STM32_USB_Host_Library/Core/Src/usbh_core.c **** {
  27              		.loc 1 163 0
  28              		.cfi_startproc
  29              		@ args = 0, pretend = 0, frame = 0
  30              		@ frame_needed = 0, uses_anonymous_args = 0
  31              		@ link register save eliminated.
  32              	.LVL0:
 164:Middlewares/ST/STM32_USB_Host_Library/Core/Src/usbh_core.c ****   uint32_t i = 0;
  33              		.loc 1 164 0
  34 0000 0023     		movs	r3, #0
 165:Middlewares/ST/STM32_USB_Host_Library/Core/Src/usbh_core.c **** 
 166:Middlewares/ST/STM32_USB_Host_Library/Core/Src/usbh_core.c ****   /* Clear Pipes flags*/
 167:Middlewares/ST/STM32_USB_Host_Library/Core/Src/usbh_core.c ****   for ( ; i < USBH_MAX_PIPES_NBR; i++)
  35              		.loc 1 167 0
  36 0002 06E0     		b	.L2
  37              	.LVL1:
  38              	.L3:
 168:Middlewares/ST/STM32_USB_Host_Library/Core/Src/usbh_core.c ****   {
 169:Middlewares/ST/STM32_USB_Host_Library/Core/Src/usbh_core.c ****     phost->Pipes[i] = 0;
  39              		.loc 1 169 0 discriminator 2
  40 0004 03F1DE02 		add	r2, r3, #222
  41 0008 00EB8202 		add	r2, r0, r2, lsl #2
  42 000c 0021     		movs	r1, #0
  43 000e 5160     		str	r1, [r2, #4]
 167:Middlewares/ST/STM32_USB_Host_Library/Core/Src/usbh_core.c ****   {
  44              		.loc 1 167 0 discriminator 2
  45 0010 0133     		adds	r3, r3, #1
  46              	.LVL2:
  47              	.L2:
 167:Middlewares/ST/STM32_USB_Host_Library/Core/Src/usbh_core.c ****   {
  48              		.loc 1 167 0 is_stmt 0 discriminator 1
  49 0012 0E2B     		cmp	r3, #14
  50 0014 F6D9     		bls	.L3
 170:Middlewares/ST/STM32_USB_Host_Library/Core/Src/usbh_core.c ****   }
 171:Middlewares/ST/STM32_USB_Host_Library/Core/Src/usbh_core.c ****   
 172:Middlewares/ST/STM32_USB_Host_Library/Core/Src/usbh_core.c ****   for(i = 0; i< USBH_MAX_DATA_BUFFER; i++)
  51              		.loc 1 172 0 is_stmt 1
  52 0016 0023     		movs	r3, #0
  53              	.LVL3:
  54 0018 04E0     		b	.L4
  55              	.LVL4:
ARM GAS  /var/folders/0d/93p3r6493yg7p0rvl_4r983m0000gn/T//ccoyKrkN.s 			page 5


  56              	.L5:
 173:Middlewares/ST/STM32_USB_Host_Library/Core/Src/usbh_core.c ****   {
 174:Middlewares/ST/STM32_USB_Host_Library/Core/Src/usbh_core.c ****     phost->device.Data[i] = 0;
  57              		.loc 1 174 0 discriminator 3
  58 001a C218     		adds	r2, r0, r3
  59 001c 0021     		movs	r1, #0
  60 001e 82F81C11 		strb	r1, [r2, #284]
 172:Middlewares/ST/STM32_USB_Host_Library/Core/Src/usbh_core.c ****   {
  61              		.loc 1 172 0 discriminator 3
  62 0022 0133     		adds	r3, r3, #1
  63              	.LVL5:
  64              	.L4:
 172:Middlewares/ST/STM32_USB_Host_Library/Core/Src/usbh_core.c ****   {
  65              		.loc 1 172 0 is_stmt 0 discriminator 1
  66 0024 B3F5007F 		cmp	r3, #512
  67 0028 F7D3     		bcc	.L5
 175:Middlewares/ST/STM32_USB_Host_Library/Core/Src/usbh_core.c ****   }
 176:Middlewares/ST/STM32_USB_Host_Library/Core/Src/usbh_core.c ****   
 177:Middlewares/ST/STM32_USB_Host_Library/Core/Src/usbh_core.c ****   phost->gState = HOST_IDLE;
  68              		.loc 1 177 0 is_stmt 1
  69 002a 0023     		movs	r3, #0
  70              	.LVL6:
  71 002c 0370     		strb	r3, [r0]
 178:Middlewares/ST/STM32_USB_Host_Library/Core/Src/usbh_core.c ****   phost->EnumState = ENUM_IDLE;
  72              		.loc 1 178 0
  73 002e 4370     		strb	r3, [r0, #1]
 179:Middlewares/ST/STM32_USB_Host_Library/Core/Src/usbh_core.c ****   phost->RequestState = CMD_SEND;
  74              		.loc 1 179 0
  75 0030 0122     		movs	r2, #1
  76 0032 8270     		strb	r2, [r0, #2]
 180:Middlewares/ST/STM32_USB_Host_Library/Core/Src/usbh_core.c ****   phost->Timer = 0;  
  77              		.loc 1 180 0
  78 0034 C0F8B833 		str	r3, [r0, #952]
 181:Middlewares/ST/STM32_USB_Host_Library/Core/Src/usbh_core.c ****   
 182:Middlewares/ST/STM32_USB_Host_Library/Core/Src/usbh_core.c ****   phost->Control.state = CTRL_SETUP;
  79              		.loc 1 182 0
  80 0038 0276     		strb	r2, [r0, #24]
 183:Middlewares/ST/STM32_USB_Host_Library/Core/Src/usbh_core.c ****   phost->Control.pipe_size = USBH_MPS_DEFAULT;  
  81              		.loc 1 183 0
  82 003a 4021     		movs	r1, #64
  83 003c 8171     		strb	r1, [r0, #6]
 184:Middlewares/ST/STM32_USB_Host_Library/Core/Src/usbh_core.c ****   phost->Control.errorcount = 0;
  84              		.loc 1 184 0
  85 003e 4376     		strb	r3, [r0, #25]
 185:Middlewares/ST/STM32_USB_Host_Library/Core/Src/usbh_core.c ****   
 186:Middlewares/ST/STM32_USB_Host_Library/Core/Src/usbh_core.c ****   phost->device.address = USBH_ADDRESS_DEFAULT;
  86              		.loc 1 186 0
  87 0040 80F81C33 		strb	r3, [r0, #796]
 187:Middlewares/ST/STM32_USB_Host_Library/Core/Src/usbh_core.c ****   phost->device.speed   = USBH_SPEED_FULL;
  88              		.loc 1 187 0
  89 0044 80F81D23 		strb	r2, [r0, #797]
 188:Middlewares/ST/STM32_USB_Host_Library/Core/Src/usbh_core.c ****   
 189:Middlewares/ST/STM32_USB_Host_Library/Core/Src/usbh_core.c ****   return USBH_OK;
 190:Middlewares/ST/STM32_USB_Host_Library/Core/Src/usbh_core.c **** }
  90              		.loc 1 190 0
  91 0048 1846     		mov	r0, r3
  92              	.LVL7:
ARM GAS  /var/folders/0d/93p3r6493yg7p0rvl_4r983m0000gn/T//ccoyKrkN.s 			page 6


  93 004a 7047     		bx	lr
  94              		.cfi_endproc
  95              	.LFE133:
  97              		.section	.text.USBH_HandleSof,"ax",%progbits
  98              		.align	1
  99              		.syntax unified
 100              		.thumb
 101              		.thumb_func
 102              		.fpu fpv4-sp-d16
 104              	USBH_HandleSof:
 105              	.LFB146:
 191:Middlewares/ST/STM32_USB_Host_Library/Core/Src/usbh_core.c **** 
 192:Middlewares/ST/STM32_USB_Host_Library/Core/Src/usbh_core.c **** /**
 193:Middlewares/ST/STM32_USB_Host_Library/Core/Src/usbh_core.c ****   * @brief  USBH_RegisterClass 
 194:Middlewares/ST/STM32_USB_Host_Library/Core/Src/usbh_core.c ****   *         Link class driver to Host Core.
 195:Middlewares/ST/STM32_USB_Host_Library/Core/Src/usbh_core.c ****   * @param  phost : Host Handle
 196:Middlewares/ST/STM32_USB_Host_Library/Core/Src/usbh_core.c ****   * @param  pclass: Class handle
 197:Middlewares/ST/STM32_USB_Host_Library/Core/Src/usbh_core.c ****   * @retval USBH Status
 198:Middlewares/ST/STM32_USB_Host_Library/Core/Src/usbh_core.c ****   */
 199:Middlewares/ST/STM32_USB_Host_Library/Core/Src/usbh_core.c **** USBH_StatusTypeDef  USBH_RegisterClass(USBH_HandleTypeDef *phost, USBH_ClassTypeDef *pclass)
 200:Middlewares/ST/STM32_USB_Host_Library/Core/Src/usbh_core.c **** {
 201:Middlewares/ST/STM32_USB_Host_Library/Core/Src/usbh_core.c ****   USBH_StatusTypeDef   status = USBH_OK;
 202:Middlewares/ST/STM32_USB_Host_Library/Core/Src/usbh_core.c ****   
 203:Middlewares/ST/STM32_USB_Host_Library/Core/Src/usbh_core.c ****   if(pclass != 0)
 204:Middlewares/ST/STM32_USB_Host_Library/Core/Src/usbh_core.c ****   {
 205:Middlewares/ST/STM32_USB_Host_Library/Core/Src/usbh_core.c ****     if(phost->ClassNumber < USBH_MAX_NUM_SUPPORTED_CLASS)
 206:Middlewares/ST/STM32_USB_Host_Library/Core/Src/usbh_core.c ****     {
 207:Middlewares/ST/STM32_USB_Host_Library/Core/Src/usbh_core.c ****       /* link the class to the USB Host handle */
 208:Middlewares/ST/STM32_USB_Host_Library/Core/Src/usbh_core.c ****       phost->pClass[phost->ClassNumber++] = pclass;
 209:Middlewares/ST/STM32_USB_Host_Library/Core/Src/usbh_core.c ****       status = USBH_OK;
 210:Middlewares/ST/STM32_USB_Host_Library/Core/Src/usbh_core.c ****     }
 211:Middlewares/ST/STM32_USB_Host_Library/Core/Src/usbh_core.c ****     else
 212:Middlewares/ST/STM32_USB_Host_Library/Core/Src/usbh_core.c ****     {
 213:Middlewares/ST/STM32_USB_Host_Library/Core/Src/usbh_core.c ****       USBH_ErrLog("Max Class Number reached");
 214:Middlewares/ST/STM32_USB_Host_Library/Core/Src/usbh_core.c ****       status = USBH_FAIL; 
 215:Middlewares/ST/STM32_USB_Host_Library/Core/Src/usbh_core.c ****     }
 216:Middlewares/ST/STM32_USB_Host_Library/Core/Src/usbh_core.c ****   }
 217:Middlewares/ST/STM32_USB_Host_Library/Core/Src/usbh_core.c ****   else
 218:Middlewares/ST/STM32_USB_Host_Library/Core/Src/usbh_core.c ****   {
 219:Middlewares/ST/STM32_USB_Host_Library/Core/Src/usbh_core.c ****     USBH_ErrLog("Invalid Class handle");
 220:Middlewares/ST/STM32_USB_Host_Library/Core/Src/usbh_core.c ****     status = USBH_FAIL; 
 221:Middlewares/ST/STM32_USB_Host_Library/Core/Src/usbh_core.c ****   }
 222:Middlewares/ST/STM32_USB_Host_Library/Core/Src/usbh_core.c ****   
 223:Middlewares/ST/STM32_USB_Host_Library/Core/Src/usbh_core.c ****   return status;
 224:Middlewares/ST/STM32_USB_Host_Library/Core/Src/usbh_core.c **** }
 225:Middlewares/ST/STM32_USB_Host_Library/Core/Src/usbh_core.c **** 
 226:Middlewares/ST/STM32_USB_Host_Library/Core/Src/usbh_core.c **** /**
 227:Middlewares/ST/STM32_USB_Host_Library/Core/Src/usbh_core.c ****   * @brief  USBH_SelectInterface 
 228:Middlewares/ST/STM32_USB_Host_Library/Core/Src/usbh_core.c ****   *         Select current interface.
 229:Middlewares/ST/STM32_USB_Host_Library/Core/Src/usbh_core.c ****   * @param  phost: Host Handle
 230:Middlewares/ST/STM32_USB_Host_Library/Core/Src/usbh_core.c ****   * @param  interface: Interface number
 231:Middlewares/ST/STM32_USB_Host_Library/Core/Src/usbh_core.c ****   * @retval USBH Status
 232:Middlewares/ST/STM32_USB_Host_Library/Core/Src/usbh_core.c ****   */
 233:Middlewares/ST/STM32_USB_Host_Library/Core/Src/usbh_core.c **** USBH_StatusTypeDef USBH_SelectInterface(USBH_HandleTypeDef *phost, uint8_t interface)
 234:Middlewares/ST/STM32_USB_Host_Library/Core/Src/usbh_core.c **** {
 235:Middlewares/ST/STM32_USB_Host_Library/Core/Src/usbh_core.c ****   USBH_StatusTypeDef   status = USBH_OK;
 236:Middlewares/ST/STM32_USB_Host_Library/Core/Src/usbh_core.c ****   
ARM GAS  /var/folders/0d/93p3r6493yg7p0rvl_4r983m0000gn/T//ccoyKrkN.s 			page 7


 237:Middlewares/ST/STM32_USB_Host_Library/Core/Src/usbh_core.c ****   if(interface < phost->device.CfgDesc.bNumInterfaces)
 238:Middlewares/ST/STM32_USB_Host_Library/Core/Src/usbh_core.c ****   {
 239:Middlewares/ST/STM32_USB_Host_Library/Core/Src/usbh_core.c ****     phost->device.current_interface = interface;
 240:Middlewares/ST/STM32_USB_Host_Library/Core/Src/usbh_core.c ****     USBH_UsrLog ("Switching to Interface (#%d)", interface);
 241:Middlewares/ST/STM32_USB_Host_Library/Core/Src/usbh_core.c ****     USBH_UsrLog ("Class    : %xh", phost->device.CfgDesc.Itf_Desc[interface].bInterfaceClass );
 242:Middlewares/ST/STM32_USB_Host_Library/Core/Src/usbh_core.c ****     USBH_UsrLog ("SubClass : %xh", phost->device.CfgDesc.Itf_Desc[interface].bInterfaceSubClass );
 243:Middlewares/ST/STM32_USB_Host_Library/Core/Src/usbh_core.c ****     USBH_UsrLog ("Protocol : %xh", phost->device.CfgDesc.Itf_Desc[interface].bInterfaceProtocol ); 
 244:Middlewares/ST/STM32_USB_Host_Library/Core/Src/usbh_core.c ****   }
 245:Middlewares/ST/STM32_USB_Host_Library/Core/Src/usbh_core.c ****   else
 246:Middlewares/ST/STM32_USB_Host_Library/Core/Src/usbh_core.c ****   {
 247:Middlewares/ST/STM32_USB_Host_Library/Core/Src/usbh_core.c ****     USBH_ErrLog ("Cannot Select This Interface.");
 248:Middlewares/ST/STM32_USB_Host_Library/Core/Src/usbh_core.c ****     status = USBH_FAIL; 
 249:Middlewares/ST/STM32_USB_Host_Library/Core/Src/usbh_core.c ****   }
 250:Middlewares/ST/STM32_USB_Host_Library/Core/Src/usbh_core.c ****   return status;  
 251:Middlewares/ST/STM32_USB_Host_Library/Core/Src/usbh_core.c **** }
 252:Middlewares/ST/STM32_USB_Host_Library/Core/Src/usbh_core.c **** 
 253:Middlewares/ST/STM32_USB_Host_Library/Core/Src/usbh_core.c **** /**
 254:Middlewares/ST/STM32_USB_Host_Library/Core/Src/usbh_core.c ****   * @brief  USBH_GetActiveClass 
 255:Middlewares/ST/STM32_USB_Host_Library/Core/Src/usbh_core.c ****   *         Return Device Class.
 256:Middlewares/ST/STM32_USB_Host_Library/Core/Src/usbh_core.c ****   * @param  phost: Host Handle
 257:Middlewares/ST/STM32_USB_Host_Library/Core/Src/usbh_core.c ****   * @param  interface: Interface index
 258:Middlewares/ST/STM32_USB_Host_Library/Core/Src/usbh_core.c ****   * @retval Class Code
 259:Middlewares/ST/STM32_USB_Host_Library/Core/Src/usbh_core.c ****   */
 260:Middlewares/ST/STM32_USB_Host_Library/Core/Src/usbh_core.c **** uint8_t USBH_GetActiveClass(USBH_HandleTypeDef *phost)
 261:Middlewares/ST/STM32_USB_Host_Library/Core/Src/usbh_core.c **** {
 262:Middlewares/ST/STM32_USB_Host_Library/Core/Src/usbh_core.c ****    return (phost->device.CfgDesc.Itf_Desc[0].bInterfaceClass);            
 263:Middlewares/ST/STM32_USB_Host_Library/Core/Src/usbh_core.c **** }
 264:Middlewares/ST/STM32_USB_Host_Library/Core/Src/usbh_core.c **** /**
 265:Middlewares/ST/STM32_USB_Host_Library/Core/Src/usbh_core.c ****   * @brief  USBH_FindInterface 
 266:Middlewares/ST/STM32_USB_Host_Library/Core/Src/usbh_core.c ****   *         Find the interface index for a specific class.
 267:Middlewares/ST/STM32_USB_Host_Library/Core/Src/usbh_core.c ****   * @param  phost: Host Handle
 268:Middlewares/ST/STM32_USB_Host_Library/Core/Src/usbh_core.c ****   * @param  Class: Class code
 269:Middlewares/ST/STM32_USB_Host_Library/Core/Src/usbh_core.c ****   * @param  SubClass: SubClass code
 270:Middlewares/ST/STM32_USB_Host_Library/Core/Src/usbh_core.c ****   * @param  Protocol: Protocol code
 271:Middlewares/ST/STM32_USB_Host_Library/Core/Src/usbh_core.c ****   * @retval interface index in the configuration structure
 272:Middlewares/ST/STM32_USB_Host_Library/Core/Src/usbh_core.c ****   * @note : (1)interface index 0xFF means interface index not found
 273:Middlewares/ST/STM32_USB_Host_Library/Core/Src/usbh_core.c ****   */
 274:Middlewares/ST/STM32_USB_Host_Library/Core/Src/usbh_core.c **** uint8_t  USBH_FindInterface(USBH_HandleTypeDef *phost, uint8_t Class, uint8_t SubClass, uint8_t Pro
 275:Middlewares/ST/STM32_USB_Host_Library/Core/Src/usbh_core.c **** {
 276:Middlewares/ST/STM32_USB_Host_Library/Core/Src/usbh_core.c ****   USBH_InterfaceDescTypeDef    *pif ;
 277:Middlewares/ST/STM32_USB_Host_Library/Core/Src/usbh_core.c ****   USBH_CfgDescTypeDef          *pcfg ;
 278:Middlewares/ST/STM32_USB_Host_Library/Core/Src/usbh_core.c ****   int8_t                        if_ix = 0;
 279:Middlewares/ST/STM32_USB_Host_Library/Core/Src/usbh_core.c ****   
 280:Middlewares/ST/STM32_USB_Host_Library/Core/Src/usbh_core.c ****   pif = (USBH_InterfaceDescTypeDef *)0;
 281:Middlewares/ST/STM32_USB_Host_Library/Core/Src/usbh_core.c ****   pcfg = &phost->device.CfgDesc;  
 282:Middlewares/ST/STM32_USB_Host_Library/Core/Src/usbh_core.c ****   
 283:Middlewares/ST/STM32_USB_Host_Library/Core/Src/usbh_core.c ****   while (if_ix < USBH_MAX_NUM_INTERFACES)
 284:Middlewares/ST/STM32_USB_Host_Library/Core/Src/usbh_core.c ****   {
 285:Middlewares/ST/STM32_USB_Host_Library/Core/Src/usbh_core.c ****     pif = &pcfg->Itf_Desc[if_ix];
 286:Middlewares/ST/STM32_USB_Host_Library/Core/Src/usbh_core.c ****     if(((pif->bInterfaceClass == Class) || (Class == 0xFF))&&
 287:Middlewares/ST/STM32_USB_Host_Library/Core/Src/usbh_core.c ****        ((pif->bInterfaceSubClass == SubClass) || (SubClass == 0xFF))&&
 288:Middlewares/ST/STM32_USB_Host_Library/Core/Src/usbh_core.c ****          ((pif->bInterfaceProtocol == Protocol) || (Protocol == 0xFF)))
 289:Middlewares/ST/STM32_USB_Host_Library/Core/Src/usbh_core.c ****     {
 290:Middlewares/ST/STM32_USB_Host_Library/Core/Src/usbh_core.c ****       return  if_ix;
 291:Middlewares/ST/STM32_USB_Host_Library/Core/Src/usbh_core.c ****     }
 292:Middlewares/ST/STM32_USB_Host_Library/Core/Src/usbh_core.c ****     if_ix++;
 293:Middlewares/ST/STM32_USB_Host_Library/Core/Src/usbh_core.c ****   }
ARM GAS  /var/folders/0d/93p3r6493yg7p0rvl_4r983m0000gn/T//ccoyKrkN.s 			page 8


 294:Middlewares/ST/STM32_USB_Host_Library/Core/Src/usbh_core.c ****   return 0xFF;
 295:Middlewares/ST/STM32_USB_Host_Library/Core/Src/usbh_core.c **** }
 296:Middlewares/ST/STM32_USB_Host_Library/Core/Src/usbh_core.c **** 
 297:Middlewares/ST/STM32_USB_Host_Library/Core/Src/usbh_core.c **** /**
 298:Middlewares/ST/STM32_USB_Host_Library/Core/Src/usbh_core.c ****   * @brief  USBH_FindInterfaceIndex 
 299:Middlewares/ST/STM32_USB_Host_Library/Core/Src/usbh_core.c ****   *         Find the interface index for a specific class interface and alternate setting number.
 300:Middlewares/ST/STM32_USB_Host_Library/Core/Src/usbh_core.c ****   * @param  phost: Host Handle
 301:Middlewares/ST/STM32_USB_Host_Library/Core/Src/usbh_core.c ****   * @param  interface_number: interface number
 302:Middlewares/ST/STM32_USB_Host_Library/Core/Src/usbh_core.c ****   * @param  alt_settings    : alternate setting number
 303:Middlewares/ST/STM32_USB_Host_Library/Core/Src/usbh_core.c ****   * @retval interface index in the configuration structure
 304:Middlewares/ST/STM32_USB_Host_Library/Core/Src/usbh_core.c ****   * @note : (1)interface index 0xFF means interface index not found
 305:Middlewares/ST/STM32_USB_Host_Library/Core/Src/usbh_core.c ****   */
 306:Middlewares/ST/STM32_USB_Host_Library/Core/Src/usbh_core.c **** uint8_t  USBH_FindInterfaceIndex(USBH_HandleTypeDef *phost, uint8_t interface_number, uint8_t alt_s
 307:Middlewares/ST/STM32_USB_Host_Library/Core/Src/usbh_core.c **** {
 308:Middlewares/ST/STM32_USB_Host_Library/Core/Src/usbh_core.c ****   USBH_InterfaceDescTypeDef    *pif ;
 309:Middlewares/ST/STM32_USB_Host_Library/Core/Src/usbh_core.c ****   USBH_CfgDescTypeDef          *pcfg ;
 310:Middlewares/ST/STM32_USB_Host_Library/Core/Src/usbh_core.c ****   int8_t                        if_ix = 0;
 311:Middlewares/ST/STM32_USB_Host_Library/Core/Src/usbh_core.c ****   
 312:Middlewares/ST/STM32_USB_Host_Library/Core/Src/usbh_core.c ****   pif = (USBH_InterfaceDescTypeDef *)0;
 313:Middlewares/ST/STM32_USB_Host_Library/Core/Src/usbh_core.c ****   pcfg = &phost->device.CfgDesc;  
 314:Middlewares/ST/STM32_USB_Host_Library/Core/Src/usbh_core.c ****   
 315:Middlewares/ST/STM32_USB_Host_Library/Core/Src/usbh_core.c ****   while (if_ix < USBH_MAX_NUM_INTERFACES)
 316:Middlewares/ST/STM32_USB_Host_Library/Core/Src/usbh_core.c ****   {
 317:Middlewares/ST/STM32_USB_Host_Library/Core/Src/usbh_core.c ****     pif = &pcfg->Itf_Desc[if_ix];
 318:Middlewares/ST/STM32_USB_Host_Library/Core/Src/usbh_core.c ****     if((pif->bInterfaceNumber == interface_number) && (pif->bAlternateSetting == alt_settings))
 319:Middlewares/ST/STM32_USB_Host_Library/Core/Src/usbh_core.c ****     {
 320:Middlewares/ST/STM32_USB_Host_Library/Core/Src/usbh_core.c ****       return  if_ix;
 321:Middlewares/ST/STM32_USB_Host_Library/Core/Src/usbh_core.c ****     }
 322:Middlewares/ST/STM32_USB_Host_Library/Core/Src/usbh_core.c ****     if_ix++;
 323:Middlewares/ST/STM32_USB_Host_Library/Core/Src/usbh_core.c ****   }
 324:Middlewares/ST/STM32_USB_Host_Library/Core/Src/usbh_core.c ****   return 0xFF;
 325:Middlewares/ST/STM32_USB_Host_Library/Core/Src/usbh_core.c **** }
 326:Middlewares/ST/STM32_USB_Host_Library/Core/Src/usbh_core.c **** 
 327:Middlewares/ST/STM32_USB_Host_Library/Core/Src/usbh_core.c **** /**
 328:Middlewares/ST/STM32_USB_Host_Library/Core/Src/usbh_core.c ****   * @brief  USBH_Start 
 329:Middlewares/ST/STM32_USB_Host_Library/Core/Src/usbh_core.c ****   *         Start the USB Host Core.
 330:Middlewares/ST/STM32_USB_Host_Library/Core/Src/usbh_core.c ****   * @param  phost: Host Handle
 331:Middlewares/ST/STM32_USB_Host_Library/Core/Src/usbh_core.c ****   * @retval USBH Status
 332:Middlewares/ST/STM32_USB_Host_Library/Core/Src/usbh_core.c ****   */
 333:Middlewares/ST/STM32_USB_Host_Library/Core/Src/usbh_core.c **** USBH_StatusTypeDef  USBH_Start  (USBH_HandleTypeDef *phost)
 334:Middlewares/ST/STM32_USB_Host_Library/Core/Src/usbh_core.c **** {
 335:Middlewares/ST/STM32_USB_Host_Library/Core/Src/usbh_core.c ****   /* Start the low level driver  */
 336:Middlewares/ST/STM32_USB_Host_Library/Core/Src/usbh_core.c ****   USBH_LL_Start(phost);
 337:Middlewares/ST/STM32_USB_Host_Library/Core/Src/usbh_core.c ****   
 338:Middlewares/ST/STM32_USB_Host_Library/Core/Src/usbh_core.c ****   /* Activate VBUS on the port */ 
 339:Middlewares/ST/STM32_USB_Host_Library/Core/Src/usbh_core.c ****   USBH_LL_DriverVBUS (phost, TRUE);
 340:Middlewares/ST/STM32_USB_Host_Library/Core/Src/usbh_core.c ****   
 341:Middlewares/ST/STM32_USB_Host_Library/Core/Src/usbh_core.c ****   return USBH_OK;  
 342:Middlewares/ST/STM32_USB_Host_Library/Core/Src/usbh_core.c **** }
 343:Middlewares/ST/STM32_USB_Host_Library/Core/Src/usbh_core.c **** 
 344:Middlewares/ST/STM32_USB_Host_Library/Core/Src/usbh_core.c **** /**
 345:Middlewares/ST/STM32_USB_Host_Library/Core/Src/usbh_core.c ****   * @brief  USBH_Stop 
 346:Middlewares/ST/STM32_USB_Host_Library/Core/Src/usbh_core.c ****   *         Stop the USB Host Core.
 347:Middlewares/ST/STM32_USB_Host_Library/Core/Src/usbh_core.c ****   * @param  phost: Host Handle
 348:Middlewares/ST/STM32_USB_Host_Library/Core/Src/usbh_core.c ****   * @retval USBH Status
 349:Middlewares/ST/STM32_USB_Host_Library/Core/Src/usbh_core.c ****   */
 350:Middlewares/ST/STM32_USB_Host_Library/Core/Src/usbh_core.c **** USBH_StatusTypeDef  USBH_Stop   (USBH_HandleTypeDef *phost)
ARM GAS  /var/folders/0d/93p3r6493yg7p0rvl_4r983m0000gn/T//ccoyKrkN.s 			page 9


 351:Middlewares/ST/STM32_USB_Host_Library/Core/Src/usbh_core.c **** {
 352:Middlewares/ST/STM32_USB_Host_Library/Core/Src/usbh_core.c ****   /* Stop and cleanup the low level driver  */
 353:Middlewares/ST/STM32_USB_Host_Library/Core/Src/usbh_core.c ****   USBH_LL_Stop(phost);  
 354:Middlewares/ST/STM32_USB_Host_Library/Core/Src/usbh_core.c ****   
 355:Middlewares/ST/STM32_USB_Host_Library/Core/Src/usbh_core.c ****   /* DeActivate VBUS on the port */ 
 356:Middlewares/ST/STM32_USB_Host_Library/Core/Src/usbh_core.c ****   USBH_LL_DriverVBUS (phost, FALSE);
 357:Middlewares/ST/STM32_USB_Host_Library/Core/Src/usbh_core.c ****   
 358:Middlewares/ST/STM32_USB_Host_Library/Core/Src/usbh_core.c ****   /* FRee Control Pipes */
 359:Middlewares/ST/STM32_USB_Host_Library/Core/Src/usbh_core.c ****   USBH_FreePipe  (phost, phost->Control.pipe_in);
 360:Middlewares/ST/STM32_USB_Host_Library/Core/Src/usbh_core.c ****   USBH_FreePipe  (phost, phost->Control.pipe_out);  
 361:Middlewares/ST/STM32_USB_Host_Library/Core/Src/usbh_core.c ****   
 362:Middlewares/ST/STM32_USB_Host_Library/Core/Src/usbh_core.c ****   return USBH_OK;  
 363:Middlewares/ST/STM32_USB_Host_Library/Core/Src/usbh_core.c **** }
 364:Middlewares/ST/STM32_USB_Host_Library/Core/Src/usbh_core.c **** 
 365:Middlewares/ST/STM32_USB_Host_Library/Core/Src/usbh_core.c **** /**
 366:Middlewares/ST/STM32_USB_Host_Library/Core/Src/usbh_core.c ****   * @brief  HCD_ReEnumerate 
 367:Middlewares/ST/STM32_USB_Host_Library/Core/Src/usbh_core.c ****   *         Perform a new Enumeration phase.
 368:Middlewares/ST/STM32_USB_Host_Library/Core/Src/usbh_core.c ****   * @param  phost: Host Handle
 369:Middlewares/ST/STM32_USB_Host_Library/Core/Src/usbh_core.c ****   * @retval USBH Status
 370:Middlewares/ST/STM32_USB_Host_Library/Core/Src/usbh_core.c ****   */
 371:Middlewares/ST/STM32_USB_Host_Library/Core/Src/usbh_core.c **** USBH_StatusTypeDef  USBH_ReEnumerate   (USBH_HandleTypeDef *phost)
 372:Middlewares/ST/STM32_USB_Host_Library/Core/Src/usbh_core.c **** {
 373:Middlewares/ST/STM32_USB_Host_Library/Core/Src/usbh_core.c ****   /*Stop Host */ 
 374:Middlewares/ST/STM32_USB_Host_Library/Core/Src/usbh_core.c ****   USBH_Stop(phost);
 375:Middlewares/ST/STM32_USB_Host_Library/Core/Src/usbh_core.c **** 
 376:Middlewares/ST/STM32_USB_Host_Library/Core/Src/usbh_core.c ****   /*Device has disconnected, so wait for 200 ms */  
 377:Middlewares/ST/STM32_USB_Host_Library/Core/Src/usbh_core.c ****   USBH_Delay(200);
 378:Middlewares/ST/STM32_USB_Host_Library/Core/Src/usbh_core.c ****   
 379:Middlewares/ST/STM32_USB_Host_Library/Core/Src/usbh_core.c ****   /* Set State machines in default state */
 380:Middlewares/ST/STM32_USB_Host_Library/Core/Src/usbh_core.c ****   DeInitStateMachine(phost);
 381:Middlewares/ST/STM32_USB_Host_Library/Core/Src/usbh_core.c ****    
 382:Middlewares/ST/STM32_USB_Host_Library/Core/Src/usbh_core.c ****   /* Start again the host */
 383:Middlewares/ST/STM32_USB_Host_Library/Core/Src/usbh_core.c ****   USBH_Start(phost);
 384:Middlewares/ST/STM32_USB_Host_Library/Core/Src/usbh_core.c ****       
 385:Middlewares/ST/STM32_USB_Host_Library/Core/Src/usbh_core.c **** #if (USBH_USE_OS == 1)
 386:Middlewares/ST/STM32_USB_Host_Library/Core/Src/usbh_core.c ****       osMessagePut ( phost->os_event, USBH_PORT_EVENT, 0);
 387:Middlewares/ST/STM32_USB_Host_Library/Core/Src/usbh_core.c **** #endif  
 388:Middlewares/ST/STM32_USB_Host_Library/Core/Src/usbh_core.c ****   return USBH_OK;  
 389:Middlewares/ST/STM32_USB_Host_Library/Core/Src/usbh_core.c **** }
 390:Middlewares/ST/STM32_USB_Host_Library/Core/Src/usbh_core.c **** 
 391:Middlewares/ST/STM32_USB_Host_Library/Core/Src/usbh_core.c **** /**
 392:Middlewares/ST/STM32_USB_Host_Library/Core/Src/usbh_core.c ****   * @brief  USBH_Process 
 393:Middlewares/ST/STM32_USB_Host_Library/Core/Src/usbh_core.c ****   *         Background process of the USB Core.
 394:Middlewares/ST/STM32_USB_Host_Library/Core/Src/usbh_core.c ****   * @param  phost: Host Handle
 395:Middlewares/ST/STM32_USB_Host_Library/Core/Src/usbh_core.c ****   * @retval USBH Status
 396:Middlewares/ST/STM32_USB_Host_Library/Core/Src/usbh_core.c ****   */
 397:Middlewares/ST/STM32_USB_Host_Library/Core/Src/usbh_core.c **** USBH_StatusTypeDef  USBH_Process(USBH_HandleTypeDef *phost)
 398:Middlewares/ST/STM32_USB_Host_Library/Core/Src/usbh_core.c **** {
 399:Middlewares/ST/STM32_USB_Host_Library/Core/Src/usbh_core.c ****   __IO USBH_StatusTypeDef status = USBH_FAIL;
 400:Middlewares/ST/STM32_USB_Host_Library/Core/Src/usbh_core.c ****   uint8_t idx = 0;
 401:Middlewares/ST/STM32_USB_Host_Library/Core/Src/usbh_core.c ****   
 402:Middlewares/ST/STM32_USB_Host_Library/Core/Src/usbh_core.c ****   switch (phost->gState)
 403:Middlewares/ST/STM32_USB_Host_Library/Core/Src/usbh_core.c ****   {
 404:Middlewares/ST/STM32_USB_Host_Library/Core/Src/usbh_core.c ****   case HOST_IDLE :
 405:Middlewares/ST/STM32_USB_Host_Library/Core/Src/usbh_core.c ****     
 406:Middlewares/ST/STM32_USB_Host_Library/Core/Src/usbh_core.c ****     if (phost->device.is_connected)  
 407:Middlewares/ST/STM32_USB_Host_Library/Core/Src/usbh_core.c ****     {
ARM GAS  /var/folders/0d/93p3r6493yg7p0rvl_4r983m0000gn/T//ccoyKrkN.s 			page 10


 408:Middlewares/ST/STM32_USB_Host_Library/Core/Src/usbh_core.c ****       /* Wait for 200 ms after connection */
 409:Middlewares/ST/STM32_USB_Host_Library/Core/Src/usbh_core.c ****       phost->gState = HOST_DEV_WAIT_FOR_ATTACHMENT; 
 410:Middlewares/ST/STM32_USB_Host_Library/Core/Src/usbh_core.c ****       USBH_Delay(200); 
 411:Middlewares/ST/STM32_USB_Host_Library/Core/Src/usbh_core.c ****       USBH_LL_ResetPort(phost);
 412:Middlewares/ST/STM32_USB_Host_Library/Core/Src/usbh_core.c **** #if (USBH_USE_OS == 1)
 413:Middlewares/ST/STM32_USB_Host_Library/Core/Src/usbh_core.c ****       osMessagePut ( phost->os_event, USBH_PORT_EVENT, 0);
 414:Middlewares/ST/STM32_USB_Host_Library/Core/Src/usbh_core.c **** #endif
 415:Middlewares/ST/STM32_USB_Host_Library/Core/Src/usbh_core.c ****     }
 416:Middlewares/ST/STM32_USB_Host_Library/Core/Src/usbh_core.c ****     break;
 417:Middlewares/ST/STM32_USB_Host_Library/Core/Src/usbh_core.c ****     
 418:Middlewares/ST/STM32_USB_Host_Library/Core/Src/usbh_core.c ****   case HOST_DEV_WAIT_FOR_ATTACHMENT:
 419:Middlewares/ST/STM32_USB_Host_Library/Core/Src/usbh_core.c ****     break;    
 420:Middlewares/ST/STM32_USB_Host_Library/Core/Src/usbh_core.c ****     
 421:Middlewares/ST/STM32_USB_Host_Library/Core/Src/usbh_core.c ****   case HOST_DEV_ATTACHED :
 422:Middlewares/ST/STM32_USB_Host_Library/Core/Src/usbh_core.c ****     
 423:Middlewares/ST/STM32_USB_Host_Library/Core/Src/usbh_core.c ****     USBH_UsrLog("USB Device Attached");  
 424:Middlewares/ST/STM32_USB_Host_Library/Core/Src/usbh_core.c ****       
 425:Middlewares/ST/STM32_USB_Host_Library/Core/Src/usbh_core.c ****     /* Wait for 100 ms after Reset */
 426:Middlewares/ST/STM32_USB_Host_Library/Core/Src/usbh_core.c ****     USBH_Delay(100); 
 427:Middlewares/ST/STM32_USB_Host_Library/Core/Src/usbh_core.c ****           
 428:Middlewares/ST/STM32_USB_Host_Library/Core/Src/usbh_core.c ****     phost->device.speed = USBH_LL_GetSpeed(phost);
 429:Middlewares/ST/STM32_USB_Host_Library/Core/Src/usbh_core.c ****     
 430:Middlewares/ST/STM32_USB_Host_Library/Core/Src/usbh_core.c ****     phost->gState = HOST_ENUMERATION;
 431:Middlewares/ST/STM32_USB_Host_Library/Core/Src/usbh_core.c ****     
 432:Middlewares/ST/STM32_USB_Host_Library/Core/Src/usbh_core.c ****     phost->Control.pipe_out = USBH_AllocPipe (phost, 0x00);
 433:Middlewares/ST/STM32_USB_Host_Library/Core/Src/usbh_core.c ****     phost->Control.pipe_in  = USBH_AllocPipe (phost, 0x80);    
 434:Middlewares/ST/STM32_USB_Host_Library/Core/Src/usbh_core.c ****     
 435:Middlewares/ST/STM32_USB_Host_Library/Core/Src/usbh_core.c ****     
 436:Middlewares/ST/STM32_USB_Host_Library/Core/Src/usbh_core.c ****     /* Open Control pipes */
 437:Middlewares/ST/STM32_USB_Host_Library/Core/Src/usbh_core.c ****     USBH_OpenPipe (phost,
 438:Middlewares/ST/STM32_USB_Host_Library/Core/Src/usbh_core.c ****                    phost->Control.pipe_in,
 439:Middlewares/ST/STM32_USB_Host_Library/Core/Src/usbh_core.c ****                    0x80,
 440:Middlewares/ST/STM32_USB_Host_Library/Core/Src/usbh_core.c ****                    phost->device.address,
 441:Middlewares/ST/STM32_USB_Host_Library/Core/Src/usbh_core.c ****                    phost->device.speed,
 442:Middlewares/ST/STM32_USB_Host_Library/Core/Src/usbh_core.c ****                    USBH_EP_CONTROL,
 443:Middlewares/ST/STM32_USB_Host_Library/Core/Src/usbh_core.c ****                    phost->Control.pipe_size); 
 444:Middlewares/ST/STM32_USB_Host_Library/Core/Src/usbh_core.c ****     
 445:Middlewares/ST/STM32_USB_Host_Library/Core/Src/usbh_core.c ****     /* Open Control pipes */
 446:Middlewares/ST/STM32_USB_Host_Library/Core/Src/usbh_core.c ****     USBH_OpenPipe (phost,
 447:Middlewares/ST/STM32_USB_Host_Library/Core/Src/usbh_core.c ****                    phost->Control.pipe_out,
 448:Middlewares/ST/STM32_USB_Host_Library/Core/Src/usbh_core.c ****                    0x00,
 449:Middlewares/ST/STM32_USB_Host_Library/Core/Src/usbh_core.c ****                    phost->device.address,
 450:Middlewares/ST/STM32_USB_Host_Library/Core/Src/usbh_core.c ****                    phost->device.speed,
 451:Middlewares/ST/STM32_USB_Host_Library/Core/Src/usbh_core.c ****                    USBH_EP_CONTROL,
 452:Middlewares/ST/STM32_USB_Host_Library/Core/Src/usbh_core.c ****                    phost->Control.pipe_size);
 453:Middlewares/ST/STM32_USB_Host_Library/Core/Src/usbh_core.c ****     
 454:Middlewares/ST/STM32_USB_Host_Library/Core/Src/usbh_core.c **** #if (USBH_USE_OS == 1)
 455:Middlewares/ST/STM32_USB_Host_Library/Core/Src/usbh_core.c ****     osMessagePut ( phost->os_event, USBH_PORT_EVENT, 0);
 456:Middlewares/ST/STM32_USB_Host_Library/Core/Src/usbh_core.c **** #endif    
 457:Middlewares/ST/STM32_USB_Host_Library/Core/Src/usbh_core.c ****     
 458:Middlewares/ST/STM32_USB_Host_Library/Core/Src/usbh_core.c ****     break;
 459:Middlewares/ST/STM32_USB_Host_Library/Core/Src/usbh_core.c ****     
 460:Middlewares/ST/STM32_USB_Host_Library/Core/Src/usbh_core.c ****   case HOST_ENUMERATION:     
 461:Middlewares/ST/STM32_USB_Host_Library/Core/Src/usbh_core.c ****     /* Check for enumeration status */  
 462:Middlewares/ST/STM32_USB_Host_Library/Core/Src/usbh_core.c ****     if ( USBH_HandleEnum(phost) == USBH_OK)
 463:Middlewares/ST/STM32_USB_Host_Library/Core/Src/usbh_core.c ****     { 
 464:Middlewares/ST/STM32_USB_Host_Library/Core/Src/usbh_core.c ****       /* The function shall return USBH_OK when full enumeration is complete */
ARM GAS  /var/folders/0d/93p3r6493yg7p0rvl_4r983m0000gn/T//ccoyKrkN.s 			page 11


 465:Middlewares/ST/STM32_USB_Host_Library/Core/Src/usbh_core.c ****       USBH_UsrLog ("Enumeration done.");
 466:Middlewares/ST/STM32_USB_Host_Library/Core/Src/usbh_core.c ****       phost->device.current_interface = 0;
 467:Middlewares/ST/STM32_USB_Host_Library/Core/Src/usbh_core.c ****       if(phost->device.DevDesc.bNumConfigurations == 1)
 468:Middlewares/ST/STM32_USB_Host_Library/Core/Src/usbh_core.c ****       {
 469:Middlewares/ST/STM32_USB_Host_Library/Core/Src/usbh_core.c ****         USBH_UsrLog ("This device has only 1 configuration.");
 470:Middlewares/ST/STM32_USB_Host_Library/Core/Src/usbh_core.c ****         phost->gState  = HOST_SET_CONFIGURATION;        
 471:Middlewares/ST/STM32_USB_Host_Library/Core/Src/usbh_core.c ****         
 472:Middlewares/ST/STM32_USB_Host_Library/Core/Src/usbh_core.c ****       }
 473:Middlewares/ST/STM32_USB_Host_Library/Core/Src/usbh_core.c ****       else
 474:Middlewares/ST/STM32_USB_Host_Library/Core/Src/usbh_core.c ****       {
 475:Middlewares/ST/STM32_USB_Host_Library/Core/Src/usbh_core.c ****         phost->gState  = HOST_INPUT; 
 476:Middlewares/ST/STM32_USB_Host_Library/Core/Src/usbh_core.c ****       }
 477:Middlewares/ST/STM32_USB_Host_Library/Core/Src/usbh_core.c ****           
 478:Middlewares/ST/STM32_USB_Host_Library/Core/Src/usbh_core.c ****     }
 479:Middlewares/ST/STM32_USB_Host_Library/Core/Src/usbh_core.c ****     break;
 480:Middlewares/ST/STM32_USB_Host_Library/Core/Src/usbh_core.c ****     
 481:Middlewares/ST/STM32_USB_Host_Library/Core/Src/usbh_core.c ****   case HOST_INPUT:
 482:Middlewares/ST/STM32_USB_Host_Library/Core/Src/usbh_core.c ****     {
 483:Middlewares/ST/STM32_USB_Host_Library/Core/Src/usbh_core.c ****       /* user callback for end of device basic enumeration */
 484:Middlewares/ST/STM32_USB_Host_Library/Core/Src/usbh_core.c ****       if(phost->pUser != NULL)
 485:Middlewares/ST/STM32_USB_Host_Library/Core/Src/usbh_core.c ****       {
 486:Middlewares/ST/STM32_USB_Host_Library/Core/Src/usbh_core.c ****         phost->pUser(phost, HOST_USER_SELECT_CONFIGURATION);
 487:Middlewares/ST/STM32_USB_Host_Library/Core/Src/usbh_core.c ****         phost->gState = HOST_SET_CONFIGURATION;
 488:Middlewares/ST/STM32_USB_Host_Library/Core/Src/usbh_core.c ****         
 489:Middlewares/ST/STM32_USB_Host_Library/Core/Src/usbh_core.c **** #if (USBH_USE_OS == 1)
 490:Middlewares/ST/STM32_USB_Host_Library/Core/Src/usbh_core.c ****         osMessagePut ( phost->os_event, USBH_STATE_CHANGED_EVENT, 0);
 491:Middlewares/ST/STM32_USB_Host_Library/Core/Src/usbh_core.c **** #endif         
 492:Middlewares/ST/STM32_USB_Host_Library/Core/Src/usbh_core.c ****       }
 493:Middlewares/ST/STM32_USB_Host_Library/Core/Src/usbh_core.c ****     }
 494:Middlewares/ST/STM32_USB_Host_Library/Core/Src/usbh_core.c ****     break;
 495:Middlewares/ST/STM32_USB_Host_Library/Core/Src/usbh_core.c ****     
 496:Middlewares/ST/STM32_USB_Host_Library/Core/Src/usbh_core.c ****   case HOST_SET_CONFIGURATION:
 497:Middlewares/ST/STM32_USB_Host_Library/Core/Src/usbh_core.c ****     /* set configuration */
 498:Middlewares/ST/STM32_USB_Host_Library/Core/Src/usbh_core.c ****     if (USBH_SetCfg(phost, phost->device.CfgDesc.bConfigurationValue) == USBH_OK)
 499:Middlewares/ST/STM32_USB_Host_Library/Core/Src/usbh_core.c ****     {
 500:Middlewares/ST/STM32_USB_Host_Library/Core/Src/usbh_core.c ****       phost->gState  = HOST_CHECK_CLASS;
 501:Middlewares/ST/STM32_USB_Host_Library/Core/Src/usbh_core.c ****       USBH_UsrLog ("Default configuration set.");
 502:Middlewares/ST/STM32_USB_Host_Library/Core/Src/usbh_core.c ****       
 503:Middlewares/ST/STM32_USB_Host_Library/Core/Src/usbh_core.c ****     }      
 504:Middlewares/ST/STM32_USB_Host_Library/Core/Src/usbh_core.c ****     
 505:Middlewares/ST/STM32_USB_Host_Library/Core/Src/usbh_core.c ****     break;
 506:Middlewares/ST/STM32_USB_Host_Library/Core/Src/usbh_core.c ****     
 507:Middlewares/ST/STM32_USB_Host_Library/Core/Src/usbh_core.c ****   case HOST_CHECK_CLASS:
 508:Middlewares/ST/STM32_USB_Host_Library/Core/Src/usbh_core.c ****     
 509:Middlewares/ST/STM32_USB_Host_Library/Core/Src/usbh_core.c ****     if(phost->ClassNumber == 0)
 510:Middlewares/ST/STM32_USB_Host_Library/Core/Src/usbh_core.c ****     {
 511:Middlewares/ST/STM32_USB_Host_Library/Core/Src/usbh_core.c ****       USBH_UsrLog ("No Class has been registered.");
 512:Middlewares/ST/STM32_USB_Host_Library/Core/Src/usbh_core.c ****     }
 513:Middlewares/ST/STM32_USB_Host_Library/Core/Src/usbh_core.c ****     else
 514:Middlewares/ST/STM32_USB_Host_Library/Core/Src/usbh_core.c ****     {
 515:Middlewares/ST/STM32_USB_Host_Library/Core/Src/usbh_core.c ****       phost->pActiveClass = NULL;
 516:Middlewares/ST/STM32_USB_Host_Library/Core/Src/usbh_core.c ****       
 517:Middlewares/ST/STM32_USB_Host_Library/Core/Src/usbh_core.c ****       for (idx = 0; idx < USBH_MAX_NUM_SUPPORTED_CLASS ; idx ++)
 518:Middlewares/ST/STM32_USB_Host_Library/Core/Src/usbh_core.c ****       {
 519:Middlewares/ST/STM32_USB_Host_Library/Core/Src/usbh_core.c ****         if(phost->pClass[idx]->ClassCode == phost->device.CfgDesc.Itf_Desc[0].bInterfaceClass)
 520:Middlewares/ST/STM32_USB_Host_Library/Core/Src/usbh_core.c ****         {
 521:Middlewares/ST/STM32_USB_Host_Library/Core/Src/usbh_core.c ****           phost->pActiveClass = phost->pClass[idx];
ARM GAS  /var/folders/0d/93p3r6493yg7p0rvl_4r983m0000gn/T//ccoyKrkN.s 			page 12


 522:Middlewares/ST/STM32_USB_Host_Library/Core/Src/usbh_core.c ****         }
 523:Middlewares/ST/STM32_USB_Host_Library/Core/Src/usbh_core.c ****       }
 524:Middlewares/ST/STM32_USB_Host_Library/Core/Src/usbh_core.c ****       
 525:Middlewares/ST/STM32_USB_Host_Library/Core/Src/usbh_core.c ****       if(phost->pActiveClass != NULL)
 526:Middlewares/ST/STM32_USB_Host_Library/Core/Src/usbh_core.c ****       {
 527:Middlewares/ST/STM32_USB_Host_Library/Core/Src/usbh_core.c ****         if(phost->pActiveClass->Init(phost)== USBH_OK)
 528:Middlewares/ST/STM32_USB_Host_Library/Core/Src/usbh_core.c ****         {
 529:Middlewares/ST/STM32_USB_Host_Library/Core/Src/usbh_core.c ****           phost->gState  = HOST_CLASS_REQUEST; 
 530:Middlewares/ST/STM32_USB_Host_Library/Core/Src/usbh_core.c ****           USBH_UsrLog ("%s class started.", phost->pActiveClass->Name);
 531:Middlewares/ST/STM32_USB_Host_Library/Core/Src/usbh_core.c ****           
 532:Middlewares/ST/STM32_USB_Host_Library/Core/Src/usbh_core.c ****           /* Inform user that a class has been activated */
 533:Middlewares/ST/STM32_USB_Host_Library/Core/Src/usbh_core.c ****           phost->pUser(phost, HOST_USER_CLASS_SELECTED);   
 534:Middlewares/ST/STM32_USB_Host_Library/Core/Src/usbh_core.c ****         }
 535:Middlewares/ST/STM32_USB_Host_Library/Core/Src/usbh_core.c ****         else
 536:Middlewares/ST/STM32_USB_Host_Library/Core/Src/usbh_core.c ****         {
 537:Middlewares/ST/STM32_USB_Host_Library/Core/Src/usbh_core.c ****           phost->gState  = HOST_ABORT_STATE;
 538:Middlewares/ST/STM32_USB_Host_Library/Core/Src/usbh_core.c ****           USBH_UsrLog ("Device not supporting %s class.", phost->pActiveClass->Name);
 539:Middlewares/ST/STM32_USB_Host_Library/Core/Src/usbh_core.c ****         }
 540:Middlewares/ST/STM32_USB_Host_Library/Core/Src/usbh_core.c ****       }
 541:Middlewares/ST/STM32_USB_Host_Library/Core/Src/usbh_core.c ****       else
 542:Middlewares/ST/STM32_USB_Host_Library/Core/Src/usbh_core.c ****       {
 543:Middlewares/ST/STM32_USB_Host_Library/Core/Src/usbh_core.c ****         phost->gState  = HOST_ABORT_STATE;
 544:Middlewares/ST/STM32_USB_Host_Library/Core/Src/usbh_core.c ****         USBH_UsrLog ("No registered class for this device.");
 545:Middlewares/ST/STM32_USB_Host_Library/Core/Src/usbh_core.c ****       }
 546:Middlewares/ST/STM32_USB_Host_Library/Core/Src/usbh_core.c ****     }
 547:Middlewares/ST/STM32_USB_Host_Library/Core/Src/usbh_core.c ****     
 548:Middlewares/ST/STM32_USB_Host_Library/Core/Src/usbh_core.c **** #if (USBH_USE_OS == 1)
 549:Middlewares/ST/STM32_USB_Host_Library/Core/Src/usbh_core.c ****     osMessagePut ( phost->os_event, USBH_STATE_CHANGED_EVENT, 0);
 550:Middlewares/ST/STM32_USB_Host_Library/Core/Src/usbh_core.c **** #endif 
 551:Middlewares/ST/STM32_USB_Host_Library/Core/Src/usbh_core.c ****     break;    
 552:Middlewares/ST/STM32_USB_Host_Library/Core/Src/usbh_core.c ****     
 553:Middlewares/ST/STM32_USB_Host_Library/Core/Src/usbh_core.c ****   case HOST_CLASS_REQUEST:  
 554:Middlewares/ST/STM32_USB_Host_Library/Core/Src/usbh_core.c ****     /* process class standard control requests state machine */
 555:Middlewares/ST/STM32_USB_Host_Library/Core/Src/usbh_core.c ****     if(phost->pActiveClass != NULL)
 556:Middlewares/ST/STM32_USB_Host_Library/Core/Src/usbh_core.c ****     {
 557:Middlewares/ST/STM32_USB_Host_Library/Core/Src/usbh_core.c ****       status = phost->pActiveClass->Requests(phost);
 558:Middlewares/ST/STM32_USB_Host_Library/Core/Src/usbh_core.c ****       
 559:Middlewares/ST/STM32_USB_Host_Library/Core/Src/usbh_core.c ****       if(status == USBH_OK)
 560:Middlewares/ST/STM32_USB_Host_Library/Core/Src/usbh_core.c ****       {
 561:Middlewares/ST/STM32_USB_Host_Library/Core/Src/usbh_core.c ****         phost->gState  = HOST_CLASS;        
 562:Middlewares/ST/STM32_USB_Host_Library/Core/Src/usbh_core.c ****       }  
 563:Middlewares/ST/STM32_USB_Host_Library/Core/Src/usbh_core.c ****     }
 564:Middlewares/ST/STM32_USB_Host_Library/Core/Src/usbh_core.c ****     else
 565:Middlewares/ST/STM32_USB_Host_Library/Core/Src/usbh_core.c ****     {
 566:Middlewares/ST/STM32_USB_Host_Library/Core/Src/usbh_core.c ****       phost->gState  = HOST_ABORT_STATE;
 567:Middlewares/ST/STM32_USB_Host_Library/Core/Src/usbh_core.c ****       USBH_ErrLog ("Invalid Class Driver.");
 568:Middlewares/ST/STM32_USB_Host_Library/Core/Src/usbh_core.c ****     
 569:Middlewares/ST/STM32_USB_Host_Library/Core/Src/usbh_core.c **** #if (USBH_USE_OS == 1)
 570:Middlewares/ST/STM32_USB_Host_Library/Core/Src/usbh_core.c ****     osMessagePut ( phost->os_event, USBH_STATE_CHANGED_EVENT, 0);
 571:Middlewares/ST/STM32_USB_Host_Library/Core/Src/usbh_core.c **** #endif       
 572:Middlewares/ST/STM32_USB_Host_Library/Core/Src/usbh_core.c ****     }
 573:Middlewares/ST/STM32_USB_Host_Library/Core/Src/usbh_core.c ****     
 574:Middlewares/ST/STM32_USB_Host_Library/Core/Src/usbh_core.c ****     break;    
 575:Middlewares/ST/STM32_USB_Host_Library/Core/Src/usbh_core.c ****   case HOST_CLASS:   
 576:Middlewares/ST/STM32_USB_Host_Library/Core/Src/usbh_core.c ****     /* process class state machine */
 577:Middlewares/ST/STM32_USB_Host_Library/Core/Src/usbh_core.c ****     if(phost->pActiveClass != NULL)
 578:Middlewares/ST/STM32_USB_Host_Library/Core/Src/usbh_core.c ****     { 
ARM GAS  /var/folders/0d/93p3r6493yg7p0rvl_4r983m0000gn/T//ccoyKrkN.s 			page 13


 579:Middlewares/ST/STM32_USB_Host_Library/Core/Src/usbh_core.c ****       phost->pActiveClass->BgndProcess(phost);
 580:Middlewares/ST/STM32_USB_Host_Library/Core/Src/usbh_core.c ****     }
 581:Middlewares/ST/STM32_USB_Host_Library/Core/Src/usbh_core.c ****     break;       
 582:Middlewares/ST/STM32_USB_Host_Library/Core/Src/usbh_core.c **** 
 583:Middlewares/ST/STM32_USB_Host_Library/Core/Src/usbh_core.c ****   case HOST_DEV_DISCONNECTED :
 584:Middlewares/ST/STM32_USB_Host_Library/Core/Src/usbh_core.c ****     
 585:Middlewares/ST/STM32_USB_Host_Library/Core/Src/usbh_core.c ****     DeInitStateMachine(phost);  
 586:Middlewares/ST/STM32_USB_Host_Library/Core/Src/usbh_core.c ****     
 587:Middlewares/ST/STM32_USB_Host_Library/Core/Src/usbh_core.c ****     /* Re-Initilaize Host for new Enumeration */
 588:Middlewares/ST/STM32_USB_Host_Library/Core/Src/usbh_core.c ****     if(phost->pActiveClass != NULL)
 589:Middlewares/ST/STM32_USB_Host_Library/Core/Src/usbh_core.c ****     {
 590:Middlewares/ST/STM32_USB_Host_Library/Core/Src/usbh_core.c ****       phost->pActiveClass->DeInit(phost); 
 591:Middlewares/ST/STM32_USB_Host_Library/Core/Src/usbh_core.c ****       phost->pActiveClass = NULL;
 592:Middlewares/ST/STM32_USB_Host_Library/Core/Src/usbh_core.c ****     }     
 593:Middlewares/ST/STM32_USB_Host_Library/Core/Src/usbh_core.c ****     break;
 594:Middlewares/ST/STM32_USB_Host_Library/Core/Src/usbh_core.c ****     
 595:Middlewares/ST/STM32_USB_Host_Library/Core/Src/usbh_core.c ****   case HOST_ABORT_STATE:
 596:Middlewares/ST/STM32_USB_Host_Library/Core/Src/usbh_core.c ****   default :
 597:Middlewares/ST/STM32_USB_Host_Library/Core/Src/usbh_core.c ****     break;
 598:Middlewares/ST/STM32_USB_Host_Library/Core/Src/usbh_core.c ****   }
 599:Middlewares/ST/STM32_USB_Host_Library/Core/Src/usbh_core.c ****  return USBH_OK;  
 600:Middlewares/ST/STM32_USB_Host_Library/Core/Src/usbh_core.c **** }
 601:Middlewares/ST/STM32_USB_Host_Library/Core/Src/usbh_core.c **** 
 602:Middlewares/ST/STM32_USB_Host_Library/Core/Src/usbh_core.c **** 
 603:Middlewares/ST/STM32_USB_Host_Library/Core/Src/usbh_core.c **** /**
 604:Middlewares/ST/STM32_USB_Host_Library/Core/Src/usbh_core.c ****   * @brief  USBH_HandleEnum 
 605:Middlewares/ST/STM32_USB_Host_Library/Core/Src/usbh_core.c ****   *         This function includes the complete enumeration process
 606:Middlewares/ST/STM32_USB_Host_Library/Core/Src/usbh_core.c ****   * @param  phost: Host Handle
 607:Middlewares/ST/STM32_USB_Host_Library/Core/Src/usbh_core.c ****   * @retval USBH_Status
 608:Middlewares/ST/STM32_USB_Host_Library/Core/Src/usbh_core.c ****   */
 609:Middlewares/ST/STM32_USB_Host_Library/Core/Src/usbh_core.c **** static USBH_StatusTypeDef USBH_HandleEnum (USBH_HandleTypeDef *phost)
 610:Middlewares/ST/STM32_USB_Host_Library/Core/Src/usbh_core.c **** {
 611:Middlewares/ST/STM32_USB_Host_Library/Core/Src/usbh_core.c ****   USBH_StatusTypeDef Status = USBH_BUSY;  
 612:Middlewares/ST/STM32_USB_Host_Library/Core/Src/usbh_core.c ****   
 613:Middlewares/ST/STM32_USB_Host_Library/Core/Src/usbh_core.c ****   switch (phost->EnumState)
 614:Middlewares/ST/STM32_USB_Host_Library/Core/Src/usbh_core.c ****   {
 615:Middlewares/ST/STM32_USB_Host_Library/Core/Src/usbh_core.c ****   case ENUM_IDLE:  
 616:Middlewares/ST/STM32_USB_Host_Library/Core/Src/usbh_core.c ****     /* Get Device Desc for only 1st 8 bytes : To get EP0 MaxPacketSize */
 617:Middlewares/ST/STM32_USB_Host_Library/Core/Src/usbh_core.c ****     if ( USBH_Get_DevDesc(phost, 8) == USBH_OK)
 618:Middlewares/ST/STM32_USB_Host_Library/Core/Src/usbh_core.c ****     {
 619:Middlewares/ST/STM32_USB_Host_Library/Core/Src/usbh_core.c ****       phost->Control.pipe_size = phost->device.DevDesc.bMaxPacketSize;
 620:Middlewares/ST/STM32_USB_Host_Library/Core/Src/usbh_core.c **** 
 621:Middlewares/ST/STM32_USB_Host_Library/Core/Src/usbh_core.c ****       phost->EnumState = ENUM_GET_FULL_DEV_DESC;
 622:Middlewares/ST/STM32_USB_Host_Library/Core/Src/usbh_core.c ****       
 623:Middlewares/ST/STM32_USB_Host_Library/Core/Src/usbh_core.c ****       /* modify control channels configuration for MaxPacket size */
 624:Middlewares/ST/STM32_USB_Host_Library/Core/Src/usbh_core.c ****       USBH_OpenPipe (phost,
 625:Middlewares/ST/STM32_USB_Host_Library/Core/Src/usbh_core.c ****                            phost->Control.pipe_in,
 626:Middlewares/ST/STM32_USB_Host_Library/Core/Src/usbh_core.c ****                            0x80,
 627:Middlewares/ST/STM32_USB_Host_Library/Core/Src/usbh_core.c ****                            phost->device.address,
 628:Middlewares/ST/STM32_USB_Host_Library/Core/Src/usbh_core.c ****                            phost->device.speed,
 629:Middlewares/ST/STM32_USB_Host_Library/Core/Src/usbh_core.c ****                            USBH_EP_CONTROL,
 630:Middlewares/ST/STM32_USB_Host_Library/Core/Src/usbh_core.c ****                            phost->Control.pipe_size); 
 631:Middlewares/ST/STM32_USB_Host_Library/Core/Src/usbh_core.c ****       
 632:Middlewares/ST/STM32_USB_Host_Library/Core/Src/usbh_core.c ****       /* Open Control pipes */
 633:Middlewares/ST/STM32_USB_Host_Library/Core/Src/usbh_core.c ****       USBH_OpenPipe (phost,
 634:Middlewares/ST/STM32_USB_Host_Library/Core/Src/usbh_core.c ****                            phost->Control.pipe_out,
 635:Middlewares/ST/STM32_USB_Host_Library/Core/Src/usbh_core.c ****                            0x00,
ARM GAS  /var/folders/0d/93p3r6493yg7p0rvl_4r983m0000gn/T//ccoyKrkN.s 			page 14


 636:Middlewares/ST/STM32_USB_Host_Library/Core/Src/usbh_core.c ****                            phost->device.address,
 637:Middlewares/ST/STM32_USB_Host_Library/Core/Src/usbh_core.c ****                            phost->device.speed,
 638:Middlewares/ST/STM32_USB_Host_Library/Core/Src/usbh_core.c ****                            USBH_EP_CONTROL,
 639:Middlewares/ST/STM32_USB_Host_Library/Core/Src/usbh_core.c ****                            phost->Control.pipe_size);           
 640:Middlewares/ST/STM32_USB_Host_Library/Core/Src/usbh_core.c ****       
 641:Middlewares/ST/STM32_USB_Host_Library/Core/Src/usbh_core.c ****     }
 642:Middlewares/ST/STM32_USB_Host_Library/Core/Src/usbh_core.c ****     break;
 643:Middlewares/ST/STM32_USB_Host_Library/Core/Src/usbh_core.c ****     
 644:Middlewares/ST/STM32_USB_Host_Library/Core/Src/usbh_core.c ****   case ENUM_GET_FULL_DEV_DESC:  
 645:Middlewares/ST/STM32_USB_Host_Library/Core/Src/usbh_core.c ****     /* Get FULL Device Desc  */
 646:Middlewares/ST/STM32_USB_Host_Library/Core/Src/usbh_core.c ****     if ( USBH_Get_DevDesc(phost, USB_DEVICE_DESC_SIZE)== USBH_OK)
 647:Middlewares/ST/STM32_USB_Host_Library/Core/Src/usbh_core.c ****     {
 648:Middlewares/ST/STM32_USB_Host_Library/Core/Src/usbh_core.c ****       USBH_UsrLog("PID: %xh", phost->device.DevDesc.idProduct );  
 649:Middlewares/ST/STM32_USB_Host_Library/Core/Src/usbh_core.c ****       USBH_UsrLog("VID: %xh", phost->device.DevDesc.idVendor );  
 650:Middlewares/ST/STM32_USB_Host_Library/Core/Src/usbh_core.c ****       
 651:Middlewares/ST/STM32_USB_Host_Library/Core/Src/usbh_core.c ****       phost->EnumState = ENUM_SET_ADDR;
 652:Middlewares/ST/STM32_USB_Host_Library/Core/Src/usbh_core.c ****        
 653:Middlewares/ST/STM32_USB_Host_Library/Core/Src/usbh_core.c ****     }
 654:Middlewares/ST/STM32_USB_Host_Library/Core/Src/usbh_core.c ****     break;
 655:Middlewares/ST/STM32_USB_Host_Library/Core/Src/usbh_core.c ****    
 656:Middlewares/ST/STM32_USB_Host_Library/Core/Src/usbh_core.c ****   case ENUM_SET_ADDR: 
 657:Middlewares/ST/STM32_USB_Host_Library/Core/Src/usbh_core.c ****     /* set address */
 658:Middlewares/ST/STM32_USB_Host_Library/Core/Src/usbh_core.c ****     if ( USBH_SetAddress(phost, USBH_DEVICE_ADDRESS) == USBH_OK)
 659:Middlewares/ST/STM32_USB_Host_Library/Core/Src/usbh_core.c ****     {
 660:Middlewares/ST/STM32_USB_Host_Library/Core/Src/usbh_core.c ****       USBH_Delay(2);
 661:Middlewares/ST/STM32_USB_Host_Library/Core/Src/usbh_core.c ****       phost->device.address = USBH_DEVICE_ADDRESS;
 662:Middlewares/ST/STM32_USB_Host_Library/Core/Src/usbh_core.c ****       
 663:Middlewares/ST/STM32_USB_Host_Library/Core/Src/usbh_core.c ****       /* user callback for device address assigned */
 664:Middlewares/ST/STM32_USB_Host_Library/Core/Src/usbh_core.c ****       USBH_UsrLog("Address (#%d) assigned.", phost->device.address);
 665:Middlewares/ST/STM32_USB_Host_Library/Core/Src/usbh_core.c ****       phost->EnumState = ENUM_GET_CFG_DESC;
 666:Middlewares/ST/STM32_USB_Host_Library/Core/Src/usbh_core.c ****       
 667:Middlewares/ST/STM32_USB_Host_Library/Core/Src/usbh_core.c ****       /* modify control channels to update device address */
 668:Middlewares/ST/STM32_USB_Host_Library/Core/Src/usbh_core.c ****       USBH_OpenPipe (phost,
 669:Middlewares/ST/STM32_USB_Host_Library/Core/Src/usbh_core.c ****                            phost->Control.pipe_in,
 670:Middlewares/ST/STM32_USB_Host_Library/Core/Src/usbh_core.c ****                            0x80,
 671:Middlewares/ST/STM32_USB_Host_Library/Core/Src/usbh_core.c ****                            phost->device.address,
 672:Middlewares/ST/STM32_USB_Host_Library/Core/Src/usbh_core.c ****                            phost->device.speed,
 673:Middlewares/ST/STM32_USB_Host_Library/Core/Src/usbh_core.c ****                            USBH_EP_CONTROL,
 674:Middlewares/ST/STM32_USB_Host_Library/Core/Src/usbh_core.c ****                            phost->Control.pipe_size); 
 675:Middlewares/ST/STM32_USB_Host_Library/Core/Src/usbh_core.c ****       
 676:Middlewares/ST/STM32_USB_Host_Library/Core/Src/usbh_core.c ****       /* Open Control pipes */
 677:Middlewares/ST/STM32_USB_Host_Library/Core/Src/usbh_core.c ****       USBH_OpenPipe (phost,
 678:Middlewares/ST/STM32_USB_Host_Library/Core/Src/usbh_core.c ****                            phost->Control.pipe_out,
 679:Middlewares/ST/STM32_USB_Host_Library/Core/Src/usbh_core.c ****                            0x00,
 680:Middlewares/ST/STM32_USB_Host_Library/Core/Src/usbh_core.c ****                            phost->device.address,
 681:Middlewares/ST/STM32_USB_Host_Library/Core/Src/usbh_core.c ****                            phost->device.speed,
 682:Middlewares/ST/STM32_USB_Host_Library/Core/Src/usbh_core.c ****                            USBH_EP_CONTROL,
 683:Middlewares/ST/STM32_USB_Host_Library/Core/Src/usbh_core.c ****                            phost->Control.pipe_size);        
 684:Middlewares/ST/STM32_USB_Host_Library/Core/Src/usbh_core.c ****     }
 685:Middlewares/ST/STM32_USB_Host_Library/Core/Src/usbh_core.c ****     break;
 686:Middlewares/ST/STM32_USB_Host_Library/Core/Src/usbh_core.c ****     
 687:Middlewares/ST/STM32_USB_Host_Library/Core/Src/usbh_core.c ****   case ENUM_GET_CFG_DESC:  
 688:Middlewares/ST/STM32_USB_Host_Library/Core/Src/usbh_core.c ****     /* get standard configuration descriptor */
 689:Middlewares/ST/STM32_USB_Host_Library/Core/Src/usbh_core.c ****     if ( USBH_Get_CfgDesc(phost, 
 690:Middlewares/ST/STM32_USB_Host_Library/Core/Src/usbh_core.c ****                           USB_CONFIGURATION_DESC_SIZE) == USBH_OK)
 691:Middlewares/ST/STM32_USB_Host_Library/Core/Src/usbh_core.c ****     {
 692:Middlewares/ST/STM32_USB_Host_Library/Core/Src/usbh_core.c ****       phost->EnumState = ENUM_GET_FULL_CFG_DESC;        
ARM GAS  /var/folders/0d/93p3r6493yg7p0rvl_4r983m0000gn/T//ccoyKrkN.s 			page 15


 693:Middlewares/ST/STM32_USB_Host_Library/Core/Src/usbh_core.c ****     }
 694:Middlewares/ST/STM32_USB_Host_Library/Core/Src/usbh_core.c ****     break;
 695:Middlewares/ST/STM32_USB_Host_Library/Core/Src/usbh_core.c ****     
 696:Middlewares/ST/STM32_USB_Host_Library/Core/Src/usbh_core.c ****   case ENUM_GET_FULL_CFG_DESC:  
 697:Middlewares/ST/STM32_USB_Host_Library/Core/Src/usbh_core.c ****     /* get FULL config descriptor (config, interface, endpoints) */
 698:Middlewares/ST/STM32_USB_Host_Library/Core/Src/usbh_core.c ****     if (USBH_Get_CfgDesc(phost, 
 699:Middlewares/ST/STM32_USB_Host_Library/Core/Src/usbh_core.c ****                          phost->device.CfgDesc.wTotalLength) == USBH_OK)
 700:Middlewares/ST/STM32_USB_Host_Library/Core/Src/usbh_core.c ****     {
 701:Middlewares/ST/STM32_USB_Host_Library/Core/Src/usbh_core.c ****       phost->EnumState = ENUM_GET_MFC_STRING_DESC;       
 702:Middlewares/ST/STM32_USB_Host_Library/Core/Src/usbh_core.c ****     }
 703:Middlewares/ST/STM32_USB_Host_Library/Core/Src/usbh_core.c ****     break;
 704:Middlewares/ST/STM32_USB_Host_Library/Core/Src/usbh_core.c ****     
 705:Middlewares/ST/STM32_USB_Host_Library/Core/Src/usbh_core.c ****   case ENUM_GET_MFC_STRING_DESC:  
 706:Middlewares/ST/STM32_USB_Host_Library/Core/Src/usbh_core.c ****     if (phost->device.DevDesc.iManufacturer != 0)
 707:Middlewares/ST/STM32_USB_Host_Library/Core/Src/usbh_core.c ****     { /* Check that Manufacturer String is available */
 708:Middlewares/ST/STM32_USB_Host_Library/Core/Src/usbh_core.c ****       
 709:Middlewares/ST/STM32_USB_Host_Library/Core/Src/usbh_core.c ****       if ( USBH_Get_StringDesc(phost,
 710:Middlewares/ST/STM32_USB_Host_Library/Core/Src/usbh_core.c ****                                phost->device.DevDesc.iManufacturer, 
 711:Middlewares/ST/STM32_USB_Host_Library/Core/Src/usbh_core.c ****                                 phost->device.Data , 
 712:Middlewares/ST/STM32_USB_Host_Library/Core/Src/usbh_core.c ****                                0xff) == USBH_OK)
 713:Middlewares/ST/STM32_USB_Host_Library/Core/Src/usbh_core.c ****       {
 714:Middlewares/ST/STM32_USB_Host_Library/Core/Src/usbh_core.c ****         /* User callback for Manufacturing string */
 715:Middlewares/ST/STM32_USB_Host_Library/Core/Src/usbh_core.c ****         USBH_UsrLog("Manufacturer : %s",  (char *)phost->device.Data);
 716:Middlewares/ST/STM32_USB_Host_Library/Core/Src/usbh_core.c ****         phost->EnumState = ENUM_GET_PRODUCT_STRING_DESC;
 717:Middlewares/ST/STM32_USB_Host_Library/Core/Src/usbh_core.c ****         
 718:Middlewares/ST/STM32_USB_Host_Library/Core/Src/usbh_core.c **** #if (USBH_USE_OS == 1)
 719:Middlewares/ST/STM32_USB_Host_Library/Core/Src/usbh_core.c ****     osMessagePut ( phost->os_event, USBH_STATE_CHANGED_EVENT, 0);
 720:Middlewares/ST/STM32_USB_Host_Library/Core/Src/usbh_core.c **** #endif          
 721:Middlewares/ST/STM32_USB_Host_Library/Core/Src/usbh_core.c ****       }
 722:Middlewares/ST/STM32_USB_Host_Library/Core/Src/usbh_core.c ****     }
 723:Middlewares/ST/STM32_USB_Host_Library/Core/Src/usbh_core.c ****     else
 724:Middlewares/ST/STM32_USB_Host_Library/Core/Src/usbh_core.c ****     {
 725:Middlewares/ST/STM32_USB_Host_Library/Core/Src/usbh_core.c ****      USBH_UsrLog("Manufacturer : N/A");      
 726:Middlewares/ST/STM32_USB_Host_Library/Core/Src/usbh_core.c ****      phost->EnumState = ENUM_GET_PRODUCT_STRING_DESC; 
 727:Middlewares/ST/STM32_USB_Host_Library/Core/Src/usbh_core.c **** #if (USBH_USE_OS == 1)
 728:Middlewares/ST/STM32_USB_Host_Library/Core/Src/usbh_core.c ****     osMessagePut ( phost->os_event, USBH_STATE_CHANGED_EVENT, 0);
 729:Middlewares/ST/STM32_USB_Host_Library/Core/Src/usbh_core.c **** #endif       
 730:Middlewares/ST/STM32_USB_Host_Library/Core/Src/usbh_core.c ****     }
 731:Middlewares/ST/STM32_USB_Host_Library/Core/Src/usbh_core.c ****     break;
 732:Middlewares/ST/STM32_USB_Host_Library/Core/Src/usbh_core.c ****     
 733:Middlewares/ST/STM32_USB_Host_Library/Core/Src/usbh_core.c ****   case ENUM_GET_PRODUCT_STRING_DESC:   
 734:Middlewares/ST/STM32_USB_Host_Library/Core/Src/usbh_core.c ****     if (phost->device.DevDesc.iProduct != 0)
 735:Middlewares/ST/STM32_USB_Host_Library/Core/Src/usbh_core.c ****     { /* Check that Product string is available */
 736:Middlewares/ST/STM32_USB_Host_Library/Core/Src/usbh_core.c ****       if ( USBH_Get_StringDesc(phost,
 737:Middlewares/ST/STM32_USB_Host_Library/Core/Src/usbh_core.c ****                                phost->device.DevDesc.iProduct, 
 738:Middlewares/ST/STM32_USB_Host_Library/Core/Src/usbh_core.c ****                                phost->device.Data, 
 739:Middlewares/ST/STM32_USB_Host_Library/Core/Src/usbh_core.c ****                                0xff) == USBH_OK)
 740:Middlewares/ST/STM32_USB_Host_Library/Core/Src/usbh_core.c ****       {
 741:Middlewares/ST/STM32_USB_Host_Library/Core/Src/usbh_core.c ****         /* User callback for Product string */
 742:Middlewares/ST/STM32_USB_Host_Library/Core/Src/usbh_core.c ****         USBH_UsrLog("Product : %s",  (char *)phost->device.Data);
 743:Middlewares/ST/STM32_USB_Host_Library/Core/Src/usbh_core.c ****         phost->EnumState = ENUM_GET_SERIALNUM_STRING_DESC;        
 744:Middlewares/ST/STM32_USB_Host_Library/Core/Src/usbh_core.c ****       }
 745:Middlewares/ST/STM32_USB_Host_Library/Core/Src/usbh_core.c ****     }
 746:Middlewares/ST/STM32_USB_Host_Library/Core/Src/usbh_core.c ****     else
 747:Middlewares/ST/STM32_USB_Host_Library/Core/Src/usbh_core.c ****     {
 748:Middlewares/ST/STM32_USB_Host_Library/Core/Src/usbh_core.c ****       USBH_UsrLog("Product : N/A");
 749:Middlewares/ST/STM32_USB_Host_Library/Core/Src/usbh_core.c ****       phost->EnumState = ENUM_GET_SERIALNUM_STRING_DESC; 
ARM GAS  /var/folders/0d/93p3r6493yg7p0rvl_4r983m0000gn/T//ccoyKrkN.s 			page 16


 750:Middlewares/ST/STM32_USB_Host_Library/Core/Src/usbh_core.c **** #if (USBH_USE_OS == 1)
 751:Middlewares/ST/STM32_USB_Host_Library/Core/Src/usbh_core.c ****     osMessagePut ( phost->os_event, USBH_STATE_CHANGED_EVENT, 0);
 752:Middlewares/ST/STM32_USB_Host_Library/Core/Src/usbh_core.c **** #endif        
 753:Middlewares/ST/STM32_USB_Host_Library/Core/Src/usbh_core.c ****     } 
 754:Middlewares/ST/STM32_USB_Host_Library/Core/Src/usbh_core.c ****     break;
 755:Middlewares/ST/STM32_USB_Host_Library/Core/Src/usbh_core.c ****     
 756:Middlewares/ST/STM32_USB_Host_Library/Core/Src/usbh_core.c ****   case ENUM_GET_SERIALNUM_STRING_DESC:   
 757:Middlewares/ST/STM32_USB_Host_Library/Core/Src/usbh_core.c ****     if (phost->device.DevDesc.iSerialNumber != 0)
 758:Middlewares/ST/STM32_USB_Host_Library/Core/Src/usbh_core.c ****     { /* Check that Serial number string is available */    
 759:Middlewares/ST/STM32_USB_Host_Library/Core/Src/usbh_core.c ****       if ( USBH_Get_StringDesc(phost,
 760:Middlewares/ST/STM32_USB_Host_Library/Core/Src/usbh_core.c ****                                phost->device.DevDesc.iSerialNumber, 
 761:Middlewares/ST/STM32_USB_Host_Library/Core/Src/usbh_core.c ****                                phost->device.Data, 
 762:Middlewares/ST/STM32_USB_Host_Library/Core/Src/usbh_core.c ****                                0xff) == USBH_OK)
 763:Middlewares/ST/STM32_USB_Host_Library/Core/Src/usbh_core.c ****       {
 764:Middlewares/ST/STM32_USB_Host_Library/Core/Src/usbh_core.c ****         /* User callback for Serial number string */
 765:Middlewares/ST/STM32_USB_Host_Library/Core/Src/usbh_core.c ****          USBH_UsrLog("Serial Number : %s",  (char *)phost->device.Data);
 766:Middlewares/ST/STM32_USB_Host_Library/Core/Src/usbh_core.c ****         Status = USBH_OK;
 767:Middlewares/ST/STM32_USB_Host_Library/Core/Src/usbh_core.c ****       }
 768:Middlewares/ST/STM32_USB_Host_Library/Core/Src/usbh_core.c ****     }
 769:Middlewares/ST/STM32_USB_Host_Library/Core/Src/usbh_core.c ****     else
 770:Middlewares/ST/STM32_USB_Host_Library/Core/Src/usbh_core.c ****     {
 771:Middlewares/ST/STM32_USB_Host_Library/Core/Src/usbh_core.c ****       USBH_UsrLog("Serial Number : N/A"); 
 772:Middlewares/ST/STM32_USB_Host_Library/Core/Src/usbh_core.c ****       Status = USBH_OK;
 773:Middlewares/ST/STM32_USB_Host_Library/Core/Src/usbh_core.c **** #if (USBH_USE_OS == 1)
 774:Middlewares/ST/STM32_USB_Host_Library/Core/Src/usbh_core.c ****     osMessagePut ( phost->os_event, USBH_STATE_CHANGED_EVENT, 0);
 775:Middlewares/ST/STM32_USB_Host_Library/Core/Src/usbh_core.c **** #endif        
 776:Middlewares/ST/STM32_USB_Host_Library/Core/Src/usbh_core.c ****     }  
 777:Middlewares/ST/STM32_USB_Host_Library/Core/Src/usbh_core.c ****     break;
 778:Middlewares/ST/STM32_USB_Host_Library/Core/Src/usbh_core.c ****     
 779:Middlewares/ST/STM32_USB_Host_Library/Core/Src/usbh_core.c ****   default:
 780:Middlewares/ST/STM32_USB_Host_Library/Core/Src/usbh_core.c ****     break;
 781:Middlewares/ST/STM32_USB_Host_Library/Core/Src/usbh_core.c ****   }  
 782:Middlewares/ST/STM32_USB_Host_Library/Core/Src/usbh_core.c ****   return Status;
 783:Middlewares/ST/STM32_USB_Host_Library/Core/Src/usbh_core.c **** }
 784:Middlewares/ST/STM32_USB_Host_Library/Core/Src/usbh_core.c **** 
 785:Middlewares/ST/STM32_USB_Host_Library/Core/Src/usbh_core.c **** /**
 786:Middlewares/ST/STM32_USB_Host_Library/Core/Src/usbh_core.c ****   * @brief  USBH_LL_SetTimer 
 787:Middlewares/ST/STM32_USB_Host_Library/Core/Src/usbh_core.c ****   *         Set the initial Host Timer tick
 788:Middlewares/ST/STM32_USB_Host_Library/Core/Src/usbh_core.c ****   * @param  phost: Host Handle
 789:Middlewares/ST/STM32_USB_Host_Library/Core/Src/usbh_core.c ****   * @retval None
 790:Middlewares/ST/STM32_USB_Host_Library/Core/Src/usbh_core.c ****   */
 791:Middlewares/ST/STM32_USB_Host_Library/Core/Src/usbh_core.c **** void  USBH_LL_SetTimer  (USBH_HandleTypeDef *phost, uint32_t time)
 792:Middlewares/ST/STM32_USB_Host_Library/Core/Src/usbh_core.c **** {
 793:Middlewares/ST/STM32_USB_Host_Library/Core/Src/usbh_core.c ****   phost->Timer = time;
 794:Middlewares/ST/STM32_USB_Host_Library/Core/Src/usbh_core.c **** }
 795:Middlewares/ST/STM32_USB_Host_Library/Core/Src/usbh_core.c **** /**
 796:Middlewares/ST/STM32_USB_Host_Library/Core/Src/usbh_core.c ****   * @brief  USBH_LL_IncTimer 
 797:Middlewares/ST/STM32_USB_Host_Library/Core/Src/usbh_core.c ****   *         Increment Host Timer tick
 798:Middlewares/ST/STM32_USB_Host_Library/Core/Src/usbh_core.c ****   * @param  phost: Host Handle
 799:Middlewares/ST/STM32_USB_Host_Library/Core/Src/usbh_core.c ****   * @retval None
 800:Middlewares/ST/STM32_USB_Host_Library/Core/Src/usbh_core.c ****   */
 801:Middlewares/ST/STM32_USB_Host_Library/Core/Src/usbh_core.c **** void  USBH_LL_IncTimer  (USBH_HandleTypeDef *phost)
 802:Middlewares/ST/STM32_USB_Host_Library/Core/Src/usbh_core.c **** {
 803:Middlewares/ST/STM32_USB_Host_Library/Core/Src/usbh_core.c ****   phost->Timer ++;
 804:Middlewares/ST/STM32_USB_Host_Library/Core/Src/usbh_core.c ****   USBH_HandleSof(phost);
 805:Middlewares/ST/STM32_USB_Host_Library/Core/Src/usbh_core.c **** }
 806:Middlewares/ST/STM32_USB_Host_Library/Core/Src/usbh_core.c **** 
ARM GAS  /var/folders/0d/93p3r6493yg7p0rvl_4r983m0000gn/T//ccoyKrkN.s 			page 17


 807:Middlewares/ST/STM32_USB_Host_Library/Core/Src/usbh_core.c **** /**
 808:Middlewares/ST/STM32_USB_Host_Library/Core/Src/usbh_core.c ****   * @brief  USBH_HandleSof 
 809:Middlewares/ST/STM32_USB_Host_Library/Core/Src/usbh_core.c ****   *         Call SOF process
 810:Middlewares/ST/STM32_USB_Host_Library/Core/Src/usbh_core.c ****   * @param  phost: Host Handle
 811:Middlewares/ST/STM32_USB_Host_Library/Core/Src/usbh_core.c ****   * @retval None
 812:Middlewares/ST/STM32_USB_Host_Library/Core/Src/usbh_core.c ****   */
 813:Middlewares/ST/STM32_USB_Host_Library/Core/Src/usbh_core.c **** void  USBH_HandleSof  (USBH_HandleTypeDef *phost)
 814:Middlewares/ST/STM32_USB_Host_Library/Core/Src/usbh_core.c **** {
 106              		.loc 1 814 0
 107              		.cfi_startproc
 108              		@ args = 0, pretend = 0, frame = 0
 109              		@ frame_needed = 0, uses_anonymous_args = 0
 110              	.LVL8:
 111 0000 08B5     		push	{r3, lr}
 112              	.LCFI0:
 113              		.cfi_def_cfa_offset 8
 114              		.cfi_offset 3, -8
 115              		.cfi_offset 14, -4
 815:Middlewares/ST/STM32_USB_Host_Library/Core/Src/usbh_core.c ****   if((phost->gState == HOST_CLASS)&&(phost->pActiveClass != NULL))
 116              		.loc 1 815 0
 117 0002 0378     		ldrb	r3, [r0]	@ zero_extendqisi2
 118 0004 DBB2     		uxtb	r3, r3
 119 0006 0A2B     		cmp	r3, #10
 120 0008 00D0     		beq	.L9
 121              	.LVL9:
 122              	.L6:
 816:Middlewares/ST/STM32_USB_Host_Library/Core/Src/usbh_core.c ****   {
 817:Middlewares/ST/STM32_USB_Host_Library/Core/Src/usbh_core.c ****     phost->pActiveClass->SOFProcess(phost);
 818:Middlewares/ST/STM32_USB_Host_Library/Core/Src/usbh_core.c ****   }
 819:Middlewares/ST/STM32_USB_Host_Library/Core/Src/usbh_core.c **** }
 123              		.loc 1 819 0
 124 000a 08BD     		pop	{r3, pc}
 125              	.LVL10:
 126              	.L9:
 815:Middlewares/ST/STM32_USB_Host_Library/Core/Src/usbh_core.c ****   if((phost->gState == HOST_CLASS)&&(phost->pActiveClass != NULL))
 127              		.loc 1 815 0 discriminator 1
 128 000c D0F87433 		ldr	r3, [r0, #884]
 129 0010 002B     		cmp	r3, #0
 130 0012 FAD0     		beq	.L6
 817:Middlewares/ST/STM32_USB_Host_Library/Core/Src/usbh_core.c ****   }
 131              		.loc 1 817 0
 132 0014 9B69     		ldr	r3, [r3, #24]
 133 0016 9847     		blx	r3
 134              	.LVL11:
 135              		.loc 1 819 0
 136 0018 F7E7     		b	.L6
 137              		.cfi_endproc
 138              	.LFE146:
 140              		.section	.text.USBH_HandleEnum,"ax",%progbits
 141              		.align	1
 142              		.syntax unified
 143              		.thumb
 144              		.thumb_func
 145              		.fpu fpv4-sp-d16
 147              	USBH_HandleEnum:
 148              	.LFB143:
 610:Middlewares/ST/STM32_USB_Host_Library/Core/Src/usbh_core.c ****   USBH_StatusTypeDef Status = USBH_BUSY;  
ARM GAS  /var/folders/0d/93p3r6493yg7p0rvl_4r983m0000gn/T//ccoyKrkN.s 			page 18


 149              		.loc 1 610 0
 150              		.cfi_startproc
 151              		@ args = 0, pretend = 0, frame = 0
 152              		@ frame_needed = 0, uses_anonymous_args = 0
 153              	.LVL12:
 154 0000 70B5     		push	{r4, r5, r6, lr}
 155              	.LCFI1:
 156              		.cfi_def_cfa_offset 16
 157              		.cfi_offset 4, -16
 158              		.cfi_offset 5, -12
 159              		.cfi_offset 6, -8
 160              		.cfi_offset 14, -4
 161 0002 84B0     		sub	sp, sp, #16
 162              	.LCFI2:
 163              		.cfi_def_cfa_offset 32
 164 0004 0446     		mov	r4, r0
 165              	.LVL13:
 613:Middlewares/ST/STM32_USB_Host_Library/Core/Src/usbh_core.c ****   {
 166              		.loc 1 613 0
 167 0006 4378     		ldrb	r3, [r0, #1]	@ zero_extendqisi2
 168 0008 072B     		cmp	r3, #7
 169 000a 00F20681 		bhi	.L24
 170 000e DFE803F0 		tbb	[pc, r3]
 171              	.L13:
 172 0012 04       		.byte	(.L12-.L13)/2
 173 0013 2D       		.byte	(.L14-.L13)/2
 174 0014 47       		.byte	(.L15-.L13)/2
 175 0015 79       		.byte	(.L16-.L13)/2
 176 0016 83       		.byte	(.L17-.L13)/2
 177 0017 8D       		.byte	(.L18-.L13)/2
 178 0018 BA       		.byte	(.L19-.L13)/2
 179 0019 E1       		.byte	(.L20-.L13)/2
 180              		.p2align 1
 181              	.L12:
 617:Middlewares/ST/STM32_USB_Host_Library/Core/Src/usbh_core.c ****     {
 182              		.loc 1 617 0
 183 001a 0821     		movs	r1, #8
 184 001c FFF7FEFF 		bl	USBH_Get_DevDesc
 185              	.LVL14:
 186 0020 18B1     		cbz	r0, .L34
 611:Middlewares/ST/STM32_USB_Host_Library/Core/Src/usbh_core.c ****   
 187              		.loc 1 611 0
 188 0022 0124     		movs	r4, #1
 189              	.LVL15:
 190              	.L11:
 783:Middlewares/ST/STM32_USB_Host_Library/Core/Src/usbh_core.c **** 
 191              		.loc 1 783 0
 192 0024 2046     		mov	r0, r4
 193 0026 04B0     		add	sp, sp, #16
 194              	.LCFI3:
 195              		.cfi_remember_state
 196              		.cfi_def_cfa_offset 16
 197              		@ sp needed
 198 0028 70BD     		pop	{r4, r5, r6, pc}
 199              	.LVL16:
 200              	.L34:
 201              	.LCFI4:
ARM GAS  /var/folders/0d/93p3r6493yg7p0rvl_4r983m0000gn/T//ccoyKrkN.s 			page 19


 202              		.cfi_restore_state
 619:Middlewares/ST/STM32_USB_Host_Library/Core/Src/usbh_core.c **** 
 203              		.loc 1 619 0
 204 002a 94F82723 		ldrb	r2, [r4, #807]	@ zero_extendqisi2
 205 002e A271     		strb	r2, [r4, #6]
 621:Middlewares/ST/STM32_USB_Host_Library/Core/Src/usbh_core.c ****       
 206              		.loc 1 621 0
 207 0030 0125     		movs	r5, #1
 208 0032 6570     		strb	r5, [r4, #1]
 624:Middlewares/ST/STM32_USB_Host_Library/Core/Src/usbh_core.c ****                            phost->Control.pipe_in,
 209              		.loc 1 624 0
 210 0034 94F81C33 		ldrb	r3, [r4, #796]	@ zero_extendqisi2
 211 0038 2179     		ldrb	r1, [r4, #4]	@ zero_extendqisi2
 212 003a 0292     		str	r2, [sp, #8]
 213 003c 0026     		movs	r6, #0
 214 003e 0196     		str	r6, [sp, #4]
 215 0040 94F81D23 		ldrb	r2, [r4, #797]	@ zero_extendqisi2
 216 0044 0092     		str	r2, [sp]
 217 0046 8022     		movs	r2, #128
 218 0048 2046     		mov	r0, r4
 219 004a FFF7FEFF 		bl	USBH_OpenPipe
 220              	.LVL17:
 633:Middlewares/ST/STM32_USB_Host_Library/Core/Src/usbh_core.c ****                            phost->Control.pipe_out,
 221              		.loc 1 633 0
 222 004e 94F81C33 		ldrb	r3, [r4, #796]	@ zero_extendqisi2
 223 0052 6179     		ldrb	r1, [r4, #5]	@ zero_extendqisi2
 224 0054 A279     		ldrb	r2, [r4, #6]	@ zero_extendqisi2
 225 0056 0292     		str	r2, [sp, #8]
 226 0058 0196     		str	r6, [sp, #4]
 227 005a 94F81D23 		ldrb	r2, [r4, #797]	@ zero_extendqisi2
 228 005e 0092     		str	r2, [sp]
 229 0060 3246     		mov	r2, r6
 230 0062 2046     		mov	r0, r4
 231 0064 FFF7FEFF 		bl	USBH_OpenPipe
 232              	.LVL18:
 611:Middlewares/ST/STM32_USB_Host_Library/Core/Src/usbh_core.c ****   
 233              		.loc 1 611 0
 234 0068 2C46     		mov	r4, r5
 235              	.LVL19:
 236 006a DBE7     		b	.L11
 237              	.LVL20:
 238              	.L14:
 646:Middlewares/ST/STM32_USB_Host_Library/Core/Src/usbh_core.c ****     {
 239              		.loc 1 646 0
 240 006c 1221     		movs	r1, #18
 241 006e FFF7FEFF 		bl	USBH_Get_DevDesc
 242              	.LVL21:
 243 0072 08B1     		cbz	r0, .L35
 611:Middlewares/ST/STM32_USB_Host_Library/Core/Src/usbh_core.c ****   
 244              		.loc 1 611 0
 245 0074 0124     		movs	r4, #1
 246              	.LVL22:
 247 0076 D5E7     		b	.L11
 248              	.LVL23:
 249              	.L35:
 648:Middlewares/ST/STM32_USB_Host_Library/Core/Src/usbh_core.c ****       USBH_UsrLog("VID: %xh", phost->device.DevDesc.idVendor );  
 250              		.loc 1 648 0
ARM GAS  /var/folders/0d/93p3r6493yg7p0rvl_4r983m0000gn/T//ccoyKrkN.s 			page 20


 251 0078 B4F82A13 		ldrh	r1, [r4, #810]
 252 007c 6A48     		ldr	r0, .L40
 253 007e FFF7FEFF 		bl	printf
 254              	.LVL24:
 255 0082 0A20     		movs	r0, #10
 256 0084 FFF7FEFF 		bl	putchar
 257              	.LVL25:
 649:Middlewares/ST/STM32_USB_Host_Library/Core/Src/usbh_core.c ****       
 258              		.loc 1 649 0
 259 0088 B4F82813 		ldrh	r1, [r4, #808]
 260 008c 6748     		ldr	r0, .L40+4
 261 008e FFF7FEFF 		bl	printf
 262              	.LVL26:
 263 0092 0A20     		movs	r0, #10
 264 0094 FFF7FEFF 		bl	putchar
 265              	.LVL27:
 651:Middlewares/ST/STM32_USB_Host_Library/Core/Src/usbh_core.c ****        
 266              		.loc 1 651 0
 267 0098 0223     		movs	r3, #2
 268 009a 6370     		strb	r3, [r4, #1]
 611:Middlewares/ST/STM32_USB_Host_Library/Core/Src/usbh_core.c ****   
 269              		.loc 1 611 0
 270 009c 0124     		movs	r4, #1
 271              	.LVL28:
 272 009e C1E7     		b	.L11
 273              	.LVL29:
 274              	.L15:
 658:Middlewares/ST/STM32_USB_Host_Library/Core/Src/usbh_core.c ****     {
 275              		.loc 1 658 0
 276 00a0 0121     		movs	r1, #1
 277 00a2 FFF7FEFF 		bl	USBH_SetAddress
 278              	.LVL30:
 279 00a6 08B1     		cbz	r0, .L36
 611:Middlewares/ST/STM32_USB_Host_Library/Core/Src/usbh_core.c ****   
 280              		.loc 1 611 0
 281 00a8 0124     		movs	r4, #1
 282              	.LVL31:
 283 00aa BBE7     		b	.L11
 284              	.LVL32:
 285              	.L36:
 660:Middlewares/ST/STM32_USB_Host_Library/Core/Src/usbh_core.c ****       phost->device.address = USBH_DEVICE_ADDRESS;
 286              		.loc 1 660 0
 287 00ac 0220     		movs	r0, #2
 288 00ae FFF7FEFF 		bl	USBH_Delay
 289              	.LVL33:
 661:Middlewares/ST/STM32_USB_Host_Library/Core/Src/usbh_core.c ****       
 290              		.loc 1 661 0
 291 00b2 0125     		movs	r5, #1
 292 00b4 84F81C53 		strb	r5, [r4, #796]
 664:Middlewares/ST/STM32_USB_Host_Library/Core/Src/usbh_core.c ****       phost->EnumState = ENUM_GET_CFG_DESC;
 293              		.loc 1 664 0
 294 00b8 2946     		mov	r1, r5
 295 00ba 5D48     		ldr	r0, .L40+8
 296 00bc FFF7FEFF 		bl	printf
 297              	.LVL34:
 298 00c0 0A20     		movs	r0, #10
 299 00c2 FFF7FEFF 		bl	putchar
ARM GAS  /var/folders/0d/93p3r6493yg7p0rvl_4r983m0000gn/T//ccoyKrkN.s 			page 21


 300              	.LVL35:
 665:Middlewares/ST/STM32_USB_Host_Library/Core/Src/usbh_core.c ****       
 301              		.loc 1 665 0
 302 00c6 0323     		movs	r3, #3
 303 00c8 6370     		strb	r3, [r4, #1]
 668:Middlewares/ST/STM32_USB_Host_Library/Core/Src/usbh_core.c ****                            phost->Control.pipe_in,
 304              		.loc 1 668 0
 305 00ca 94F81C33 		ldrb	r3, [r4, #796]	@ zero_extendqisi2
 306 00ce 2179     		ldrb	r1, [r4, #4]	@ zero_extendqisi2
 307 00d0 A279     		ldrb	r2, [r4, #6]	@ zero_extendqisi2
 308 00d2 0292     		str	r2, [sp, #8]
 309 00d4 0026     		movs	r6, #0
 310 00d6 0196     		str	r6, [sp, #4]
 311 00d8 94F81D23 		ldrb	r2, [r4, #797]	@ zero_extendqisi2
 312 00dc 0092     		str	r2, [sp]
 313 00de 8022     		movs	r2, #128
 314 00e0 2046     		mov	r0, r4
 315 00e2 FFF7FEFF 		bl	USBH_OpenPipe
 316              	.LVL36:
 677:Middlewares/ST/STM32_USB_Host_Library/Core/Src/usbh_core.c ****                            phost->Control.pipe_out,
 317              		.loc 1 677 0
 318 00e6 94F81C33 		ldrb	r3, [r4, #796]	@ zero_extendqisi2
 319 00ea 6179     		ldrb	r1, [r4, #5]	@ zero_extendqisi2
 320 00ec A279     		ldrb	r2, [r4, #6]	@ zero_extendqisi2
 321 00ee 0292     		str	r2, [sp, #8]
 322 00f0 0196     		str	r6, [sp, #4]
 323 00f2 94F81D23 		ldrb	r2, [r4, #797]	@ zero_extendqisi2
 324 00f6 0092     		str	r2, [sp]
 325 00f8 3246     		mov	r2, r6
 326 00fa 2046     		mov	r0, r4
 327 00fc FFF7FEFF 		bl	USBH_OpenPipe
 328              	.LVL37:
 611:Middlewares/ST/STM32_USB_Host_Library/Core/Src/usbh_core.c ****   
 329              		.loc 1 611 0
 330 0100 2C46     		mov	r4, r5
 331              	.LVL38:
 332 0102 8FE7     		b	.L11
 333              	.LVL39:
 334              	.L16:
 689:Middlewares/ST/STM32_USB_Host_Library/Core/Src/usbh_core.c ****                           USB_CONFIGURATION_DESC_SIZE) == USBH_OK)
 335              		.loc 1 689 0
 336 0104 0921     		movs	r1, #9
 337 0106 FFF7FEFF 		bl	USBH_Get_CfgDesc
 338              	.LVL40:
 339 010a 0028     		cmp	r0, #0
 340 010c 40F08780 		bne	.L28
 692:Middlewares/ST/STM32_USB_Host_Library/Core/Src/usbh_core.c ****     }
 341              		.loc 1 692 0
 342 0110 0423     		movs	r3, #4
 343 0112 6370     		strb	r3, [r4, #1]
 611:Middlewares/ST/STM32_USB_Host_Library/Core/Src/usbh_core.c ****   
 344              		.loc 1 611 0
 345 0114 0124     		movs	r4, #1
 346              	.LVL41:
 347 0116 85E7     		b	.L11
 348              	.LVL42:
 349              	.L17:
ARM GAS  /var/folders/0d/93p3r6493yg7p0rvl_4r983m0000gn/T//ccoyKrkN.s 			page 22


 698:Middlewares/ST/STM32_USB_Host_Library/Core/Src/usbh_core.c ****                          phost->device.CfgDesc.wTotalLength) == USBH_OK)
 350              		.loc 1 698 0
 351 0118 B0F83413 		ldrh	r1, [r0, #820]
 352 011c FFF7FEFF 		bl	USBH_Get_CfgDesc
 353              	.LVL43:
 354 0120 0028     		cmp	r0, #0
 355 0122 7ED1     		bne	.L29
 701:Middlewares/ST/STM32_USB_Host_Library/Core/Src/usbh_core.c ****     }
 356              		.loc 1 701 0
 357 0124 0523     		movs	r3, #5
 358 0126 6370     		strb	r3, [r4, #1]
 611:Middlewares/ST/STM32_USB_Host_Library/Core/Src/usbh_core.c ****   
 359              		.loc 1 611 0
 360 0128 0124     		movs	r4, #1
 361              	.LVL44:
 362 012a 7BE7     		b	.L11
 363              	.LVL45:
 364              	.L18:
 706:Middlewares/ST/STM32_USB_Host_Library/Core/Src/usbh_core.c ****     { /* Check that Manufacturer String is available */
 365              		.loc 1 706 0
 366 012c 90F82E13 		ldrb	r1, [r0, #814]	@ zero_extendqisi2
 367 0130 C9B1     		cbz	r1, .L21
 711:Middlewares/ST/STM32_USB_Host_Library/Core/Src/usbh_core.c ****                                0xff) == USBH_OK)
 368              		.loc 1 711 0
 369 0132 00F58E75 		add	r5, r0, #284
 709:Middlewares/ST/STM32_USB_Host_Library/Core/Src/usbh_core.c ****                                phost->device.DevDesc.iManufacturer, 
 370              		.loc 1 709 0
 371 0136 FF23     		movs	r3, #255
 372 0138 2A46     		mov	r2, r5
 373 013a FFF7FEFF 		bl	USBH_Get_StringDesc
 374              	.LVL46:
 375 013e 08B1     		cbz	r0, .L37
 611:Middlewares/ST/STM32_USB_Host_Library/Core/Src/usbh_core.c ****   
 376              		.loc 1 611 0
 377 0140 0124     		movs	r4, #1
 378              	.LVL47:
 379 0142 6FE7     		b	.L11
 380              	.LVL48:
 381              	.L37:
 715:Middlewares/ST/STM32_USB_Host_Library/Core/Src/usbh_core.c ****         phost->EnumState = ENUM_GET_PRODUCT_STRING_DESC;
 382              		.loc 1 715 0
 383 0144 2946     		mov	r1, r5
 384 0146 3B48     		ldr	r0, .L40+12
 385 0148 FFF7FEFF 		bl	printf
 386              	.LVL49:
 387 014c 0A20     		movs	r0, #10
 388 014e FFF7FEFF 		bl	putchar
 389              	.LVL50:
 716:Middlewares/ST/STM32_USB_Host_Library/Core/Src/usbh_core.c ****         
 390              		.loc 1 716 0
 391 0152 0623     		movs	r3, #6
 392 0154 6370     		strb	r3, [r4, #1]
 719:Middlewares/ST/STM32_USB_Host_Library/Core/Src/usbh_core.c **** #endif          
 393              		.loc 1 719 0
 394 0156 0022     		movs	r2, #0
 395 0158 0521     		movs	r1, #5
 396 015a D4F8C803 		ldr	r0, [r4, #968]
ARM GAS  /var/folders/0d/93p3r6493yg7p0rvl_4r983m0000gn/T//ccoyKrkN.s 			page 23


 397 015e FFF7FEFF 		bl	osMessagePut
 398              	.LVL51:
 611:Middlewares/ST/STM32_USB_Host_Library/Core/Src/usbh_core.c ****   
 399              		.loc 1 611 0
 400 0162 0124     		movs	r4, #1
 401              	.LVL52:
 402 0164 5EE7     		b	.L11
 403              	.LVL53:
 404              	.L21:
 725:Middlewares/ST/STM32_USB_Host_Library/Core/Src/usbh_core.c ****      phost->EnumState = ENUM_GET_PRODUCT_STRING_DESC; 
 405              		.loc 1 725 0
 406 0166 3448     		ldr	r0, .L40+16
 407              	.LVL54:
 408 0168 FFF7FEFF 		bl	printf
 409              	.LVL55:
 410 016c 0A20     		movs	r0, #10
 411 016e FFF7FEFF 		bl	putchar
 412              	.LVL56:
 726:Middlewares/ST/STM32_USB_Host_Library/Core/Src/usbh_core.c **** #if (USBH_USE_OS == 1)
 413              		.loc 1 726 0
 414 0172 0623     		movs	r3, #6
 415 0174 6370     		strb	r3, [r4, #1]
 728:Middlewares/ST/STM32_USB_Host_Library/Core/Src/usbh_core.c **** #endif       
 416              		.loc 1 728 0
 417 0176 0022     		movs	r2, #0
 418 0178 0521     		movs	r1, #5
 419 017a D4F8C803 		ldr	r0, [r4, #968]
 420 017e FFF7FEFF 		bl	osMessagePut
 421              	.LVL57:
 611:Middlewares/ST/STM32_USB_Host_Library/Core/Src/usbh_core.c ****   
 422              		.loc 1 611 0
 423 0182 0124     		movs	r4, #1
 424              	.LVL58:
 425 0184 4EE7     		b	.L11
 426              	.LVL59:
 427              	.L19:
 734:Middlewares/ST/STM32_USB_Host_Library/Core/Src/usbh_core.c ****     { /* Check that Product string is available */
 428              		.loc 1 734 0
 429 0186 90F82F13 		ldrb	r1, [r0, #815]	@ zero_extendqisi2
 430 018a 99B1     		cbz	r1, .L22
 738:Middlewares/ST/STM32_USB_Host_Library/Core/Src/usbh_core.c ****                                0xff) == USBH_OK)
 431              		.loc 1 738 0
 432 018c 00F58E75 		add	r5, r0, #284
 736:Middlewares/ST/STM32_USB_Host_Library/Core/Src/usbh_core.c ****                                phost->device.DevDesc.iProduct, 
 433              		.loc 1 736 0
 434 0190 FF23     		movs	r3, #255
 435 0192 2A46     		mov	r2, r5
 436 0194 FFF7FEFF 		bl	USBH_Get_StringDesc
 437              	.LVL60:
 438 0198 08B1     		cbz	r0, .L38
 611:Middlewares/ST/STM32_USB_Host_Library/Core/Src/usbh_core.c ****   
 439              		.loc 1 611 0
 440 019a 0124     		movs	r4, #1
 441              	.LVL61:
 442 019c 42E7     		b	.L11
 443              	.LVL62:
 444              	.L38:
ARM GAS  /var/folders/0d/93p3r6493yg7p0rvl_4r983m0000gn/T//ccoyKrkN.s 			page 24


 742:Middlewares/ST/STM32_USB_Host_Library/Core/Src/usbh_core.c ****         phost->EnumState = ENUM_GET_SERIALNUM_STRING_DESC;        
 445              		.loc 1 742 0
 446 019e 2946     		mov	r1, r5
 447 01a0 2648     		ldr	r0, .L40+20
 448 01a2 FFF7FEFF 		bl	printf
 449              	.LVL63:
 450 01a6 0A20     		movs	r0, #10
 451 01a8 FFF7FEFF 		bl	putchar
 452              	.LVL64:
 743:Middlewares/ST/STM32_USB_Host_Library/Core/Src/usbh_core.c ****       }
 453              		.loc 1 743 0
 454 01ac 0723     		movs	r3, #7
 455 01ae 6370     		strb	r3, [r4, #1]
 611:Middlewares/ST/STM32_USB_Host_Library/Core/Src/usbh_core.c ****   
 456              		.loc 1 611 0
 457 01b0 0124     		movs	r4, #1
 458              	.LVL65:
 459 01b2 37E7     		b	.L11
 460              	.LVL66:
 461              	.L22:
 748:Middlewares/ST/STM32_USB_Host_Library/Core/Src/usbh_core.c ****       phost->EnumState = ENUM_GET_SERIALNUM_STRING_DESC; 
 462              		.loc 1 748 0
 463 01b4 2248     		ldr	r0, .L40+24
 464              	.LVL67:
 465 01b6 FFF7FEFF 		bl	printf
 466              	.LVL68:
 467 01ba 0A20     		movs	r0, #10
 468 01bc FFF7FEFF 		bl	putchar
 469              	.LVL69:
 749:Middlewares/ST/STM32_USB_Host_Library/Core/Src/usbh_core.c **** #if (USBH_USE_OS == 1)
 470              		.loc 1 749 0
 471 01c0 0723     		movs	r3, #7
 472 01c2 6370     		strb	r3, [r4, #1]
 751:Middlewares/ST/STM32_USB_Host_Library/Core/Src/usbh_core.c **** #endif        
 473              		.loc 1 751 0
 474 01c4 0022     		movs	r2, #0
 475 01c6 0521     		movs	r1, #5
 476 01c8 D4F8C803 		ldr	r0, [r4, #968]
 477 01cc FFF7FEFF 		bl	osMessagePut
 478              	.LVL70:
 611:Middlewares/ST/STM32_USB_Host_Library/Core/Src/usbh_core.c ****   
 479              		.loc 1 611 0
 480 01d0 0124     		movs	r4, #1
 481              	.LVL71:
 482 01d2 27E7     		b	.L11
 483              	.LVL72:
 484              	.L20:
 757:Middlewares/ST/STM32_USB_Host_Library/Core/Src/usbh_core.c ****     { /* Check that Serial number string is available */    
 485              		.loc 1 757 0
 486 01d4 90F83013 		ldrb	r1, [r0, #816]	@ zero_extendqisi2
 487 01d8 89B1     		cbz	r1, .L23
 761:Middlewares/ST/STM32_USB_Host_Library/Core/Src/usbh_core.c ****                                0xff) == USBH_OK)
 488              		.loc 1 761 0
 489 01da 00F58E75 		add	r5, r0, #284
 759:Middlewares/ST/STM32_USB_Host_Library/Core/Src/usbh_core.c ****                                phost->device.DevDesc.iSerialNumber, 
 490              		.loc 1 759 0
 491 01de FF23     		movs	r3, #255
ARM GAS  /var/folders/0d/93p3r6493yg7p0rvl_4r983m0000gn/T//ccoyKrkN.s 			page 25


 492 01e0 2A46     		mov	r2, r5
 493 01e2 FFF7FEFF 		bl	USBH_Get_StringDesc
 494              	.LVL73:
 495 01e6 0446     		mov	r4, r0
 496              	.LVL74:
 497 01e8 08B1     		cbz	r0, .L39
 611:Middlewares/ST/STM32_USB_Host_Library/Core/Src/usbh_core.c ****   
 498              		.loc 1 611 0
 499 01ea 0124     		movs	r4, #1
 500 01ec 1AE7     		b	.L11
 501              	.L39:
 765:Middlewares/ST/STM32_USB_Host_Library/Core/Src/usbh_core.c ****         Status = USBH_OK;
 502              		.loc 1 765 0
 503 01ee 2946     		mov	r1, r5
 504 01f0 1448     		ldr	r0, .L40+28
 505 01f2 FFF7FEFF 		bl	printf
 506              	.LVL75:
 507 01f6 0A20     		movs	r0, #10
 508 01f8 FFF7FEFF 		bl	putchar
 509              	.LVL76:
 510 01fc 12E7     		b	.L11
 511              	.LVL77:
 512              	.L23:
 771:Middlewares/ST/STM32_USB_Host_Library/Core/Src/usbh_core.c ****       Status = USBH_OK;
 513              		.loc 1 771 0
 514 01fe 1248     		ldr	r0, .L40+32
 515              	.LVL78:
 516 0200 FFF7FEFF 		bl	printf
 517              	.LVL79:
 518 0204 0A20     		movs	r0, #10
 519 0206 FFF7FEFF 		bl	putchar
 520              	.LVL80:
 774:Middlewares/ST/STM32_USB_Host_Library/Core/Src/usbh_core.c **** #endif        
 521              		.loc 1 774 0
 522 020a 0022     		movs	r2, #0
 523 020c 0521     		movs	r1, #5
 524 020e D4F8C803 		ldr	r0, [r4, #968]
 525 0212 FFF7FEFF 		bl	osMessagePut
 526              	.LVL81:
 772:Middlewares/ST/STM32_USB_Host_Library/Core/Src/usbh_core.c **** #if (USBH_USE_OS == 1)
 527              		.loc 1 772 0
 528 0216 0024     		movs	r4, #0
 529              	.LVL82:
 530 0218 04E7     		b	.L11
 531              	.LVL83:
 532              	.L24:
 611:Middlewares/ST/STM32_USB_Host_Library/Core/Src/usbh_core.c ****   
 533              		.loc 1 611 0
 534 021a 0124     		movs	r4, #1
 535 021c 02E7     		b	.L11
 536              	.LVL84:
 537              	.L28:
 538 021e 0124     		movs	r4, #1
 539              	.LVL85:
 540 0220 00E7     		b	.L11
 541              	.LVL86:
 542              	.L29:
ARM GAS  /var/folders/0d/93p3r6493yg7p0rvl_4r983m0000gn/T//ccoyKrkN.s 			page 26


 543 0222 0124     		movs	r4, #1
 544              	.LVL87:
 545 0224 FEE6     		b	.L11
 546              	.L41:
 547 0226 00BF     		.align	2
 548              	.L40:
 549 0228 00000000 		.word	.LC3
 550 022c 0C000000 		.word	.LC4
 551 0230 18000000 		.word	.LC5
 552 0234 30000000 		.word	.LC6
 553 0238 44000000 		.word	.LC7
 554 023c 58000000 		.word	.LC8
 555 0240 68000000 		.word	.LC9
 556 0244 78000000 		.word	.LC10
 557 0248 8C000000 		.word	.LC11
 558              		.cfi_endproc
 559              	.LFE143:
 561              		.section	.text.USBH_Init,"ax",%progbits
 562              		.align	1
 563              		.global	USBH_Init
 564              		.syntax unified
 565              		.thumb
 566              		.thumb_func
 567              		.fpu fpv4-sp-d16
 569              	USBH_Init:
 570              	.LFB131:
  93:Middlewares/ST/STM32_USB_Host_Library/Core/Src/usbh_core.c ****   /* Check whether the USB Host handle is valid */
 571              		.loc 1 93 0
 572              		.cfi_startproc
 573              		@ args = 0, pretend = 0, frame = 32
 574              		@ frame_needed = 0, uses_anonymous_args = 0
 575              	.LVL88:
 576 0000 70B5     		push	{r4, r5, r6, lr}
 577              	.LCFI5:
 578              		.cfi_def_cfa_offset 16
 579              		.cfi_offset 4, -16
 580              		.cfi_offset 5, -12
 581              		.cfi_offset 6, -8
 582              		.cfi_offset 14, -4
 583 0002 88B0     		sub	sp, sp, #32
 584              	.LCFI6:
 585              		.cfi_def_cfa_offset 48
  95:Middlewares/ST/STM32_USB_Host_Library/Core/Src/usbh_core.c ****   {
 586              		.loc 1 95 0
 587 0004 58B3     		cbz	r0, .L47
 588 0006 0C46     		mov	r4, r1
 589 0008 0546     		mov	r5, r0
 102:Middlewares/ST/STM32_USB_Host_Library/Core/Src/usbh_core.c ****   
 590              		.loc 1 102 0
 591 000a 80F8BC23 		strb	r2, [r0, #956]
 105:Middlewares/ST/STM32_USB_Host_Library/Core/Src/usbh_core.c ****   phost->ClassNumber = 0;
 592              		.loc 1 105 0
 593 000e 0023     		movs	r3, #0
 594 0010 C0F87433 		str	r3, [r0, #884]
 106:Middlewares/ST/STM32_USB_Host_Library/Core/Src/usbh_core.c ****   
 595              		.loc 1 106 0
 596 0014 C0F87833 		str	r3, [r0, #888]
ARM GAS  /var/folders/0d/93p3r6493yg7p0rvl_4r983m0000gn/T//ccoyKrkN.s 			page 27


 109:Middlewares/ST/STM32_USB_Host_Library/Core/Src/usbh_core.c ****   
 597              		.loc 1 109 0
 598 0018 FFF7FEFF 		bl	DeInitStateMachine
 599              	.LVL89:
 112:Middlewares/ST/STM32_USB_Host_Library/Core/Src/usbh_core.c ****   {
 600              		.loc 1 112 0
 601 001c 0CB1     		cbz	r4, .L45
 114:Middlewares/ST/STM32_USB_Host_Library/Core/Src/usbh_core.c ****   }
 602              		.loc 1 114 0
 603 001e C5F8C443 		str	r4, [r5, #964]
 604              	.L45:
 120:Middlewares/ST/STM32_USB_Host_Library/Core/Src/usbh_core.c ****   phost->os_event = osMessageCreate (osMessageQ(USBH_Queue), NULL); 
 605              		.loc 1 120 0
 606 0022 144C     		ldr	r4, .L48
 607              	.LVL90:
 608 0024 06AB     		add	r3, sp, #24
 609 0026 94E80300 		ldm	r4, {r0, r1}
 610 002a 83E80300 		stm	r3, {r0, r1}
 121:Middlewares/ST/STM32_USB_Host_Library/Core/Src/usbh_core.c ****   
 611              		.loc 1 121 0
 612 002e 0021     		movs	r1, #0
 613 0030 1846     		mov	r0, r3
 614 0032 FFF7FEFF 		bl	osMessageCreate
 615              	.LVL91:
 616 0036 C5F8C803 		str	r0, [r5, #968]
 125:Middlewares/ST/STM32_USB_Host_Library/Core/Src/usbh_core.c **** #else
 617              		.loc 1 125 0
 618 003a 01AE     		add	r6, sp, #4
 619 003c 0834     		adds	r4, r4, #8
 620 003e 0FCC     		ldmia	r4!, {r0, r1, r2, r3}
 621 0040 0FC6     		stmia	r6!, {r0, r1, r2, r3}
 622 0042 2368     		ldr	r3, [r4]
 623 0044 3360     		str	r3, [r6]
 129:Middlewares/ST/STM32_USB_Host_Library/Core/Src/usbh_core.c **** #endif  
 624              		.loc 1 129 0
 625 0046 2946     		mov	r1, r5
 626 0048 01A8     		add	r0, sp, #4
 627 004a FFF7FEFF 		bl	osThreadCreate
 628              	.LVL92:
 629 004e C5F8CC03 		str	r0, [r5, #972]
 133:Middlewares/ST/STM32_USB_Host_Library/Core/Src/usbh_core.c ****   return USBH_OK;
 630              		.loc 1 133 0
 631 0052 2846     		mov	r0, r5
 632 0054 FFF7FEFF 		bl	USBH_LL_Init
 633              	.LVL93:
 134:Middlewares/ST/STM32_USB_Host_Library/Core/Src/usbh_core.c **** }
 634              		.loc 1 134 0
 635 0058 0020     		movs	r0, #0
 636              	.LVL94:
 637              	.L44:
 135:Middlewares/ST/STM32_USB_Host_Library/Core/Src/usbh_core.c **** 
 638              		.loc 1 135 0
 639 005a 08B0     		add	sp, sp, #32
 640              	.LCFI7:
 641              		.cfi_remember_state
 642              		.cfi_def_cfa_offset 16
 643              		@ sp needed
ARM GAS  /var/folders/0d/93p3r6493yg7p0rvl_4r983m0000gn/T//ccoyKrkN.s 			page 28


 644 005c 70BD     		pop	{r4, r5, r6, pc}
 645              	.LVL95:
 646              	.L47:
 647              	.LCFI8:
 648              		.cfi_restore_state
  97:Middlewares/ST/STM32_USB_Host_Library/Core/Src/usbh_core.c ****     return USBH_FAIL; 
 649              		.loc 1 97 0
 650 005e 0648     		ldr	r0, .L48+4
 651              	.LVL96:
 652 0060 FFF7FEFF 		bl	printf
 653              	.LVL97:
 654 0064 0548     		ldr	r0, .L48+8
 655 0066 FFF7FEFF 		bl	printf
 656              	.LVL98:
 657 006a 0A20     		movs	r0, #10
 658 006c FFF7FEFF 		bl	putchar
 659              	.LVL99:
  98:Middlewares/ST/STM32_USB_Host_Library/Core/Src/usbh_core.c ****   }
 660              		.loc 1 98 0
 661 0070 0220     		movs	r0, #2
 662 0072 F2E7     		b	.L44
 663              	.L49:
 664              		.align	2
 665              	.L48:
 666 0074 00000000 		.word	.LANCHOR0
 667 0078 00000000 		.word	.LC12
 668 007c 08000000 		.word	.LC13
 669              		.cfi_endproc
 670              	.LFE131:
 672              		.section	.text.USBH_DeInit,"ax",%progbits
 673              		.align	1
 674              		.global	USBH_DeInit
 675              		.syntax unified
 676              		.thumb
 677              		.thumb_func
 678              		.fpu fpv4-sp-d16
 680              	USBH_DeInit:
 681              	.LFB132:
 144:Middlewares/ST/STM32_USB_Host_Library/Core/Src/usbh_core.c ****   DeInitStateMachine(phost);
 682              		.loc 1 144 0
 683              		.cfi_startproc
 684              		@ args = 0, pretend = 0, frame = 0
 685              		@ frame_needed = 0, uses_anonymous_args = 0
 686              	.LVL100:
 687 0000 10B5     		push	{r4, lr}
 688              	.LCFI9:
 689              		.cfi_def_cfa_offset 8
 690              		.cfi_offset 4, -8
 691              		.cfi_offset 14, -4
 692 0002 0446     		mov	r4, r0
 145:Middlewares/ST/STM32_USB_Host_Library/Core/Src/usbh_core.c ****   
 693              		.loc 1 145 0
 694 0004 FFF7FEFF 		bl	DeInitStateMachine
 695              	.LVL101:
 147:Middlewares/ST/STM32_USB_Host_Library/Core/Src/usbh_core.c ****   {
 696              		.loc 1 147 0
 697 0008 D4F8C033 		ldr	r3, [r4, #960]
ARM GAS  /var/folders/0d/93p3r6493yg7p0rvl_4r983m0000gn/T//ccoyKrkN.s 			page 29


 698 000c 33B1     		cbz	r3, .L51
 149:Middlewares/ST/STM32_USB_Host_Library/Core/Src/usbh_core.c ****     USBH_LL_Stop(phost);
 699              		.loc 1 149 0
 700 000e D4F87433 		ldr	r3, [r4, #884]
 701 0012 0022     		movs	r2, #0
 702 0014 DA61     		str	r2, [r3, #28]
 150:Middlewares/ST/STM32_USB_Host_Library/Core/Src/usbh_core.c ****   }
 703              		.loc 1 150 0
 704 0016 2046     		mov	r0, r4
 705 0018 FFF7FEFF 		bl	USBH_LL_Stop
 706              	.LVL102:
 707              	.L51:
 154:Middlewares/ST/STM32_USB_Host_Library/Core/Src/usbh_core.c **** 
 708              		.loc 1 154 0
 709 001c 0020     		movs	r0, #0
 710 001e 10BD     		pop	{r4, pc}
 711              		.cfi_endproc
 712              	.LFE132:
 714              		.section	.text.USBH_RegisterClass,"ax",%progbits
 715              		.align	1
 716              		.global	USBH_RegisterClass
 717              		.syntax unified
 718              		.thumb
 719              		.thumb_func
 720              		.fpu fpv4-sp-d16
 722              	USBH_RegisterClass:
 723              	.LFB134:
 200:Middlewares/ST/STM32_USB_Host_Library/Core/Src/usbh_core.c ****   USBH_StatusTypeDef   status = USBH_OK;
 724              		.loc 1 200 0
 725              		.cfi_startproc
 726              		@ args = 0, pretend = 0, frame = 0
 727              		@ frame_needed = 0, uses_anonymous_args = 0
 728              	.LVL103:
 729 0000 08B5     		push	{r3, lr}
 730              	.LCFI10:
 731              		.cfi_def_cfa_offset 8
 732              		.cfi_offset 3, -8
 733              		.cfi_offset 14, -4
 734              	.LVL104:
 203:Middlewares/ST/STM32_USB_Host_Library/Core/Src/usbh_core.c ****   {
 735              		.loc 1 203 0
 736 0002 B1B1     		cbz	r1, .L54
 737 0004 0A46     		mov	r2, r1
 205:Middlewares/ST/STM32_USB_Host_Library/Core/Src/usbh_core.c ****     {
 738              		.loc 1 205 0
 739 0006 D0F87833 		ldr	r3, [r0, #888]
 740 000a 3BB9     		cbnz	r3, .L55
 208:Middlewares/ST/STM32_USB_Host_Library/Core/Src/usbh_core.c ****       status = USBH_OK;
 741              		.loc 1 208 0
 742 000c 591C     		adds	r1, r3, #1
 743              	.LVL105:
 744 000e C0F87813 		str	r1, [r0, #888]
 745 0012 DC33     		adds	r3, r3, #220
 746 0014 40F82320 		str	r2, [r0, r3, lsl #2]
 209:Middlewares/ST/STM32_USB_Host_Library/Core/Src/usbh_core.c ****     }
 747              		.loc 1 209 0
 748 0018 0020     		movs	r0, #0
ARM GAS  /var/folders/0d/93p3r6493yg7p0rvl_4r983m0000gn/T//ccoyKrkN.s 			page 30


 749              	.LVL106:
 750              	.L56:
 224:Middlewares/ST/STM32_USB_Host_Library/Core/Src/usbh_core.c **** 
 751              		.loc 1 224 0
 752 001a 08BD     		pop	{r3, pc}
 753              	.LVL107:
 754              	.L55:
 213:Middlewares/ST/STM32_USB_Host_Library/Core/Src/usbh_core.c ****       status = USBH_FAIL; 
 755              		.loc 1 213 0
 756 001c 0A48     		ldr	r0, .L58
 757              	.LVL108:
 758 001e FFF7FEFF 		bl	printf
 759              	.LVL109:
 760 0022 0A48     		ldr	r0, .L58+4
 761 0024 FFF7FEFF 		bl	printf
 762              	.LVL110:
 763 0028 0A20     		movs	r0, #10
 764 002a FFF7FEFF 		bl	putchar
 765              	.LVL111:
 214:Middlewares/ST/STM32_USB_Host_Library/Core/Src/usbh_core.c ****     }
 766              		.loc 1 214 0
 767 002e 0220     		movs	r0, #2
 768 0030 F3E7     		b	.L56
 769              	.LVL112:
 770              	.L54:
 219:Middlewares/ST/STM32_USB_Host_Library/Core/Src/usbh_core.c ****     status = USBH_FAIL; 
 771              		.loc 1 219 0
 772 0032 0548     		ldr	r0, .L58
 773              	.LVL113:
 774 0034 FFF7FEFF 		bl	printf
 775              	.LVL114:
 776 0038 0548     		ldr	r0, .L58+8
 777 003a FFF7FEFF 		bl	printf
 778              	.LVL115:
 779 003e 0A20     		movs	r0, #10
 780 0040 FFF7FEFF 		bl	putchar
 781              	.LVL116:
 220:Middlewares/ST/STM32_USB_Host_Library/Core/Src/usbh_core.c ****   }
 782              		.loc 1 220 0
 783 0044 0220     		movs	r0, #2
 784 0046 E8E7     		b	.L56
 785              	.L59:
 786              		.align	2
 787              	.L58:
 788 0048 00000000 		.word	.LC12
 789 004c 00000000 		.word	.LC15
 790 0050 1C000000 		.word	.LC16
 791              		.cfi_endproc
 792              	.LFE134:
 794              		.section	.text.USBH_SelectInterface,"ax",%progbits
 795              		.align	1
 796              		.global	USBH_SelectInterface
 797              		.syntax unified
 798              		.thumb
 799              		.thumb_func
 800              		.fpu fpv4-sp-d16
 802              	USBH_SelectInterface:
ARM GAS  /var/folders/0d/93p3r6493yg7p0rvl_4r983m0000gn/T//ccoyKrkN.s 			page 31


 803              	.LFB135:
 234:Middlewares/ST/STM32_USB_Host_Library/Core/Src/usbh_core.c ****   USBH_StatusTypeDef   status = USBH_OK;
 804              		.loc 1 234 0
 805              		.cfi_startproc
 806              		@ args = 0, pretend = 0, frame = 0
 807              		@ frame_needed = 0, uses_anonymous_args = 0
 808              	.LVL117:
 809 0000 38B5     		push	{r3, r4, r5, lr}
 810              	.LCFI11:
 811              		.cfi_def_cfa_offset 16
 812              		.cfi_offset 3, -16
 813              		.cfi_offset 4, -12
 814              		.cfi_offset 5, -8
 815              		.cfi_offset 14, -4
 816              	.LVL118:
 237:Middlewares/ST/STM32_USB_Host_Library/Core/Src/usbh_core.c ****   {
 817              		.loc 1 237 0
 818 0002 90F83633 		ldrb	r3, [r0, #822]	@ zero_extendqisi2
 819 0006 8B42     		cmp	r3, r1
 820 0008 26D9     		bls	.L61
 821 000a 0546     		mov	r5, r0
 822 000c 0C46     		mov	r4, r1
 239:Middlewares/ST/STM32_USB_Host_Library/Core/Src/usbh_core.c ****     USBH_UsrLog ("Switching to Interface (#%d)", interface);
 823              		.loc 1 239 0
 824 000e 85F81F13 		strb	r1, [r5, #799]
 240:Middlewares/ST/STM32_USB_Host_Library/Core/Src/usbh_core.c ****     USBH_UsrLog ("Class    : %xh", phost->device.CfgDesc.Itf_Desc[interface].bInterfaceClass );
 825              		.loc 1 240 0
 826 0012 1748     		ldr	r0, .L64
 827              	.LVL119:
 828 0014 FFF7FEFF 		bl	printf
 829              	.LVL120:
 830 0018 0A20     		movs	r0, #10
 831 001a FFF7FEFF 		bl	putchar
 832              	.LVL121:
 241:Middlewares/ST/STM32_USB_Host_Library/Core/Src/usbh_core.c ****     USBH_UsrLog ("SubClass : %xh", phost->device.CfgDesc.Itf_Desc[interface].bInterfaceSubClass );
 833              		.loc 1 241 0
 834 001e 1A23     		movs	r3, #26
 835 0020 03FB0454 		mla	r4, r3, r4, r5
 836 0024 94F84113 		ldrb	r1, [r4, #833]	@ zero_extendqisi2
 837 0028 1248     		ldr	r0, .L64+4
 838 002a FFF7FEFF 		bl	printf
 839              	.LVL122:
 840 002e 0A20     		movs	r0, #10
 841 0030 FFF7FEFF 		bl	putchar
 842              	.LVL123:
 242:Middlewares/ST/STM32_USB_Host_Library/Core/Src/usbh_core.c ****     USBH_UsrLog ("Protocol : %xh", phost->device.CfgDesc.Itf_Desc[interface].bInterfaceProtocol ); 
 843              		.loc 1 242 0
 844 0034 94F84213 		ldrb	r1, [r4, #834]	@ zero_extendqisi2
 845 0038 0F48     		ldr	r0, .L64+8
 846 003a FFF7FEFF 		bl	printf
 847              	.LVL124:
 848 003e 0A20     		movs	r0, #10
 849 0040 FFF7FEFF 		bl	putchar
 850              	.LVL125:
 243:Middlewares/ST/STM32_USB_Host_Library/Core/Src/usbh_core.c ****   }
 851              		.loc 1 243 0
 852 0044 94F84313 		ldrb	r1, [r4, #835]	@ zero_extendqisi2
ARM GAS  /var/folders/0d/93p3r6493yg7p0rvl_4r983m0000gn/T//ccoyKrkN.s 			page 32


 853 0048 0C48     		ldr	r0, .L64+12
 854 004a FFF7FEFF 		bl	printf
 855              	.LVL126:
 856 004e 0A20     		movs	r0, #10
 857 0050 FFF7FEFF 		bl	putchar
 858              	.LVL127:
 235:Middlewares/ST/STM32_USB_Host_Library/Core/Src/usbh_core.c ****   
 859              		.loc 1 235 0
 860 0054 0020     		movs	r0, #0
 861              	.LVL128:
 862              	.L62:
 251:Middlewares/ST/STM32_USB_Host_Library/Core/Src/usbh_core.c **** 
 863              		.loc 1 251 0
 864 0056 38BD     		pop	{r3, r4, r5, pc}
 865              	.LVL129:
 866              	.L61:
 247:Middlewares/ST/STM32_USB_Host_Library/Core/Src/usbh_core.c ****     status = USBH_FAIL; 
 867              		.loc 1 247 0
 868 0058 0948     		ldr	r0, .L64+16
 869              	.LVL130:
 870 005a FFF7FEFF 		bl	printf
 871              	.LVL131:
 872 005e 0948     		ldr	r0, .L64+20
 873 0060 FFF7FEFF 		bl	printf
 874              	.LVL132:
 875 0064 0A20     		movs	r0, #10
 876 0066 FFF7FEFF 		bl	putchar
 877              	.LVL133:
 248:Middlewares/ST/STM32_USB_Host_Library/Core/Src/usbh_core.c ****   }
 878              		.loc 1 248 0
 879 006a 0220     		movs	r0, #2
 880 006c F3E7     		b	.L62
 881              	.L65:
 882 006e 00BF     		.align	2
 883              	.L64:
 884 0070 00000000 		.word	.LC17
 885 0074 20000000 		.word	.LC18
 886 0078 30000000 		.word	.LC19
 887 007c 40000000 		.word	.LC20
 888 0080 00000000 		.word	.LC12
 889 0084 50000000 		.word	.LC21
 890              		.cfi_endproc
 891              	.LFE135:
 893              		.section	.text.USBH_GetActiveClass,"ax",%progbits
 894              		.align	1
 895              		.global	USBH_GetActiveClass
 896              		.syntax unified
 897              		.thumb
 898              		.thumb_func
 899              		.fpu fpv4-sp-d16
 901              	USBH_GetActiveClass:
 902              	.LFB136:
 261:Middlewares/ST/STM32_USB_Host_Library/Core/Src/usbh_core.c ****    return (phost->device.CfgDesc.Itf_Desc[0].bInterfaceClass);            
 903              		.loc 1 261 0
 904              		.cfi_startproc
 905              		@ args = 0, pretend = 0, frame = 0
 906              		@ frame_needed = 0, uses_anonymous_args = 0
ARM GAS  /var/folders/0d/93p3r6493yg7p0rvl_4r983m0000gn/T//ccoyKrkN.s 			page 33


 907              		@ link register save eliminated.
 908              	.LVL134:
 263:Middlewares/ST/STM32_USB_Host_Library/Core/Src/usbh_core.c **** /**
 909              		.loc 1 263 0
 910 0000 90F84103 		ldrb	r0, [r0, #833]	@ zero_extendqisi2
 911              	.LVL135:
 912 0004 7047     		bx	lr
 913              		.cfi_endproc
 914              	.LFE136:
 916              		.section	.text.USBH_FindInterface,"ax",%progbits
 917              		.align	1
 918              		.global	USBH_FindInterface
 919              		.syntax unified
 920              		.thumb
 921              		.thumb_func
 922              		.fpu fpv4-sp-d16
 924              	USBH_FindInterface:
 925              	.LFB137:
 275:Middlewares/ST/STM32_USB_Host_Library/Core/Src/usbh_core.c ****   USBH_InterfaceDescTypeDef    *pif ;
 926              		.loc 1 275 0
 927              		.cfi_startproc
 928              		@ args = 0, pretend = 0, frame = 0
 929              		@ frame_needed = 0, uses_anonymous_args = 0
 930              		@ link register save eliminated.
 931              	.LVL136:
 932 0000 70B4     		push	{r4, r5, r6}
 933              	.LCFI12:
 934              		.cfi_def_cfa_offset 12
 935              		.cfi_offset 4, -12
 936              		.cfi_offset 5, -8
 937              		.cfi_offset 6, -4
 938              	.LVL137:
 278:Middlewares/ST/STM32_USB_Host_Library/Core/Src/usbh_core.c ****   
 939              		.loc 1 278 0
 940 0002 0024     		movs	r4, #0
 283:Middlewares/ST/STM32_USB_Host_Library/Core/Src/usbh_core.c ****   {
 941              		.loc 1 283 0
 942 0004 0AE0     		b	.L68
 943              	.LVL138:
 944              	.L71:
 288:Middlewares/ST/STM32_USB_Host_Library/Core/Src/usbh_core.c ****     {
 945              		.loc 1 288 0 discriminator 1
 946 0006 1A25     		movs	r5, #26
 947 0008 05FB0606 		mla	r6, r5, r6, r0
 948 000c 96F84353 		ldrb	r5, [r6, #835]	@ zero_extendqisi2
 287:Middlewares/ST/STM32_USB_Host_Library/Core/Src/usbh_core.c ****          ((pif->bInterfaceProtocol == Protocol) || (Protocol == 0xFF)))
 949              		.loc 1 287 0 discriminator 1
 950 0010 9D42     		cmp	r5, r3
 951 0012 19D0     		beq	.L72
 288:Middlewares/ST/STM32_USB_Host_Library/Core/Src/usbh_core.c ****     {
 952              		.loc 1 288 0
 953 0014 FF2B     		cmp	r3, #255
 954 0016 17D0     		beq	.L72
 955              	.L70:
 292:Middlewares/ST/STM32_USB_Host_Library/Core/Src/usbh_core.c ****   }
 956              		.loc 1 292 0
 957 0018 0134     		adds	r4, r4, #1
ARM GAS  /var/folders/0d/93p3r6493yg7p0rvl_4r983m0000gn/T//ccoyKrkN.s 			page 34


 958              	.LVL139:
 959 001a 64B2     		sxtb	r4, r4
 960              	.LVL140:
 961              	.L68:
 283:Middlewares/ST/STM32_USB_Host_Library/Core/Src/usbh_core.c ****   {
 962              		.loc 1 283 0
 963 001c 012C     		cmp	r4, #1
 964 001e 15DC     		bgt	.L76
 285:Middlewares/ST/STM32_USB_Host_Library/Core/Src/usbh_core.c ****     if(((pif->bInterfaceClass == Class) || (Class == 0xFF))&&
 965              		.loc 1 285 0
 966 0020 2646     		mov	r6, r4
 967              	.LVL141:
 286:Middlewares/ST/STM32_USB_Host_Library/Core/Src/usbh_core.c ****        ((pif->bInterfaceSubClass == SubClass) || (SubClass == 0xFF))&&
 968              		.loc 1 286 0
 969 0022 1A25     		movs	r5, #26
 970 0024 05FB0405 		mla	r5, r5, r4, r0
 971 0028 95F84153 		ldrb	r5, [r5, #833]	@ zero_extendqisi2
 972 002c 8D42     		cmp	r5, r1
 973 002e 01D0     		beq	.L69
 286:Middlewares/ST/STM32_USB_Host_Library/Core/Src/usbh_core.c ****        ((pif->bInterfaceSubClass == SubClass) || (SubClass == 0xFF))&&
 974              		.loc 1 286 0 is_stmt 0 discriminator 2
 975 0030 FF29     		cmp	r1, #255
 976 0032 F1D1     		bne	.L70
 977              	.L69:
 287:Middlewares/ST/STM32_USB_Host_Library/Core/Src/usbh_core.c ****          ((pif->bInterfaceProtocol == Protocol) || (Protocol == 0xFF)))
 978              		.loc 1 287 0 is_stmt 1 discriminator 3
 979 0034 1A25     		movs	r5, #26
 980 0036 05FB0605 		mla	r5, r5, r6, r0
 981 003a 95F84253 		ldrb	r5, [r5, #834]	@ zero_extendqisi2
 286:Middlewares/ST/STM32_USB_Host_Library/Core/Src/usbh_core.c ****        ((pif->bInterfaceSubClass == SubClass) || (SubClass == 0xFF))&&
 982              		.loc 1 286 0 discriminator 3
 983 003e 9542     		cmp	r5, r2
 984 0040 E1D0     		beq	.L71
 287:Middlewares/ST/STM32_USB_Host_Library/Core/Src/usbh_core.c ****          ((pif->bInterfaceProtocol == Protocol) || (Protocol == 0xFF)))
 985              		.loc 1 287 0
 986 0042 FF2A     		cmp	r2, #255
 987 0044 E8D1     		bne	.L70
 988 0046 DEE7     		b	.L71
 989              	.L72:
 290:Middlewares/ST/STM32_USB_Host_Library/Core/Src/usbh_core.c ****     }
 990              		.loc 1 290 0
 991 0048 E0B2     		uxtb	r0, r4
 992              	.LVL142:
 993 004a 00E0     		b	.L73
 994              	.LVL143:
 995              	.L76:
 294:Middlewares/ST/STM32_USB_Host_Library/Core/Src/usbh_core.c **** }
 996              		.loc 1 294 0
 997 004c FF20     		movs	r0, #255
 998              	.LVL144:
 999              	.L73:
 295:Middlewares/ST/STM32_USB_Host_Library/Core/Src/usbh_core.c **** 
 1000              		.loc 1 295 0
 1001 004e 70BC     		pop	{r4, r5, r6}
 1002              	.LCFI13:
 1003              		.cfi_restore 6
 1004              		.cfi_restore 5
ARM GAS  /var/folders/0d/93p3r6493yg7p0rvl_4r983m0000gn/T//ccoyKrkN.s 			page 35


 1005              		.cfi_restore 4
 1006              		.cfi_def_cfa_offset 0
 1007              	.LVL145:
 1008 0050 7047     		bx	lr
 1009              		.cfi_endproc
 1010              	.LFE137:
 1012              		.section	.text.USBH_FindInterfaceIndex,"ax",%progbits
 1013              		.align	1
 1014              		.global	USBH_FindInterfaceIndex
 1015              		.syntax unified
 1016              		.thumb
 1017              		.thumb_func
 1018              		.fpu fpv4-sp-d16
 1020              	USBH_FindInterfaceIndex:
 1021              	.LFB138:
 307:Middlewares/ST/STM32_USB_Host_Library/Core/Src/usbh_core.c ****   USBH_InterfaceDescTypeDef    *pif ;
 1022              		.loc 1 307 0
 1023              		.cfi_startproc
 1024              		@ args = 0, pretend = 0, frame = 0
 1025              		@ frame_needed = 0, uses_anonymous_args = 0
 1026              		@ link register save eliminated.
 1027              	.LVL146:
 310:Middlewares/ST/STM32_USB_Host_Library/Core/Src/usbh_core.c ****   
 1028              		.loc 1 310 0
 1029 0000 0023     		movs	r3, #0
 1030              	.LVL147:
 315:Middlewares/ST/STM32_USB_Host_Library/Core/Src/usbh_core.c ****   {
 1031              		.loc 1 315 0
 1032 0002 012B     		cmp	r3, #1
 1033 0004 18DC     		bgt	.L87
 307:Middlewares/ST/STM32_USB_Host_Library/Core/Src/usbh_core.c ****   USBH_InterfaceDescTypeDef    *pif ;
 1034              		.loc 1 307 0
 1035 0006 10B4     		push	{r4}
 1036              	.LCFI14:
 1037              		.cfi_def_cfa_offset 4
 1038              		.cfi_offset 4, -4
 1039              	.LVL148:
 1040              	.L81:
 318:Middlewares/ST/STM32_USB_Host_Library/Core/Src/usbh_core.c ****     {
 1041              		.loc 1 318 0
 1042 0008 1A24     		movs	r4, #26
 1043 000a 04FB0304 		mla	r4, r4, r3, r0
 1044 000e 94F83E43 		ldrb	r4, [r4, #830]	@ zero_extendqisi2
 1045 0012 8C42     		cmp	r4, r1
 1046 0014 07D0     		beq	.L88
 1047              	.L79:
 322:Middlewares/ST/STM32_USB_Host_Library/Core/Src/usbh_core.c ****   }
 1048              		.loc 1 322 0
 1049 0016 0133     		adds	r3, r3, #1
 1050              	.LVL149:
 1051 0018 5BB2     		sxtb	r3, r3
 1052              	.LVL150:
 315:Middlewares/ST/STM32_USB_Host_Library/Core/Src/usbh_core.c ****   {
 1053              		.loc 1 315 0
 1054 001a 012B     		cmp	r3, #1
 1055 001c F4DD     		ble	.L81
 324:Middlewares/ST/STM32_USB_Host_Library/Core/Src/usbh_core.c **** }
ARM GAS  /var/folders/0d/93p3r6493yg7p0rvl_4r983m0000gn/T//ccoyKrkN.s 			page 36


 1056              		.loc 1 324 0
 1057 001e FF20     		movs	r0, #255
 1058              	.LVL151:
 1059              	.L80:
 325:Middlewares/ST/STM32_USB_Host_Library/Core/Src/usbh_core.c **** 
 1060              		.loc 1 325 0
 1061 0020 5DF8044B 		ldr	r4, [sp], #4
 1062              	.LCFI15:
 1063              		.cfi_remember_state
 1064              		.cfi_restore 4
 1065              		.cfi_def_cfa_offset 0
 1066 0024 7047     		bx	lr
 1067              	.LVL152:
 1068              	.L88:
 1069              	.LCFI16:
 1070              		.cfi_restore_state
 318:Middlewares/ST/STM32_USB_Host_Library/Core/Src/usbh_core.c ****     {
 1071              		.loc 1 318 0 discriminator 1
 1072 0026 1A24     		movs	r4, #26
 1073 0028 04FB0304 		mla	r4, r4, r3, r0
 1074 002c 94F83F43 		ldrb	r4, [r4, #831]	@ zero_extendqisi2
 1075 0030 9442     		cmp	r4, r2
 1076 0032 F0D1     		bne	.L79
 320:Middlewares/ST/STM32_USB_Host_Library/Core/Src/usbh_core.c ****     }
 1077              		.loc 1 320 0
 1078 0034 D8B2     		uxtb	r0, r3
 1079              	.LVL153:
 1080 0036 F3E7     		b	.L80
 1081              	.LVL154:
 1082              	.L87:
 1083              	.LCFI17:
 1084              		.cfi_def_cfa_offset 0
 1085              		.cfi_restore 4
 324:Middlewares/ST/STM32_USB_Host_Library/Core/Src/usbh_core.c **** }
 1086              		.loc 1 324 0
 1087 0038 FF20     		movs	r0, #255
 1088              	.LVL155:
 325:Middlewares/ST/STM32_USB_Host_Library/Core/Src/usbh_core.c **** 
 1089              		.loc 1 325 0
 1090 003a 7047     		bx	lr
 1091              		.cfi_endproc
 1092              	.LFE138:
 1094              		.section	.text.USBH_Start,"ax",%progbits
 1095              		.align	1
 1096              		.global	USBH_Start
 1097              		.syntax unified
 1098              		.thumb
 1099              		.thumb_func
 1100              		.fpu fpv4-sp-d16
 1102              	USBH_Start:
 1103              	.LFB139:
 334:Middlewares/ST/STM32_USB_Host_Library/Core/Src/usbh_core.c ****   /* Start the low level driver  */
 1104              		.loc 1 334 0
 1105              		.cfi_startproc
 1106              		@ args = 0, pretend = 0, frame = 0
 1107              		@ frame_needed = 0, uses_anonymous_args = 0
 1108              	.LVL156:
ARM GAS  /var/folders/0d/93p3r6493yg7p0rvl_4r983m0000gn/T//ccoyKrkN.s 			page 37


 1109 0000 10B5     		push	{r4, lr}
 1110              	.LCFI18:
 1111              		.cfi_def_cfa_offset 8
 1112              		.cfi_offset 4, -8
 1113              		.cfi_offset 14, -4
 1114 0002 0446     		mov	r4, r0
 336:Middlewares/ST/STM32_USB_Host_Library/Core/Src/usbh_core.c ****   
 1115              		.loc 1 336 0
 1116 0004 FFF7FEFF 		bl	USBH_LL_Start
 1117              	.LVL157:
 339:Middlewares/ST/STM32_USB_Host_Library/Core/Src/usbh_core.c ****   
 1118              		.loc 1 339 0
 1119 0008 0121     		movs	r1, #1
 1120 000a 2046     		mov	r0, r4
 1121 000c FFF7FEFF 		bl	USBH_LL_DriverVBUS
 1122              	.LVL158:
 342:Middlewares/ST/STM32_USB_Host_Library/Core/Src/usbh_core.c **** 
 1123              		.loc 1 342 0
 1124 0010 0020     		movs	r0, #0
 1125 0012 10BD     		pop	{r4, pc}
 1126              		.cfi_endproc
 1127              	.LFE139:
 1129              		.section	.text.USBH_Stop,"ax",%progbits
 1130              		.align	1
 1131              		.global	USBH_Stop
 1132              		.syntax unified
 1133              		.thumb
 1134              		.thumb_func
 1135              		.fpu fpv4-sp-d16
 1137              	USBH_Stop:
 1138              	.LFB140:
 351:Middlewares/ST/STM32_USB_Host_Library/Core/Src/usbh_core.c ****   /* Stop and cleanup the low level driver  */
 1139              		.loc 1 351 0
 1140              		.cfi_startproc
 1141              		@ args = 0, pretend = 0, frame = 0
 1142              		@ frame_needed = 0, uses_anonymous_args = 0
 1143              	.LVL159:
 1144 0000 10B5     		push	{r4, lr}
 1145              	.LCFI19:
 1146              		.cfi_def_cfa_offset 8
 1147              		.cfi_offset 4, -8
 1148              		.cfi_offset 14, -4
 1149 0002 0446     		mov	r4, r0
 353:Middlewares/ST/STM32_USB_Host_Library/Core/Src/usbh_core.c ****   
 1150              		.loc 1 353 0
 1151 0004 FFF7FEFF 		bl	USBH_LL_Stop
 1152              	.LVL160:
 356:Middlewares/ST/STM32_USB_Host_Library/Core/Src/usbh_core.c ****   
 1153              		.loc 1 356 0
 1154 0008 0021     		movs	r1, #0
 1155 000a 2046     		mov	r0, r4
 1156 000c FFF7FEFF 		bl	USBH_LL_DriverVBUS
 1157              	.LVL161:
 359:Middlewares/ST/STM32_USB_Host_Library/Core/Src/usbh_core.c ****   USBH_FreePipe  (phost, phost->Control.pipe_out);  
 1158              		.loc 1 359 0
 1159 0010 2179     		ldrb	r1, [r4, #4]	@ zero_extendqisi2
 1160 0012 2046     		mov	r0, r4
ARM GAS  /var/folders/0d/93p3r6493yg7p0rvl_4r983m0000gn/T//ccoyKrkN.s 			page 38


 1161 0014 FFF7FEFF 		bl	USBH_FreePipe
 1162              	.LVL162:
 360:Middlewares/ST/STM32_USB_Host_Library/Core/Src/usbh_core.c ****   
 1163              		.loc 1 360 0
 1164 0018 6179     		ldrb	r1, [r4, #5]	@ zero_extendqisi2
 1165 001a 2046     		mov	r0, r4
 1166 001c FFF7FEFF 		bl	USBH_FreePipe
 1167              	.LVL163:
 363:Middlewares/ST/STM32_USB_Host_Library/Core/Src/usbh_core.c **** 
 1168              		.loc 1 363 0
 1169 0020 0020     		movs	r0, #0
 1170 0022 10BD     		pop	{r4, pc}
 1171              		.cfi_endproc
 1172              	.LFE140:
 1174              		.section	.text.USBH_ReEnumerate,"ax",%progbits
 1175              		.align	1
 1176              		.global	USBH_ReEnumerate
 1177              		.syntax unified
 1178              		.thumb
 1179              		.thumb_func
 1180              		.fpu fpv4-sp-d16
 1182              	USBH_ReEnumerate:
 1183              	.LFB141:
 372:Middlewares/ST/STM32_USB_Host_Library/Core/Src/usbh_core.c ****   /*Stop Host */ 
 1184              		.loc 1 372 0
 1185              		.cfi_startproc
 1186              		@ args = 0, pretend = 0, frame = 0
 1187              		@ frame_needed = 0, uses_anonymous_args = 0
 1188              	.LVL164:
 1189 0000 10B5     		push	{r4, lr}
 1190              	.LCFI20:
 1191              		.cfi_def_cfa_offset 8
 1192              		.cfi_offset 4, -8
 1193              		.cfi_offset 14, -4
 1194 0002 0446     		mov	r4, r0
 374:Middlewares/ST/STM32_USB_Host_Library/Core/Src/usbh_core.c **** 
 1195              		.loc 1 374 0
 1196 0004 FFF7FEFF 		bl	USBH_Stop
 1197              	.LVL165:
 377:Middlewares/ST/STM32_USB_Host_Library/Core/Src/usbh_core.c ****   
 1198              		.loc 1 377 0
 1199 0008 C820     		movs	r0, #200
 1200 000a FFF7FEFF 		bl	USBH_Delay
 1201              	.LVL166:
 380:Middlewares/ST/STM32_USB_Host_Library/Core/Src/usbh_core.c ****    
 1202              		.loc 1 380 0
 1203 000e 2046     		mov	r0, r4
 1204 0010 FFF7FEFF 		bl	DeInitStateMachine
 1205              	.LVL167:
 383:Middlewares/ST/STM32_USB_Host_Library/Core/Src/usbh_core.c ****       
 1206              		.loc 1 383 0
 1207 0014 2046     		mov	r0, r4
 1208 0016 FFF7FEFF 		bl	USBH_Start
 1209              	.LVL168:
 386:Middlewares/ST/STM32_USB_Host_Library/Core/Src/usbh_core.c **** #endif  
 1210              		.loc 1 386 0
 1211 001a 0022     		movs	r2, #0
ARM GAS  /var/folders/0d/93p3r6493yg7p0rvl_4r983m0000gn/T//ccoyKrkN.s 			page 39


 1212 001c 0121     		movs	r1, #1
 1213 001e D4F8C803 		ldr	r0, [r4, #968]
 1214 0022 FFF7FEFF 		bl	osMessagePut
 1215              	.LVL169:
 389:Middlewares/ST/STM32_USB_Host_Library/Core/Src/usbh_core.c **** 
 1216              		.loc 1 389 0
 1217 0026 0020     		movs	r0, #0
 1218 0028 10BD     		pop	{r4, pc}
 1219              		.cfi_endproc
 1220              	.LFE141:
 1222              		.section	.text.USBH_Process,"ax",%progbits
 1223              		.align	1
 1224              		.global	USBH_Process
 1225              		.syntax unified
 1226              		.thumb
 1227              		.thumb_func
 1228              		.fpu fpv4-sp-d16
 1230              	USBH_Process:
 1231              	.LFB142:
 398:Middlewares/ST/STM32_USB_Host_Library/Core/Src/usbh_core.c ****   __IO USBH_StatusTypeDef status = USBH_FAIL;
 1232              		.loc 1 398 0
 1233              		.cfi_startproc
 1234              		@ args = 0, pretend = 0, frame = 8
 1235              		@ frame_needed = 0, uses_anonymous_args = 0
 1236              	.LVL170:
 1237 0000 30B5     		push	{r4, r5, lr}
 1238              	.LCFI21:
 1239              		.cfi_def_cfa_offset 12
 1240              		.cfi_offset 4, -12
 1241              		.cfi_offset 5, -8
 1242              		.cfi_offset 14, -4
 1243 0002 87B0     		sub	sp, sp, #28
 1244              	.LCFI22:
 1245              		.cfi_def_cfa_offset 40
 1246 0004 0446     		mov	r4, r0
 399:Middlewares/ST/STM32_USB_Host_Library/Core/Src/usbh_core.c ****   uint8_t idx = 0;
 1247              		.loc 1 399 0
 1248 0006 0223     		movs	r3, #2
 1249 0008 8DF81730 		strb	r3, [sp, #23]
 1250              	.LVL171:
 402:Middlewares/ST/STM32_USB_Host_Library/Core/Src/usbh_core.c ****   {
 1251              		.loc 1 402 0
 1252 000c 0378     		ldrb	r3, [r0]	@ zero_extendqisi2
 1253 000e DBB2     		uxtb	r3, r3
 1254 0010 0A2B     		cmp	r3, #10
 1255 0012 5AD8     		bhi	.L96
 1256 0014 DFE813F0 		tbh	[pc, r3, lsl #1]
 1257              	.L98:
 1258 0018 0B00     		.2byte	(.L97-.L98)/2
 1259 001a 5900     		.2byte	(.L96-.L98)/2
 1260 001c 1E00     		.2byte	(.L99-.L98)/2
 1261 001e 1501     		.2byte	(.L100-.L98)/2
 1262 0020 5900     		.2byte	(.L96-.L98)/2
 1263 0022 5C00     		.2byte	(.L101-.L98)/2
 1264 0024 EC00     		.2byte	(.L102-.L98)/2
 1265 0026 7900     		.2byte	(.L103-.L98)/2
 1266 0028 8800     		.2byte	(.L104-.L98)/2
ARM GAS  /var/folders/0d/93p3r6493yg7p0rvl_4r983m0000gn/T//ccoyKrkN.s 			page 40


 1267 002a 9700     		.2byte	(.L105-.L98)/2
 1268 002c 0D01     		.2byte	(.L106-.L98)/2
 1269              		.p2align 1
 1270              	.L97:
 406:Middlewares/ST/STM32_USB_Host_Library/Core/Src/usbh_core.c ****     {
 1271              		.loc 1 406 0
 1272 002e 90F81E33 		ldrb	r3, [r0, #798]	@ zero_extendqisi2
 1273 0032 002B     		cmp	r3, #0
 1274 0034 49D0     		beq	.L96
 409:Middlewares/ST/STM32_USB_Host_Library/Core/Src/usbh_core.c ****       USBH_Delay(200); 
 1275              		.loc 1 409 0
 1276 0036 0125     		movs	r5, #1
 1277 0038 0570     		strb	r5, [r0]
 410:Middlewares/ST/STM32_USB_Host_Library/Core/Src/usbh_core.c ****       USBH_LL_ResetPort(phost);
 1278              		.loc 1 410 0
 1279 003a C820     		movs	r0, #200
 1280              	.LVL172:
 1281 003c FFF7FEFF 		bl	USBH_Delay
 1282              	.LVL173:
 411:Middlewares/ST/STM32_USB_Host_Library/Core/Src/usbh_core.c **** #if (USBH_USE_OS == 1)
 1283              		.loc 1 411 0
 1284 0040 2046     		mov	r0, r4
 1285 0042 FFF7FEFF 		bl	USBH_LL_ResetPort
 1286              	.LVL174:
 413:Middlewares/ST/STM32_USB_Host_Library/Core/Src/usbh_core.c **** #endif
 1287              		.loc 1 413 0
 1288 0046 0022     		movs	r2, #0
 1289 0048 2946     		mov	r1, r5
 1290 004a D4F8C803 		ldr	r0, [r4, #968]
 1291 004e FFF7FEFF 		bl	osMessagePut
 1292              	.LVL175:
 1293 0052 3AE0     		b	.L96
 1294              	.LVL176:
 1295              	.L99:
 423:Middlewares/ST/STM32_USB_Host_Library/Core/Src/usbh_core.c ****       
 1296              		.loc 1 423 0
 1297 0054 8248     		ldr	r0, .L120
 1298              	.LVL177:
 1299 0056 FFF7FEFF 		bl	printf
 1300              	.LVL178:
 1301 005a 0A20     		movs	r0, #10
 1302 005c FFF7FEFF 		bl	putchar
 1303              	.LVL179:
 426:Middlewares/ST/STM32_USB_Host_Library/Core/Src/usbh_core.c ****           
 1304              		.loc 1 426 0
 1305 0060 6420     		movs	r0, #100
 1306 0062 FFF7FEFF 		bl	USBH_Delay
 1307              	.LVL180:
 428:Middlewares/ST/STM32_USB_Host_Library/Core/Src/usbh_core.c ****     
 1308              		.loc 1 428 0
 1309 0066 2046     		mov	r0, r4
 1310 0068 FFF7FEFF 		bl	USBH_LL_GetSpeed
 1311              	.LVL181:
 1312 006c 84F81D03 		strb	r0, [r4, #797]
 430:Middlewares/ST/STM32_USB_Host_Library/Core/Src/usbh_core.c ****     
 1313              		.loc 1 430 0
 1314 0070 0523     		movs	r3, #5
ARM GAS  /var/folders/0d/93p3r6493yg7p0rvl_4r983m0000gn/T//ccoyKrkN.s 			page 41


 1315 0072 2370     		strb	r3, [r4]
 432:Middlewares/ST/STM32_USB_Host_Library/Core/Src/usbh_core.c ****     phost->Control.pipe_in  = USBH_AllocPipe (phost, 0x80);    
 1316              		.loc 1 432 0
 1317 0074 0021     		movs	r1, #0
 1318 0076 2046     		mov	r0, r4
 1319 0078 FFF7FEFF 		bl	USBH_AllocPipe
 1320              	.LVL182:
 1321 007c 6071     		strb	r0, [r4, #5]
 433:Middlewares/ST/STM32_USB_Host_Library/Core/Src/usbh_core.c ****     
 1322              		.loc 1 433 0
 1323 007e 8021     		movs	r1, #128
 1324 0080 2046     		mov	r0, r4
 1325 0082 FFF7FEFF 		bl	USBH_AllocPipe
 1326              	.LVL183:
 1327 0086 0146     		mov	r1, r0
 1328 0088 2071     		strb	r0, [r4, #4]
 437:Middlewares/ST/STM32_USB_Host_Library/Core/Src/usbh_core.c ****                    phost->Control.pipe_in,
 1329              		.loc 1 437 0
 1330 008a 94F81C33 		ldrb	r3, [r4, #796]	@ zero_extendqisi2
 1331 008e A279     		ldrb	r2, [r4, #6]	@ zero_extendqisi2
 1332 0090 0292     		str	r2, [sp, #8]
 1333 0092 0025     		movs	r5, #0
 1334 0094 0195     		str	r5, [sp, #4]
 1335 0096 94F81D23 		ldrb	r2, [r4, #797]	@ zero_extendqisi2
 1336 009a 0092     		str	r2, [sp]
 1337 009c 8022     		movs	r2, #128
 1338 009e 2046     		mov	r0, r4
 1339 00a0 FFF7FEFF 		bl	USBH_OpenPipe
 1340              	.LVL184:
 446:Middlewares/ST/STM32_USB_Host_Library/Core/Src/usbh_core.c ****                    phost->Control.pipe_out,
 1341              		.loc 1 446 0
 1342 00a4 94F81C33 		ldrb	r3, [r4, #796]	@ zero_extendqisi2
 1343 00a8 6179     		ldrb	r1, [r4, #5]	@ zero_extendqisi2
 1344 00aa A279     		ldrb	r2, [r4, #6]	@ zero_extendqisi2
 1345 00ac 0292     		str	r2, [sp, #8]
 1346 00ae 0195     		str	r5, [sp, #4]
 1347 00b0 94F81D23 		ldrb	r2, [r4, #797]	@ zero_extendqisi2
 1348 00b4 0092     		str	r2, [sp]
 1349 00b6 2A46     		mov	r2, r5
 1350 00b8 2046     		mov	r0, r4
 1351 00ba FFF7FEFF 		bl	USBH_OpenPipe
 1352              	.LVL185:
 455:Middlewares/ST/STM32_USB_Host_Library/Core/Src/usbh_core.c **** #endif    
 1353              		.loc 1 455 0
 1354 00be 2A46     		mov	r2, r5
 1355 00c0 0121     		movs	r1, #1
 1356 00c2 D4F8C803 		ldr	r0, [r4, #968]
 1357 00c6 FFF7FEFF 		bl	osMessagePut
 1358              	.LVL186:
 1359              	.L96:
 600:Middlewares/ST/STM32_USB_Host_Library/Core/Src/usbh_core.c **** 
 1360              		.loc 1 600 0
 1361 00ca 0020     		movs	r0, #0
 1362 00cc 07B0     		add	sp, sp, #28
 1363              	.LCFI23:
 1364              		.cfi_remember_state
 1365              		.cfi_def_cfa_offset 12
ARM GAS  /var/folders/0d/93p3r6493yg7p0rvl_4r983m0000gn/T//ccoyKrkN.s 			page 42


 1366              		@ sp needed
 1367 00ce 30BD     		pop	{r4, r5, pc}
 1368              	.LVL187:
 1369              	.L101:
 1370              	.LCFI24:
 1371              		.cfi_restore_state
 462:Middlewares/ST/STM32_USB_Host_Library/Core/Src/usbh_core.c ****     { 
 1372              		.loc 1 462 0
 1373 00d0 FFF7FEFF 		bl	USBH_HandleEnum
 1374              	.LVL188:
 1375 00d4 0028     		cmp	r0, #0
 1376 00d6 F8D1     		bne	.L96
 465:Middlewares/ST/STM32_USB_Host_Library/Core/Src/usbh_core.c ****       phost->device.current_interface = 0;
 1377              		.loc 1 465 0
 1378 00d8 6248     		ldr	r0, .L120+4
 1379 00da FFF7FEFF 		bl	printf
 1380              	.LVL189:
 1381 00de 0A20     		movs	r0, #10
 1382 00e0 FFF7FEFF 		bl	putchar
 1383              	.LVL190:
 466:Middlewares/ST/STM32_USB_Host_Library/Core/Src/usbh_core.c ****       if(phost->device.DevDesc.bNumConfigurations == 1)
 1384              		.loc 1 466 0
 1385 00e4 0023     		movs	r3, #0
 1386 00e6 84F81F33 		strb	r3, [r4, #799]
 467:Middlewares/ST/STM32_USB_Host_Library/Core/Src/usbh_core.c ****       {
 1387              		.loc 1 467 0
 1388 00ea 94F83133 		ldrb	r3, [r4, #817]	@ zero_extendqisi2
 1389 00ee 012B     		cmp	r3, #1
 1390 00f0 02D0     		beq	.L117
 475:Middlewares/ST/STM32_USB_Host_Library/Core/Src/usbh_core.c ****       }
 1391              		.loc 1 475 0
 1392 00f2 0723     		movs	r3, #7
 1393 00f4 2370     		strb	r3, [r4]
 1394 00f6 E8E7     		b	.L96
 1395              	.L117:
 469:Middlewares/ST/STM32_USB_Host_Library/Core/Src/usbh_core.c ****         phost->gState  = HOST_SET_CONFIGURATION;        
 1396              		.loc 1 469 0
 1397 00f8 5B48     		ldr	r0, .L120+8
 1398 00fa FFF7FEFF 		bl	printf
 1399              	.LVL191:
 1400 00fe 0A20     		movs	r0, #10
 1401 0100 FFF7FEFF 		bl	putchar
 1402              	.LVL192:
 470:Middlewares/ST/STM32_USB_Host_Library/Core/Src/usbh_core.c ****         
 1403              		.loc 1 470 0
 1404 0104 0823     		movs	r3, #8
 1405 0106 2370     		strb	r3, [r4]
 1406 0108 DFE7     		b	.L96
 1407              	.LVL193:
 1408              	.L103:
 484:Middlewares/ST/STM32_USB_Host_Library/Core/Src/usbh_core.c ****       {
 1409              		.loc 1 484 0
 1410 010a D0F8C433 		ldr	r3, [r0, #964]
 1411 010e 002B     		cmp	r3, #0
 1412 0110 DBD0     		beq	.L96
 486:Middlewares/ST/STM32_USB_Host_Library/Core/Src/usbh_core.c ****         phost->gState = HOST_SET_CONFIGURATION;
 1413              		.loc 1 486 0
ARM GAS  /var/folders/0d/93p3r6493yg7p0rvl_4r983m0000gn/T//ccoyKrkN.s 			page 43


 1414 0112 0121     		movs	r1, #1
 1415 0114 9847     		blx	r3
 1416              	.LVL194:
 487:Middlewares/ST/STM32_USB_Host_Library/Core/Src/usbh_core.c ****         
 1417              		.loc 1 487 0
 1418 0116 0823     		movs	r3, #8
 1419 0118 2370     		strb	r3, [r4]
 490:Middlewares/ST/STM32_USB_Host_Library/Core/Src/usbh_core.c **** #endif         
 1420              		.loc 1 490 0
 1421 011a 0022     		movs	r2, #0
 1422 011c 0521     		movs	r1, #5
 1423 011e D4F8C803 		ldr	r0, [r4, #968]
 1424 0122 FFF7FEFF 		bl	osMessagePut
 1425              	.LVL195:
 1426 0126 D0E7     		b	.L96
 1427              	.LVL196:
 1428              	.L104:
 498:Middlewares/ST/STM32_USB_Host_Library/Core/Src/usbh_core.c ****     {
 1429              		.loc 1 498 0
 1430 0128 90F83713 		ldrb	r1, [r0, #823]	@ zero_extendqisi2
 1431 012c FFF7FEFF 		bl	USBH_SetCfg
 1432              	.LVL197:
 1433 0130 0028     		cmp	r0, #0
 1434 0132 CAD1     		bne	.L96
 500:Middlewares/ST/STM32_USB_Host_Library/Core/Src/usbh_core.c ****       USBH_UsrLog ("Default configuration set.");
 1435              		.loc 1 500 0
 1436 0134 0923     		movs	r3, #9
 1437 0136 2370     		strb	r3, [r4]
 501:Middlewares/ST/STM32_USB_Host_Library/Core/Src/usbh_core.c ****       
 1438              		.loc 1 501 0
 1439 0138 4C48     		ldr	r0, .L120+12
 1440 013a FFF7FEFF 		bl	printf
 1441              	.LVL198:
 1442 013e 0A20     		movs	r0, #10
 1443 0140 FFF7FEFF 		bl	putchar
 1444              	.LVL199:
 1445 0144 C1E7     		b	.L96
 1446              	.LVL200:
 1447              	.L105:
 509:Middlewares/ST/STM32_USB_Host_Library/Core/Src/usbh_core.c ****     {
 1448              		.loc 1 509 0
 1449 0146 D0F87833 		ldr	r3, [r0, #888]
 1450 014a E3B1     		cbz	r3, .L118
 515:Middlewares/ST/STM32_USB_Host_Library/Core/Src/usbh_core.c ****       
 1451              		.loc 1 515 0
 1452 014c 0023     		movs	r3, #0
 1453 014e C0F87433 		str	r3, [r0, #884]
 1454              	.LVL201:
 1455              	.L110:
 517:Middlewares/ST/STM32_USB_Host_Library/Core/Src/usbh_core.c ****       {
 1456              		.loc 1 517 0 discriminator 1
 1457 0152 2BB3     		cbz	r3, .L112
 525:Middlewares/ST/STM32_USB_Host_Library/Core/Src/usbh_core.c ****       {
 1458              		.loc 1 525 0
 1459 0154 D4F87433 		ldr	r3, [r4, #884]
 1460              	.LVL202:
 1461 0158 002B     		cmp	r3, #0
ARM GAS  /var/folders/0d/93p3r6493yg7p0rvl_4r983m0000gn/T//ccoyKrkN.s 			page 44


 1462 015a 40D0     		beq	.L113
 527:Middlewares/ST/STM32_USB_Host_Library/Core/Src/usbh_core.c ****         {
 1463              		.loc 1 527 0
 1464 015c 9B68     		ldr	r3, [r3, #8]
 1465 015e 2046     		mov	r0, r4
 1466              	.LVL203:
 1467 0160 9847     		blx	r3
 1468              	.LVL204:
 1469 0162 80BB     		cbnz	r0, .L114
 529:Middlewares/ST/STM32_USB_Host_Library/Core/Src/usbh_core.c ****           USBH_UsrLog ("%s class started.", phost->pActiveClass->Name);
 1470              		.loc 1 529 0
 1471 0164 0623     		movs	r3, #6
 1472 0166 2370     		strb	r3, [r4]
 530:Middlewares/ST/STM32_USB_Host_Library/Core/Src/usbh_core.c ****           
 1473              		.loc 1 530 0
 1474 0168 D4F87433 		ldr	r3, [r4, #884]
 1475 016c 1968     		ldr	r1, [r3]
 1476 016e 4048     		ldr	r0, .L120+16
 1477 0170 FFF7FEFF 		bl	printf
 1478              	.LVL205:
 1479 0174 0A20     		movs	r0, #10
 1480 0176 FFF7FEFF 		bl	putchar
 1481              	.LVL206:
 533:Middlewares/ST/STM32_USB_Host_Library/Core/Src/usbh_core.c ****         }
 1482              		.loc 1 533 0
 1483 017a D4F8C433 		ldr	r3, [r4, #964]
 1484 017e 0321     		movs	r1, #3
 1485 0180 2046     		mov	r0, r4
 1486 0182 9847     		blx	r3
 1487              	.LVL207:
 1488 0184 05E0     		b	.L109
 1489              	.LVL208:
 1490              	.L118:
 511:Middlewares/ST/STM32_USB_Host_Library/Core/Src/usbh_core.c ****     }
 1491              		.loc 1 511 0
 1492 0186 3B48     		ldr	r0, .L120+20
 1493              	.LVL209:
 1494 0188 FFF7FEFF 		bl	printf
 1495              	.LVL210:
 1496 018c 0A20     		movs	r0, #10
 1497 018e FFF7FEFF 		bl	putchar
 1498              	.LVL211:
 1499              	.L109:
 549:Middlewares/ST/STM32_USB_Host_Library/Core/Src/usbh_core.c **** #endif 
 1500              		.loc 1 549 0
 1501 0192 0022     		movs	r2, #0
 1502 0194 0521     		movs	r1, #5
 1503 0196 D4F8C803 		ldr	r0, [r4, #968]
 1504 019a FFF7FEFF 		bl	osMessagePut
 1505              	.LVL212:
 551:Middlewares/ST/STM32_USB_Host_Library/Core/Src/usbh_core.c ****     
 1506              		.loc 1 551 0
 1507 019e 94E7     		b	.L96
 1508              	.LVL213:
 1509              	.L112:
 519:Middlewares/ST/STM32_USB_Host_Library/Core/Src/usbh_core.c ****         {
 1510              		.loc 1 519 0
ARM GAS  /var/folders/0d/93p3r6493yg7p0rvl_4r983m0000gn/T//ccoyKrkN.s 			page 45


 1511 01a0 03F1DC02 		add	r2, r3, #220
 1512 01a4 54F82220 		ldr	r2, [r4, r2, lsl #2]
 1513 01a8 1179     		ldrb	r1, [r2, #4]	@ zero_extendqisi2
 1514 01aa 94F84123 		ldrb	r2, [r4, #833]	@ zero_extendqisi2
 1515 01ae 9142     		cmp	r1, r2
 1516 01b0 02D0     		beq	.L119
 1517              	.L111:
 517:Middlewares/ST/STM32_USB_Host_Library/Core/Src/usbh_core.c ****       {
 1518              		.loc 1 517 0 discriminator 2
 1519 01b2 0133     		adds	r3, r3, #1
 1520              	.LVL214:
 1521 01b4 DBB2     		uxtb	r3, r3
 1522              	.LVL215:
 1523 01b6 CCE7     		b	.L110
 1524              	.L119:
 521:Middlewares/ST/STM32_USB_Host_Library/Core/Src/usbh_core.c ****         }
 1525              		.loc 1 521 0
 1526 01b8 03F1DC02 		add	r2, r3, #220
 1527 01bc 54F82220 		ldr	r2, [r4, r2, lsl #2]
 1528 01c0 C4F87423 		str	r2, [r4, #884]
 1529 01c4 F5E7     		b	.L111
 1530              	.LVL216:
 1531              	.L114:
 537:Middlewares/ST/STM32_USB_Host_Library/Core/Src/usbh_core.c ****           USBH_UsrLog ("Device not supporting %s class.", phost->pActiveClass->Name);
 1532              		.loc 1 537 0
 1533 01c6 0C23     		movs	r3, #12
 1534 01c8 2370     		strb	r3, [r4]
 538:Middlewares/ST/STM32_USB_Host_Library/Core/Src/usbh_core.c ****         }
 1535              		.loc 1 538 0
 1536 01ca D4F87433 		ldr	r3, [r4, #884]
 1537 01ce 1968     		ldr	r1, [r3]
 1538 01d0 2948     		ldr	r0, .L120+24
 1539 01d2 FFF7FEFF 		bl	printf
 1540              	.LVL217:
 1541 01d6 0A20     		movs	r0, #10
 1542 01d8 FFF7FEFF 		bl	putchar
 1543              	.LVL218:
 1544 01dc D9E7     		b	.L109
 1545              	.LVL219:
 1546              	.L113:
 543:Middlewares/ST/STM32_USB_Host_Library/Core/Src/usbh_core.c ****         USBH_UsrLog ("No registered class for this device.");
 1547              		.loc 1 543 0
 1548 01de 0C23     		movs	r3, #12
 1549 01e0 2370     		strb	r3, [r4]
 544:Middlewares/ST/STM32_USB_Host_Library/Core/Src/usbh_core.c ****       }
 1550              		.loc 1 544 0
 1551 01e2 2648     		ldr	r0, .L120+28
 1552              	.LVL220:
 1553 01e4 FFF7FEFF 		bl	printf
 1554              	.LVL221:
 1555 01e8 0A20     		movs	r0, #10
 1556 01ea FFF7FEFF 		bl	putchar
 1557              	.LVL222:
 1558 01ee D0E7     		b	.L109
 1559              	.LVL223:
 1560              	.L102:
 555:Middlewares/ST/STM32_USB_Host_Library/Core/Src/usbh_core.c ****     {
ARM GAS  /var/folders/0d/93p3r6493yg7p0rvl_4r983m0000gn/T//ccoyKrkN.s 			page 46


 1561              		.loc 1 555 0
 1562 01f0 D0F87433 		ldr	r3, [r0, #884]
 1563 01f4 5BB1     		cbz	r3, .L115
 557:Middlewares/ST/STM32_USB_Host_Library/Core/Src/usbh_core.c ****       
 1564              		.loc 1 557 0
 1565 01f6 1B69     		ldr	r3, [r3, #16]
 1566 01f8 9847     		blx	r3
 1567              	.LVL224:
 1568 01fa 8DF81700 		strb	r0, [sp, #23]
 559:Middlewares/ST/STM32_USB_Host_Library/Core/Src/usbh_core.c ****       {
 1569              		.loc 1 559 0
 1570 01fe 9DF81730 		ldrb	r3, [sp, #23]	@ zero_extendqisi2
 1571 0202 002B     		cmp	r3, #0
 1572 0204 7FF461AF 		bne	.L96
 561:Middlewares/ST/STM32_USB_Host_Library/Core/Src/usbh_core.c ****       }  
 1573              		.loc 1 561 0
 1574 0208 0A23     		movs	r3, #10
 1575 020a 2370     		strb	r3, [r4]
 1576 020c 5DE7     		b	.L96
 1577              	.LVL225:
 1578              	.L115:
 566:Middlewares/ST/STM32_USB_Host_Library/Core/Src/usbh_core.c ****       USBH_ErrLog ("Invalid Class Driver.");
 1579              		.loc 1 566 0
 1580 020e 0C23     		movs	r3, #12
 1581 0210 0370     		strb	r3, [r0]
 567:Middlewares/ST/STM32_USB_Host_Library/Core/Src/usbh_core.c ****     
 1582              		.loc 1 567 0
 1583 0212 1B48     		ldr	r0, .L120+32
 1584              	.LVL226:
 1585 0214 FFF7FEFF 		bl	printf
 1586              	.LVL227:
 1587 0218 1A48     		ldr	r0, .L120+36
 1588 021a FFF7FEFF 		bl	printf
 1589              	.LVL228:
 1590 021e 0A20     		movs	r0, #10
 1591 0220 FFF7FEFF 		bl	putchar
 1592              	.LVL229:
 570:Middlewares/ST/STM32_USB_Host_Library/Core/Src/usbh_core.c **** #endif       
 1593              		.loc 1 570 0
 1594 0224 0022     		movs	r2, #0
 1595 0226 0521     		movs	r1, #5
 1596 0228 D4F8C803 		ldr	r0, [r4, #968]
 1597 022c FFF7FEFF 		bl	osMessagePut
 1598              	.LVL230:
 1599 0230 4BE7     		b	.L96
 1600              	.LVL231:
 1601              	.L106:
 577:Middlewares/ST/STM32_USB_Host_Library/Core/Src/usbh_core.c ****     { 
 1602              		.loc 1 577 0
 1603 0232 D0F87433 		ldr	r3, [r0, #884]
 1604 0236 002B     		cmp	r3, #0
 1605 0238 3FF447AF 		beq	.L96
 579:Middlewares/ST/STM32_USB_Host_Library/Core/Src/usbh_core.c ****     }
 1606              		.loc 1 579 0
 1607 023c 5B69     		ldr	r3, [r3, #20]
 1608 023e 9847     		blx	r3
 1609              	.LVL232:
ARM GAS  /var/folders/0d/93p3r6493yg7p0rvl_4r983m0000gn/T//ccoyKrkN.s 			page 47


 1610 0240 43E7     		b	.L96
 1611              	.LVL233:
 1612              	.L100:
 585:Middlewares/ST/STM32_USB_Host_Library/Core/Src/usbh_core.c ****     
 1613              		.loc 1 585 0
 1614 0242 FFF7FEFF 		bl	DeInitStateMachine
 1615              	.LVL234:
 588:Middlewares/ST/STM32_USB_Host_Library/Core/Src/usbh_core.c ****     {
 1616              		.loc 1 588 0
 1617 0246 D4F87433 		ldr	r3, [r4, #884]
 1618 024a 002B     		cmp	r3, #0
 1619 024c 3FF43DAF 		beq	.L96
 590:Middlewares/ST/STM32_USB_Host_Library/Core/Src/usbh_core.c ****       phost->pActiveClass = NULL;
 1620              		.loc 1 590 0
 1621 0250 DB68     		ldr	r3, [r3, #12]
 1622 0252 2046     		mov	r0, r4
 1623 0254 9847     		blx	r3
 1624              	.LVL235:
 591:Middlewares/ST/STM32_USB_Host_Library/Core/Src/usbh_core.c ****     }     
 1625              		.loc 1 591 0
 1626 0256 0023     		movs	r3, #0
 1627 0258 C4F87433 		str	r3, [r4, #884]
 1628 025c 35E7     		b	.L96
 1629              	.L121:
 1630 025e 00BF     		.align	2
 1631              	.L120:
 1632 0260 00000000 		.word	.LC22
 1633 0264 14000000 		.word	.LC23
 1634 0268 28000000 		.word	.LC24
 1635 026c 50000000 		.word	.LC25
 1636 0270 8C000000 		.word	.LC27
 1637 0274 6C000000 		.word	.LC26
 1638 0278 A0000000 		.word	.LC28
 1639 027c C0000000 		.word	.LC29
 1640 0280 00000000 		.word	.LC12
 1641 0284 E8000000 		.word	.LC30
 1642              		.cfi_endproc
 1643              	.LFE142:
 1645              		.section	.text.USBH_Process_OS,"ax",%progbits
 1646              		.align	1
 1647              		.syntax unified
 1648              		.thumb
 1649              		.thumb_func
 1650              		.fpu fpv4-sp-d16
 1652              	USBH_Process_OS:
 1653              	.LFB149:
 820:Middlewares/ST/STM32_USB_Host_Library/Core/Src/usbh_core.c **** /**
 821:Middlewares/ST/STM32_USB_Host_Library/Core/Src/usbh_core.c ****   * @brief  USBH_LL_Connect 
 822:Middlewares/ST/STM32_USB_Host_Library/Core/Src/usbh_core.c ****   *         Handle USB Host connexion event
 823:Middlewares/ST/STM32_USB_Host_Library/Core/Src/usbh_core.c ****   * @param  phost: Host Handle
 824:Middlewares/ST/STM32_USB_Host_Library/Core/Src/usbh_core.c ****   * @retval USBH_Status
 825:Middlewares/ST/STM32_USB_Host_Library/Core/Src/usbh_core.c ****   */
 826:Middlewares/ST/STM32_USB_Host_Library/Core/Src/usbh_core.c **** USBH_StatusTypeDef  USBH_LL_Connect  (USBH_HandleTypeDef *phost)
 827:Middlewares/ST/STM32_USB_Host_Library/Core/Src/usbh_core.c **** {
 828:Middlewares/ST/STM32_USB_Host_Library/Core/Src/usbh_core.c ****   if(phost->gState == HOST_IDLE )
 829:Middlewares/ST/STM32_USB_Host_Library/Core/Src/usbh_core.c ****   {
 830:Middlewares/ST/STM32_USB_Host_Library/Core/Src/usbh_core.c ****     phost->device.is_connected = 1;
ARM GAS  /var/folders/0d/93p3r6493yg7p0rvl_4r983m0000gn/T//ccoyKrkN.s 			page 48


 831:Middlewares/ST/STM32_USB_Host_Library/Core/Src/usbh_core.c ****     
 832:Middlewares/ST/STM32_USB_Host_Library/Core/Src/usbh_core.c ****     if(phost->pUser != NULL)
 833:Middlewares/ST/STM32_USB_Host_Library/Core/Src/usbh_core.c ****     {    
 834:Middlewares/ST/STM32_USB_Host_Library/Core/Src/usbh_core.c ****       phost->pUser(phost, HOST_USER_CONNECTION);
 835:Middlewares/ST/STM32_USB_Host_Library/Core/Src/usbh_core.c ****     }
 836:Middlewares/ST/STM32_USB_Host_Library/Core/Src/usbh_core.c ****   } 
 837:Middlewares/ST/STM32_USB_Host_Library/Core/Src/usbh_core.c ****   else if(phost->gState == HOST_DEV_WAIT_FOR_ATTACHMENT )
 838:Middlewares/ST/STM32_USB_Host_Library/Core/Src/usbh_core.c ****   {
 839:Middlewares/ST/STM32_USB_Host_Library/Core/Src/usbh_core.c ****     phost->gState = HOST_DEV_ATTACHED ;
 840:Middlewares/ST/STM32_USB_Host_Library/Core/Src/usbh_core.c ****   }
 841:Middlewares/ST/STM32_USB_Host_Library/Core/Src/usbh_core.c **** #if (USBH_USE_OS == 1)
 842:Middlewares/ST/STM32_USB_Host_Library/Core/Src/usbh_core.c ****   osMessagePut ( phost->os_event, USBH_PORT_EVENT, 0);
 843:Middlewares/ST/STM32_USB_Host_Library/Core/Src/usbh_core.c **** #endif 
 844:Middlewares/ST/STM32_USB_Host_Library/Core/Src/usbh_core.c ****   
 845:Middlewares/ST/STM32_USB_Host_Library/Core/Src/usbh_core.c ****   return USBH_OK;
 846:Middlewares/ST/STM32_USB_Host_Library/Core/Src/usbh_core.c **** }
 847:Middlewares/ST/STM32_USB_Host_Library/Core/Src/usbh_core.c **** 
 848:Middlewares/ST/STM32_USB_Host_Library/Core/Src/usbh_core.c **** /**
 849:Middlewares/ST/STM32_USB_Host_Library/Core/Src/usbh_core.c ****   * @brief  USBH_LL_Disconnect 
 850:Middlewares/ST/STM32_USB_Host_Library/Core/Src/usbh_core.c ****   *         Handle USB Host disconnection event
 851:Middlewares/ST/STM32_USB_Host_Library/Core/Src/usbh_core.c ****   * @param  phost: Host Handle
 852:Middlewares/ST/STM32_USB_Host_Library/Core/Src/usbh_core.c ****   * @retval USBH_Status
 853:Middlewares/ST/STM32_USB_Host_Library/Core/Src/usbh_core.c ****   */
 854:Middlewares/ST/STM32_USB_Host_Library/Core/Src/usbh_core.c **** USBH_StatusTypeDef  USBH_LL_Disconnect  (USBH_HandleTypeDef *phost)
 855:Middlewares/ST/STM32_USB_Host_Library/Core/Src/usbh_core.c **** {
 856:Middlewares/ST/STM32_USB_Host_Library/Core/Src/usbh_core.c ****   /*Stop Host */ 
 857:Middlewares/ST/STM32_USB_Host_Library/Core/Src/usbh_core.c ****   USBH_LL_Stop(phost);  
 858:Middlewares/ST/STM32_USB_Host_Library/Core/Src/usbh_core.c ****   
 859:Middlewares/ST/STM32_USB_Host_Library/Core/Src/usbh_core.c ****   /* FRee Control Pipes */
 860:Middlewares/ST/STM32_USB_Host_Library/Core/Src/usbh_core.c ****   USBH_FreePipe  (phost, phost->Control.pipe_in);
 861:Middlewares/ST/STM32_USB_Host_Library/Core/Src/usbh_core.c ****   USBH_FreePipe  (phost, phost->Control.pipe_out);  
 862:Middlewares/ST/STM32_USB_Host_Library/Core/Src/usbh_core.c ****    
 863:Middlewares/ST/STM32_USB_Host_Library/Core/Src/usbh_core.c ****   phost->device.is_connected = 0; 
 864:Middlewares/ST/STM32_USB_Host_Library/Core/Src/usbh_core.c ****    
 865:Middlewares/ST/STM32_USB_Host_Library/Core/Src/usbh_core.c ****   if(phost->pUser != NULL)
 866:Middlewares/ST/STM32_USB_Host_Library/Core/Src/usbh_core.c ****   {    
 867:Middlewares/ST/STM32_USB_Host_Library/Core/Src/usbh_core.c ****     phost->pUser(phost, HOST_USER_DISCONNECTION);
 868:Middlewares/ST/STM32_USB_Host_Library/Core/Src/usbh_core.c ****   }
 869:Middlewares/ST/STM32_USB_Host_Library/Core/Src/usbh_core.c ****   USBH_UsrLog("USB Device disconnected"); 
 870:Middlewares/ST/STM32_USB_Host_Library/Core/Src/usbh_core.c ****   
 871:Middlewares/ST/STM32_USB_Host_Library/Core/Src/usbh_core.c ****   /* Start the low level driver  */
 872:Middlewares/ST/STM32_USB_Host_Library/Core/Src/usbh_core.c ****   USBH_LL_Start(phost);
 873:Middlewares/ST/STM32_USB_Host_Library/Core/Src/usbh_core.c ****   
 874:Middlewares/ST/STM32_USB_Host_Library/Core/Src/usbh_core.c ****   phost->gState = HOST_DEV_DISCONNECTED;
 875:Middlewares/ST/STM32_USB_Host_Library/Core/Src/usbh_core.c ****   
 876:Middlewares/ST/STM32_USB_Host_Library/Core/Src/usbh_core.c **** #if (USBH_USE_OS == 1)
 877:Middlewares/ST/STM32_USB_Host_Library/Core/Src/usbh_core.c ****   osMessagePut ( phost->os_event, USBH_PORT_EVENT, 0);
 878:Middlewares/ST/STM32_USB_Host_Library/Core/Src/usbh_core.c **** #endif 
 879:Middlewares/ST/STM32_USB_Host_Library/Core/Src/usbh_core.c ****   
 880:Middlewares/ST/STM32_USB_Host_Library/Core/Src/usbh_core.c ****   return USBH_OK;
 881:Middlewares/ST/STM32_USB_Host_Library/Core/Src/usbh_core.c **** }
 882:Middlewares/ST/STM32_USB_Host_Library/Core/Src/usbh_core.c **** 
 883:Middlewares/ST/STM32_USB_Host_Library/Core/Src/usbh_core.c **** 
 884:Middlewares/ST/STM32_USB_Host_Library/Core/Src/usbh_core.c **** #if (USBH_USE_OS == 1)  
 885:Middlewares/ST/STM32_USB_Host_Library/Core/Src/usbh_core.c **** /**
 886:Middlewares/ST/STM32_USB_Host_Library/Core/Src/usbh_core.c ****   * @brief  USB Host Thread task
 887:Middlewares/ST/STM32_USB_Host_Library/Core/Src/usbh_core.c ****   * @param  pvParameters not used
ARM GAS  /var/folders/0d/93p3r6493yg7p0rvl_4r983m0000gn/T//ccoyKrkN.s 			page 49


 888:Middlewares/ST/STM32_USB_Host_Library/Core/Src/usbh_core.c ****   * @retval None
 889:Middlewares/ST/STM32_USB_Host_Library/Core/Src/usbh_core.c ****   */
 890:Middlewares/ST/STM32_USB_Host_Library/Core/Src/usbh_core.c **** static void USBH_Process_OS(void const * argument)
 891:Middlewares/ST/STM32_USB_Host_Library/Core/Src/usbh_core.c **** {
 1654              		.loc 1 891 0
 1655              		.cfi_startproc
 1656              		@ Volatile: function does not return.
 1657              		@ args = 0, pretend = 0, frame = 16
 1658              		@ frame_needed = 0, uses_anonymous_args = 0
 1659              	.LVL236:
 1660 0000 00B5     		push	{lr}
 1661              	.LCFI25:
 1662              		.cfi_def_cfa_offset 4
 1663              		.cfi_offset 14, -4
 1664 0002 85B0     		sub	sp, sp, #20
 1665              	.LCFI26:
 1666              		.cfi_def_cfa_offset 24
 1667 0004 0446     		mov	r4, r0
 1668              	.LVL237:
 1669              	.L123:
 892:Middlewares/ST/STM32_USB_Host_Library/Core/Src/usbh_core.c ****   osEvent event;
 893:Middlewares/ST/STM32_USB_Host_Library/Core/Src/usbh_core.c ****   
 894:Middlewares/ST/STM32_USB_Host_Library/Core/Src/usbh_core.c ****   for(;;)
 895:Middlewares/ST/STM32_USB_Host_Library/Core/Src/usbh_core.c ****   {
 896:Middlewares/ST/STM32_USB_Host_Library/Core/Src/usbh_core.c ****     event = osMessageGet(((USBH_HandleTypeDef *)argument)->os_event, osWaitForever );
 1670              		.loc 1 896 0
 1671 0006 4FF0FF32 		mov	r2, #-1
 1672 000a D4F8C813 		ldr	r1, [r4, #968]
 1673 000e 01A8     		add	r0, sp, #4
 1674 0010 FFF7FEFF 		bl	osMessageGet
 1675              	.LVL238:
 897:Middlewares/ST/STM32_USB_Host_Library/Core/Src/usbh_core.c ****     
 898:Middlewares/ST/STM32_USB_Host_Library/Core/Src/usbh_core.c ****     if( event.status == osEventMessage )
 1676              		.loc 1 898 0
 1677 0014 019B     		ldr	r3, [sp, #4]
 1678 0016 102B     		cmp	r3, #16
 1679 0018 F5D1     		bne	.L123
 899:Middlewares/ST/STM32_USB_Host_Library/Core/Src/usbh_core.c ****     {
 900:Middlewares/ST/STM32_USB_Host_Library/Core/Src/usbh_core.c ****       USBH_Process((USBH_HandleTypeDef *)argument);
 1680              		.loc 1 900 0
 1681 001a 2046     		mov	r0, r4
 1682 001c FFF7FEFF 		bl	USBH_Process
 1683              	.LVL239:
 1684 0020 F1E7     		b	.L123
 1685              		.cfi_endproc
 1686              	.LFE149:
 1688              		.section	.text.USBH_LL_SetTimer,"ax",%progbits
 1689              		.align	1
 1690              		.global	USBH_LL_SetTimer
 1691              		.syntax unified
 1692              		.thumb
 1693              		.thumb_func
 1694              		.fpu fpv4-sp-d16
 1696              	USBH_LL_SetTimer:
 1697              	.LFB144:
 792:Middlewares/ST/STM32_USB_Host_Library/Core/Src/usbh_core.c ****   phost->Timer = time;
 1698              		.loc 1 792 0
ARM GAS  /var/folders/0d/93p3r6493yg7p0rvl_4r983m0000gn/T//ccoyKrkN.s 			page 50


 1699              		.cfi_startproc
 1700              		@ args = 0, pretend = 0, frame = 0
 1701              		@ frame_needed = 0, uses_anonymous_args = 0
 1702              		@ link register save eliminated.
 1703              	.LVL240:
 793:Middlewares/ST/STM32_USB_Host_Library/Core/Src/usbh_core.c **** }
 1704              		.loc 1 793 0
 1705 0000 C0F8B813 		str	r1, [r0, #952]
 794:Middlewares/ST/STM32_USB_Host_Library/Core/Src/usbh_core.c **** /**
 1706              		.loc 1 794 0
 1707 0004 7047     		bx	lr
 1708              		.cfi_endproc
 1709              	.LFE144:
 1711              		.section	.text.USBH_LL_IncTimer,"ax",%progbits
 1712              		.align	1
 1713              		.global	USBH_LL_IncTimer
 1714              		.syntax unified
 1715              		.thumb
 1716              		.thumb_func
 1717              		.fpu fpv4-sp-d16
 1719              	USBH_LL_IncTimer:
 1720              	.LFB145:
 802:Middlewares/ST/STM32_USB_Host_Library/Core/Src/usbh_core.c ****   phost->Timer ++;
 1721              		.loc 1 802 0
 1722              		.cfi_startproc
 1723              		@ args = 0, pretend = 0, frame = 0
 1724              		@ frame_needed = 0, uses_anonymous_args = 0
 1725              	.LVL241:
 1726 0000 08B5     		push	{r3, lr}
 1727              	.LCFI27:
 1728              		.cfi_def_cfa_offset 8
 1729              		.cfi_offset 3, -8
 1730              		.cfi_offset 14, -4
 803:Middlewares/ST/STM32_USB_Host_Library/Core/Src/usbh_core.c ****   USBH_HandleSof(phost);
 1731              		.loc 1 803 0
 1732 0002 D0F8B833 		ldr	r3, [r0, #952]
 1733 0006 0133     		adds	r3, r3, #1
 1734 0008 C0F8B833 		str	r3, [r0, #952]
 804:Middlewares/ST/STM32_USB_Host_Library/Core/Src/usbh_core.c **** }
 1735              		.loc 1 804 0
 1736 000c FFF7FEFF 		bl	USBH_HandleSof
 1737              	.LVL242:
 805:Middlewares/ST/STM32_USB_Host_Library/Core/Src/usbh_core.c **** 
 1738              		.loc 1 805 0
 1739 0010 08BD     		pop	{r3, pc}
 1740              		.cfi_endproc
 1741              	.LFE145:
 1743              		.section	.text.USBH_LL_Connect,"ax",%progbits
 1744              		.align	1
 1745              		.global	USBH_LL_Connect
 1746              		.syntax unified
 1747              		.thumb
 1748              		.thumb_func
 1749              		.fpu fpv4-sp-d16
 1751              	USBH_LL_Connect:
 1752              	.LFB147:
 827:Middlewares/ST/STM32_USB_Host_Library/Core/Src/usbh_core.c ****   if(phost->gState == HOST_IDLE )
ARM GAS  /var/folders/0d/93p3r6493yg7p0rvl_4r983m0000gn/T//ccoyKrkN.s 			page 51


 1753              		.loc 1 827 0
 1754              		.cfi_startproc
 1755              		@ args = 0, pretend = 0, frame = 0
 1756              		@ frame_needed = 0, uses_anonymous_args = 0
 1757              	.LVL243:
 1758 0000 10B5     		push	{r4, lr}
 1759              	.LCFI28:
 1760              		.cfi_def_cfa_offset 8
 1761              		.cfi_offset 4, -8
 1762              		.cfi_offset 14, -4
 1763 0002 0446     		mov	r4, r0
 828:Middlewares/ST/STM32_USB_Host_Library/Core/Src/usbh_core.c ****   {
 1764              		.loc 1 828 0
 1765 0004 0378     		ldrb	r3, [r0]	@ zero_extendqisi2
 1766 0006 7BB9     		cbnz	r3, .L130
 830:Middlewares/ST/STM32_USB_Host_Library/Core/Src/usbh_core.c ****     
 1767              		.loc 1 830 0
 1768 0008 0123     		movs	r3, #1
 1769 000a 80F81E33 		strb	r3, [r0, #798]
 832:Middlewares/ST/STM32_USB_Host_Library/Core/Src/usbh_core.c ****     {    
 1770              		.loc 1 832 0
 1771 000e D0F8C433 		ldr	r3, [r0, #964]
 1772 0012 0BB1     		cbz	r3, .L131
 834:Middlewares/ST/STM32_USB_Host_Library/Core/Src/usbh_core.c ****     }
 1773              		.loc 1 834 0
 1774 0014 0421     		movs	r1, #4
 1775 0016 9847     		blx	r3
 1776              	.LVL244:
 1777              	.L131:
 842:Middlewares/ST/STM32_USB_Host_Library/Core/Src/usbh_core.c **** #endif 
 1778              		.loc 1 842 0
 1779 0018 0022     		movs	r2, #0
 1780 001a 0121     		movs	r1, #1
 1781 001c D4F8C803 		ldr	r0, [r4, #968]
 1782 0020 FFF7FEFF 		bl	osMessagePut
 1783              	.LVL245:
 846:Middlewares/ST/STM32_USB_Host_Library/Core/Src/usbh_core.c **** 
 1784              		.loc 1 846 0
 1785 0024 0020     		movs	r0, #0
 1786 0026 10BD     		pop	{r4, pc}
 1787              	.LVL246:
 1788              	.L130:
 837:Middlewares/ST/STM32_USB_Host_Library/Core/Src/usbh_core.c ****   {
 1789              		.loc 1 837 0
 1790 0028 0378     		ldrb	r3, [r0]	@ zero_extendqisi2
 1791 002a DBB2     		uxtb	r3, r3
 1792 002c 012B     		cmp	r3, #1
 1793 002e F3D1     		bne	.L131
 839:Middlewares/ST/STM32_USB_Host_Library/Core/Src/usbh_core.c ****   }
 1794              		.loc 1 839 0
 1795 0030 0223     		movs	r3, #2
 1796 0032 0370     		strb	r3, [r0]
 1797 0034 F0E7     		b	.L131
 1798              		.cfi_endproc
 1799              	.LFE147:
 1801              		.section	.text.USBH_LL_Disconnect,"ax",%progbits
 1802              		.align	1
ARM GAS  /var/folders/0d/93p3r6493yg7p0rvl_4r983m0000gn/T//ccoyKrkN.s 			page 52


 1803              		.global	USBH_LL_Disconnect
 1804              		.syntax unified
 1805              		.thumb
 1806              		.thumb_func
 1807              		.fpu fpv4-sp-d16
 1809              	USBH_LL_Disconnect:
 1810              	.LFB148:
 855:Middlewares/ST/STM32_USB_Host_Library/Core/Src/usbh_core.c ****   /*Stop Host */ 
 1811              		.loc 1 855 0
 1812              		.cfi_startproc
 1813              		@ args = 0, pretend = 0, frame = 0
 1814              		@ frame_needed = 0, uses_anonymous_args = 0
 1815              	.LVL247:
 1816 0000 10B5     		push	{r4, lr}
 1817              	.LCFI29:
 1818              		.cfi_def_cfa_offset 8
 1819              		.cfi_offset 4, -8
 1820              		.cfi_offset 14, -4
 1821 0002 0446     		mov	r4, r0
 857:Middlewares/ST/STM32_USB_Host_Library/Core/Src/usbh_core.c ****   
 1822              		.loc 1 857 0
 1823 0004 FFF7FEFF 		bl	USBH_LL_Stop
 1824              	.LVL248:
 860:Middlewares/ST/STM32_USB_Host_Library/Core/Src/usbh_core.c ****   USBH_FreePipe  (phost, phost->Control.pipe_out);  
 1825              		.loc 1 860 0
 1826 0008 2179     		ldrb	r1, [r4, #4]	@ zero_extendqisi2
 1827 000a 2046     		mov	r0, r4
 1828 000c FFF7FEFF 		bl	USBH_FreePipe
 1829              	.LVL249:
 861:Middlewares/ST/STM32_USB_Host_Library/Core/Src/usbh_core.c ****    
 1830              		.loc 1 861 0
 1831 0010 6179     		ldrb	r1, [r4, #5]	@ zero_extendqisi2
 1832 0012 2046     		mov	r0, r4
 1833 0014 FFF7FEFF 		bl	USBH_FreePipe
 1834              	.LVL250:
 863:Middlewares/ST/STM32_USB_Host_Library/Core/Src/usbh_core.c ****    
 1835              		.loc 1 863 0
 1836 0018 0023     		movs	r3, #0
 1837 001a 84F81E33 		strb	r3, [r4, #798]
 865:Middlewares/ST/STM32_USB_Host_Library/Core/Src/usbh_core.c ****   {    
 1838              		.loc 1 865 0
 1839 001e D4F8C433 		ldr	r3, [r4, #964]
 1840 0022 13B1     		cbz	r3, .L134
 867:Middlewares/ST/STM32_USB_Host_Library/Core/Src/usbh_core.c ****   }
 1841              		.loc 1 867 0
 1842 0024 0521     		movs	r1, #5
 1843 0026 2046     		mov	r0, r4
 1844 0028 9847     		blx	r3
 1845              	.LVL251:
 1846              	.L134:
 869:Middlewares/ST/STM32_USB_Host_Library/Core/Src/usbh_core.c ****   
 1847              		.loc 1 869 0
 1848 002a 0948     		ldr	r0, .L136
 1849 002c FFF7FEFF 		bl	printf
 1850              	.LVL252:
 1851 0030 0A20     		movs	r0, #10
 1852 0032 FFF7FEFF 		bl	putchar
ARM GAS  /var/folders/0d/93p3r6493yg7p0rvl_4r983m0000gn/T//ccoyKrkN.s 			page 53


 1853              	.LVL253:
 872:Middlewares/ST/STM32_USB_Host_Library/Core/Src/usbh_core.c ****   
 1854              		.loc 1 872 0
 1855 0036 2046     		mov	r0, r4
 1856 0038 FFF7FEFF 		bl	USBH_LL_Start
 1857              	.LVL254:
 874:Middlewares/ST/STM32_USB_Host_Library/Core/Src/usbh_core.c ****   
 1858              		.loc 1 874 0
 1859 003c 0323     		movs	r3, #3
 1860 003e 2370     		strb	r3, [r4]
 877:Middlewares/ST/STM32_USB_Host_Library/Core/Src/usbh_core.c **** #endif 
 1861              		.loc 1 877 0
 1862 0040 0022     		movs	r2, #0
 1863 0042 0121     		movs	r1, #1
 1864 0044 D4F8C803 		ldr	r0, [r4, #968]
 1865 0048 FFF7FEFF 		bl	osMessagePut
 1866              	.LVL255:
 881:Middlewares/ST/STM32_USB_Host_Library/Core/Src/usbh_core.c **** 
 1867              		.loc 1 881 0
 1868 004c 0020     		movs	r0, #0
 1869 004e 10BD     		pop	{r4, pc}
 1870              	.LVL256:
 1871              	.L137:
 1872              		.align	2
 1873              	.L136:
 1874 0050 00000000 		.word	.LC31
 1875              		.cfi_endproc
 1876              	.LFE148:
 1878              		.section	.text.USBH_LL_NotifyURBChange,"ax",%progbits
 1879              		.align	1
 1880              		.global	USBH_LL_NotifyURBChange
 1881              		.syntax unified
 1882              		.thumb
 1883              		.thumb_func
 1884              		.fpu fpv4-sp-d16
 1886              	USBH_LL_NotifyURBChange:
 1887              	.LFB150:
 901:Middlewares/ST/STM32_USB_Host_Library/Core/Src/usbh_core.c ****     }
 902:Middlewares/ST/STM32_USB_Host_Library/Core/Src/usbh_core.c ****    }
 903:Middlewares/ST/STM32_USB_Host_Library/Core/Src/usbh_core.c **** }
 904:Middlewares/ST/STM32_USB_Host_Library/Core/Src/usbh_core.c **** 
 905:Middlewares/ST/STM32_USB_Host_Library/Core/Src/usbh_core.c **** /**
 906:Middlewares/ST/STM32_USB_Host_Library/Core/Src/usbh_core.c **** * @brief  USBH_LL_NotifyURBChange 
 907:Middlewares/ST/STM32_USB_Host_Library/Core/Src/usbh_core.c **** *         Notify URB state Change
 908:Middlewares/ST/STM32_USB_Host_Library/Core/Src/usbh_core.c **** * @param  phost: Host handle
 909:Middlewares/ST/STM32_USB_Host_Library/Core/Src/usbh_core.c **** * @retval USBH Status
 910:Middlewares/ST/STM32_USB_Host_Library/Core/Src/usbh_core.c **** */
 911:Middlewares/ST/STM32_USB_Host_Library/Core/Src/usbh_core.c **** USBH_StatusTypeDef  USBH_LL_NotifyURBChange (USBH_HandleTypeDef *phost)
 912:Middlewares/ST/STM32_USB_Host_Library/Core/Src/usbh_core.c **** {
 1888              		.loc 1 912 0
 1889              		.cfi_startproc
 1890              		@ args = 0, pretend = 0, frame = 0
 1891              		@ frame_needed = 0, uses_anonymous_args = 0
 1892              	.LVL257:
 1893 0000 08B5     		push	{r3, lr}
 1894              	.LCFI30:
 1895              		.cfi_def_cfa_offset 8
ARM GAS  /var/folders/0d/93p3r6493yg7p0rvl_4r983m0000gn/T//ccoyKrkN.s 			page 54


 1896              		.cfi_offset 3, -8
 1897              		.cfi_offset 14, -4
 913:Middlewares/ST/STM32_USB_Host_Library/Core/Src/usbh_core.c ****   osMessagePut ( phost->os_event, USBH_URB_EVENT, 0);
 1898              		.loc 1 913 0
 1899 0002 0022     		movs	r2, #0
 1900 0004 0221     		movs	r1, #2
 1901 0006 D0F8C803 		ldr	r0, [r0, #968]
 1902              	.LVL258:
 1903 000a FFF7FEFF 		bl	osMessagePut
 1904              	.LVL259:
 914:Middlewares/ST/STM32_USB_Host_Library/Core/Src/usbh_core.c ****   return USBH_OK;
 915:Middlewares/ST/STM32_USB_Host_Library/Core/Src/usbh_core.c **** }
 1905              		.loc 1 915 0
 1906 000e 0020     		movs	r0, #0
 1907 0010 08BD     		pop	{r3, pc}
 1908              		.cfi_endproc
 1909              	.LFE150:
 1911              		.section	.rodata
 1912              		.align	2
 1913              		.set	.LANCHOR0,. + 0
 1914              	.LC0:
 1915 0000 0A000000 		.word	10
 1916 0004 02000000 		.word	2
 1917              	.LC14:
 1918 0008 00000000 		.word	.LC1
 1919 000c 00000000 		.word	USBH_Process_OS
 1920 0010 0000     		.short	0
 1921 0012 0000     		.space	2
 1922 0014 00000000 		.word	0
 1923 0018 80000000 		.word	128
 1924              		.section	.rodata.USBH_HandleEnum.str1.4,"aMS",%progbits,1
 1925              		.align	2
 1926              	.LC3:
 1927 0000 5049443A 		.ascii	"PID: %xh\000"
 1927      20257868 
 1927      00
 1928 0009 000000   		.space	3
 1929              	.LC4:
 1930 000c 5649443A 		.ascii	"VID: %xh\000"
 1930      20257868 
 1930      00
 1931 0015 000000   		.space	3
 1932              	.LC5:
 1933 0018 41646472 		.ascii	"Address (#%d) assigned.\000"
 1933      65737320 
 1933      28232564 
 1933      29206173 
 1933      7369676E 
 1934              	.LC6:
 1935 0030 4D616E75 		.ascii	"Manufacturer : %s\000"
 1935      66616374 
 1935      75726572 
 1935      203A2025 
 1935      7300
 1936 0042 0000     		.space	2
 1937              	.LC7:
 1938 0044 4D616E75 		.ascii	"Manufacturer : N/A\000"
ARM GAS  /var/folders/0d/93p3r6493yg7p0rvl_4r983m0000gn/T//ccoyKrkN.s 			page 55


 1938      66616374 
 1938      75726572 
 1938      203A204E 
 1938      2F4100
 1939 0057 00       		.space	1
 1940              	.LC8:
 1941 0058 50726F64 		.ascii	"Product : %s\000"
 1941      75637420 
 1941      3A202573 
 1941      00
 1942 0065 000000   		.space	3
 1943              	.LC9:
 1944 0068 50726F64 		.ascii	"Product : N/A\000"
 1944      75637420 
 1944      3A204E2F 
 1944      4100
 1945 0076 0000     		.space	2
 1946              	.LC10:
 1947 0078 53657269 		.ascii	"Serial Number : %s\000"
 1947      616C204E 
 1947      756D6265 
 1947      72203A20 
 1947      257300
 1948 008b 00       		.space	1
 1949              	.LC11:
 1950 008c 53657269 		.ascii	"Serial Number : N/A\000"
 1950      616C204E 
 1950      756D6265 
 1950      72203A20 
 1950      4E2F4100 
 1951              		.section	.rodata.USBH_Init.str1.4,"aMS",%progbits,1
 1952              		.align	2
 1953              	.LC12:
 1954 0000 4552524F 		.ascii	"ERROR: \000"
 1954      523A2000 
 1955              	.LC13:
 1956 0008 496E7661 		.ascii	"Invalid Host handle\000"
 1956      6C696420 
 1956      486F7374 
 1956      2068616E 
 1956      646C6500 
 1957              		.section	.rodata.USBH_LL_Disconnect.str1.4,"aMS",%progbits,1
 1958              		.align	2
 1959              	.LC31:
 1960 0000 55534220 		.ascii	"USB Device disconnected\000"
 1960      44657669 
 1960      63652064 
 1960      6973636F 
 1960      6E6E6563 
 1961              		.section	.rodata.USBH_Process.str1.4,"aMS",%progbits,1
 1962              		.align	2
 1963              	.LC22:
 1964 0000 55534220 		.ascii	"USB Device Attached\000"
 1964      44657669 
 1964      63652041 
 1964      74746163 
 1964      68656400 
ARM GAS  /var/folders/0d/93p3r6493yg7p0rvl_4r983m0000gn/T//ccoyKrkN.s 			page 56


 1965              	.LC23:
 1966 0014 456E756D 		.ascii	"Enumeration done.\000"
 1966      65726174 
 1966      696F6E20 
 1966      646F6E65 
 1966      2E00
 1967 0026 0000     		.space	2
 1968              	.LC24:
 1969 0028 54686973 		.ascii	"This device has only 1 configuration.\000"
 1969      20646576 
 1969      69636520 
 1969      68617320 
 1969      6F6E6C79 
 1970 004e 0000     		.space	2
 1971              	.LC25:
 1972 0050 44656661 		.ascii	"Default configuration set.\000"
 1972      756C7420 
 1972      636F6E66 
 1972      69677572 
 1972      6174696F 
 1973 006b 00       		.space	1
 1974              	.LC26:
 1975 006c 4E6F2043 		.ascii	"No Class has been registered.\000"
 1975      6C617373 
 1975      20686173 
 1975      20626565 
 1975      6E207265 
 1976 008a 0000     		.space	2
 1977              	.LC27:
 1978 008c 25732063 		.ascii	"%s class started.\000"
 1978      6C617373 
 1978      20737461 
 1978      72746564 
 1978      2E00
 1979 009e 0000     		.space	2
 1980              	.LC28:
 1981 00a0 44657669 		.ascii	"Device not supporting %s class.\000"
 1981      6365206E 
 1981      6F742073 
 1981      7570706F 
 1981      7274696E 
 1982              	.LC29:
 1983 00c0 4E6F2072 		.ascii	"No registered class for this device.\000"
 1983      65676973 
 1983      74657265 
 1983      6420636C 
 1983      61737320 
 1984 00e5 000000   		.space	3
 1985              	.LC30:
 1986 00e8 496E7661 		.ascii	"Invalid Class Driver.\000"
 1986      6C696420 
 1986      436C6173 
 1986      73204472 
 1986      69766572 
 1987              		.section	.rodata.USBH_RegisterClass.str1.4,"aMS",%progbits,1
 1988              		.align	2
 1989              	.LC15:
ARM GAS  /var/folders/0d/93p3r6493yg7p0rvl_4r983m0000gn/T//ccoyKrkN.s 			page 57


 1990 0000 4D617820 		.ascii	"Max Class Number reached\000"
 1990      436C6173 
 1990      73204E75 
 1990      6D626572 
 1990      20726561 
 1991 0019 000000   		.space	3
 1992              	.LC16:
 1993 001c 496E7661 		.ascii	"Invalid Class handle\000"
 1993      6C696420 
 1993      436C6173 
 1993      73206861 
 1993      6E646C65 
 1994              		.section	.rodata.USBH_SelectInterface.str1.4,"aMS",%progbits,1
 1995              		.align	2
 1996              	.LC17:
 1997 0000 53776974 		.ascii	"Switching to Interface (#%d)\000"
 1997      6368696E 
 1997      6720746F 
 1997      20496E74 
 1997      65726661 
 1998 001d 000000   		.space	3
 1999              	.LC18:
 2000 0020 436C6173 		.ascii	"Class    : %xh\000"
 2000      73202020 
 2000      203A2025 
 2000      786800
 2001 002f 00       		.space	1
 2002              	.LC19:
 2003 0030 53756243 		.ascii	"SubClass : %xh\000"
 2003      6C617373 
 2003      203A2025 
 2003      786800
 2004 003f 00       		.space	1
 2005              	.LC20:
 2006 0040 50726F74 		.ascii	"Protocol : %xh\000"
 2006      6F636F6C 
 2006      203A2025 
 2006      786800
 2007 004f 00       		.space	1
 2008              	.LC21:
 2009 0050 43616E6E 		.ascii	"Cannot Select This Interface.\000"
 2009      6F742053 
 2009      656C6563 
 2009      74205468 
 2009      69732049 
 2010              		.section	.rodata.str1.4,"aMS",%progbits,1
 2011              		.align	2
 2012              	.LC1:
 2013 0000 55534248 		.ascii	"USBH_Thread\000"
 2013      5F546872 
 2013      65616400 
 2014              		.text
 2015              	.Letext0:
 2016              		.file 2 "/usr/local/gcc_arm/gcc-arm-none-eabi-7-2017-q4-major/arm-none-eabi/include/machine/_defau
 2017              		.file 3 "/usr/local/gcc_arm/gcc-arm-none-eabi-7-2017-q4-major/arm-none-eabi/include/sys/lock.h"
 2018              		.file 4 "/usr/local/gcc_arm/gcc-arm-none-eabi-7-2017-q4-major/arm-none-eabi/include/sys/_types.h"
 2019              		.file 5 "/usr/local/gcc_arm/gcc-arm-none-eabi-7-2017-q4-major/lib/gcc/arm-none-eabi/7.2.1/include/
ARM GAS  /var/folders/0d/93p3r6493yg7p0rvl_4r983m0000gn/T//ccoyKrkN.s 			page 58


 2020              		.file 6 "/usr/local/gcc_arm/gcc-arm-none-eabi-7-2017-q4-major/arm-none-eabi/include/sys/reent.h"
 2021              		.file 7 "/usr/local/gcc_arm/gcc-arm-none-eabi-7-2017-q4-major/arm-none-eabi/include/sys/_stdint.h"
 2022              		.file 8 "/usr/local/gcc_arm/gcc-arm-none-eabi-7-2017-q4-major/arm-none-eabi/include/stdlib.h"
 2023              		.file 9 "Drivers/CMSIS/Include/core_cm4.h"
 2024              		.file 10 "Drivers/CMSIS/Device/ST/STM32F4xx/Include/system_stm32f4xx.h"
 2025              		.file 11 "Middlewares/Third_Party/FreeRTOS/Source/include/task.h"
 2026              		.file 12 "Middlewares/Third_Party/FreeRTOS/Source/include/queue.h"
 2027              		.file 13 "Middlewares/Third_Party/FreeRTOS/Source/CMSIS_RTOS/cmsis_os.h"
 2028              		.file 14 "Middlewares/ST/STM32_USB_Host_Library/Core/Inc/usbh_def.h"
 2029              		.file 15 "Middlewares/ST/STM32_USB_Host_Library/Core/Inc/usbh_ctlreq.h"
 2030              		.file 16 "Middlewares/ST/STM32_USB_Host_Library/Core/Inc/usbh_core.h"
 2031              		.file 17 "Middlewares/ST/STM32_USB_Host_Library/Core/Inc/usbh_pipes.h"
 2032              		.file 18 "/usr/local/gcc_arm/gcc-arm-none-eabi-7-2017-q4-major/arm-none-eabi/include/stdio.h"
 2033              		.file 19 "<built-in>"
ARM GAS  /var/folders/0d/93p3r6493yg7p0rvl_4r983m0000gn/T//ccoyKrkN.s 			page 59

