ARM GAS  /var/folders/0d/93p3r6493yg7p0rvl_4r983m0000gn/T//cc80w2Xo.s 			page 1


   1              		.cpu cortex-m4
   2              		.eabi_attribute 27, 1
   3              		.eabi_attribute 28, 1
   4              		.eabi_attribute 20, 1
   5              		.eabi_attribute 21, 1
   6              		.eabi_attribute 23, 3
   7              		.eabi_attribute 24, 1
   8              		.eabi_attribute 25, 1
   9              		.eabi_attribute 26, 1
  10              		.eabi_attribute 30, 1
  11              		.eabi_attribute 34, 1
  12              		.eabi_attribute 18, 4
  13              		.file	"yuarel.c"
  14              		.text
  15              	.Ltext0:
  16              		.cfi_sections	.debug_frame
  17              		.section	.text.yuarel_parse,"ax",%progbits
  18              		.align	1
  19              		.global	yuarel_parse
  20              		.syntax unified
  21              		.thumb
  22              		.thumb_func
  23              		.fpu fpv4-sp-d16
  25              	yuarel_parse:
  26              	.LFB10:
  27              		.file 1 "Src/communication/yuarel.c"
   1:Src/communication/yuarel.c **** /**
   2:Src/communication/yuarel.c ****  * Copyright (C) 2016,2017 Jack Engqvist Johansson
   3:Src/communication/yuarel.c ****  *
   4:Src/communication/yuarel.c ****  * Permission is hereby granted, free of charge, to any person obtaining a copy
   5:Src/communication/yuarel.c ****  * of this software and associated documentation files (the "Software"), to deal
   6:Src/communication/yuarel.c ****  * in the Software without restriction, including without limitation the rights
   7:Src/communication/yuarel.c ****  * to use, copy, modify, merge, publish, distribute, sublicense, and/or sell
   8:Src/communication/yuarel.c ****  * copies of the Software, and to permit persons to whom the Software is
   9:Src/communication/yuarel.c ****  * furnished to do so, subject to the following conditions:
  10:Src/communication/yuarel.c ****  *
  11:Src/communication/yuarel.c ****  * The above copyright notice and this permission notice shall be included in all
  12:Src/communication/yuarel.c ****  * copies or substantial portions of the Software.
  13:Src/communication/yuarel.c ****  *
  14:Src/communication/yuarel.c ****  * THE SOFTWARE IS PROVIDED "AS IS", WITHOUT WARRANTY OF ANY KIND, EXPRESS OR
  15:Src/communication/yuarel.c ****  * IMPLIED, INCLUDING BUT NOT LIMITED TO THE WARRANTIES OF MERCHANTABILITY,
  16:Src/communication/yuarel.c ****  * FITNESS FOR A PARTICULAR PURPOSE AND NONINFRINGEMENT. IN NO EVENT SHALL THE
  17:Src/communication/yuarel.c ****  * AUTHORS OR COPYRIGHT HOLDERS BE LIABLE FOR ANY CLAIM, DAMAGES OR OTHER
  18:Src/communication/yuarel.c ****  * LIABILITY, WHETHER IN AN ACTION OF CONTRACT, TORT OR OTHERWISE, ARISING FROM,
  19:Src/communication/yuarel.c ****  * OUT OF OR IN CONNECTION WITH THE SOFTWARE OR THE USE OR OTHER DEALINGS IN THE
  20:Src/communication/yuarel.c ****  * SOFTWARE.
  21:Src/communication/yuarel.c ****  */
  22:Src/communication/yuarel.c **** #include <stdlib.h>
  23:Src/communication/yuarel.c **** #include <stdio.h>
  24:Src/communication/yuarel.c **** #include <string.h>
  25:Src/communication/yuarel.c **** #include "yuarel.h"
  26:Src/communication/yuarel.c **** 
  27:Src/communication/yuarel.c **** /**
  28:Src/communication/yuarel.c ****  * Parse a non null terminated string into an integer.
  29:Src/communication/yuarel.c ****  *
  30:Src/communication/yuarel.c ****  * str: the string containing the number.
  31:Src/communication/yuarel.c ****  * len: Number of characters to parse.
ARM GAS  /var/folders/0d/93p3r6493yg7p0rvl_4r983m0000gn/T//cc80w2Xo.s 			page 2


  32:Src/communication/yuarel.c ****  */
  33:Src/communication/yuarel.c **** static inline int
  34:Src/communication/yuarel.c **** natoi(const char *str, size_t len)
  35:Src/communication/yuarel.c **** {
  36:Src/communication/yuarel.c **** 	int i, r = 0;
  37:Src/communication/yuarel.c **** 	for (i = 0; i < len; i++) {
  38:Src/communication/yuarel.c **** 		r *= 10;
  39:Src/communication/yuarel.c **** 		r += str[i] - '0';
  40:Src/communication/yuarel.c **** 	}
  41:Src/communication/yuarel.c **** 
  42:Src/communication/yuarel.c **** 	return r;
  43:Src/communication/yuarel.c **** }
  44:Src/communication/yuarel.c **** 
  45:Src/communication/yuarel.c **** /**
  46:Src/communication/yuarel.c ****  * Check if a URL is relative (no scheme and hostname).
  47:Src/communication/yuarel.c ****  *
  48:Src/communication/yuarel.c ****  * url: the string containing the URL to check.
  49:Src/communication/yuarel.c ****  *
  50:Src/communication/yuarel.c ****  * Returns 1 if relative, otherwise 0.
  51:Src/communication/yuarel.c ****  */
  52:Src/communication/yuarel.c **** static inline int
  53:Src/communication/yuarel.c **** is_relative(const char *url)
  54:Src/communication/yuarel.c **** {
  55:Src/communication/yuarel.c **** 	return (*url == '/') ? 1 : 0;
  56:Src/communication/yuarel.c **** }
  57:Src/communication/yuarel.c **** 
  58:Src/communication/yuarel.c **** /**
  59:Src/communication/yuarel.c ****  * Parse the scheme of a URL by inserting a null terminator after the scheme.
  60:Src/communication/yuarel.c ****  *
  61:Src/communication/yuarel.c ****  * str: the string containing the URL to parse. Will be modified.
  62:Src/communication/yuarel.c ****  *
  63:Src/communication/yuarel.c ****  * Returns a pointer to the hostname on success, otherwise NULL.
  64:Src/communication/yuarel.c ****  */
  65:Src/communication/yuarel.c **** static inline char *
  66:Src/communication/yuarel.c **** parse_scheme(char *str)
  67:Src/communication/yuarel.c **** {
  68:Src/communication/yuarel.c **** 	char *s;
  69:Src/communication/yuarel.c **** 
  70:Src/communication/yuarel.c **** 	/* If not found or first in string, return error */
  71:Src/communication/yuarel.c **** 	s = strchr(str, ':');
  72:Src/communication/yuarel.c **** 	if (s == NULL || s == str) {
  73:Src/communication/yuarel.c **** 		return str;
  74:Src/communication/yuarel.c **** 	}
  75:Src/communication/yuarel.c **** 
  76:Src/communication/yuarel.c **** 	/* If not followed by two slashes, return error */
  77:Src/communication/yuarel.c **** 	if (s[1] == '\0' || s[1] != '/' || s[2] == '\0' || s[2] != '/') {
  78:Src/communication/yuarel.c **** 		return NULL;
  79:Src/communication/yuarel.c **** 	}
  80:Src/communication/yuarel.c **** 
  81:Src/communication/yuarel.c **** 	*s = '\0'; // Replace ':' with NULL
  82:Src/communication/yuarel.c **** 
  83:Src/communication/yuarel.c **** 	return s + 3;
  84:Src/communication/yuarel.c **** }
  85:Src/communication/yuarel.c **** 
  86:Src/communication/yuarel.c **** /**
  87:Src/communication/yuarel.c ****  * Find a character in a string, replace it with '\0' and return the next
  88:Src/communication/yuarel.c ****  * character in the string.
ARM GAS  /var/folders/0d/93p3r6493yg7p0rvl_4r983m0000gn/T//cc80w2Xo.s 			page 3


  89:Src/communication/yuarel.c ****  *
  90:Src/communication/yuarel.c ****  * str: the string to search in.
  91:Src/communication/yuarel.c ****  * find: the character to search for.
  92:Src/communication/yuarel.c ****  *
  93:Src/communication/yuarel.c ****  * Returns a pointer to the character after the one to search for. If not
  94:Src/communication/yuarel.c ****  * found, NULL is returned.
  95:Src/communication/yuarel.c ****  */
  96:Src/communication/yuarel.c **** static inline char *
  97:Src/communication/yuarel.c **** find_and_terminate(char *str, char find)
  98:Src/communication/yuarel.c **** {
  99:Src/communication/yuarel.c **** 	str = strchr(str, find);
 100:Src/communication/yuarel.c **** 	if (NULL == str) {
 101:Src/communication/yuarel.c **** 		return NULL;
 102:Src/communication/yuarel.c **** 	}
 103:Src/communication/yuarel.c **** 
 104:Src/communication/yuarel.c **** 	*str = '\0';
 105:Src/communication/yuarel.c **** 	return str + 1;
 106:Src/communication/yuarel.c **** }
 107:Src/communication/yuarel.c **** 
 108:Src/communication/yuarel.c **** /* Yes, the following functions could be implemented as preprocessor macros
 109:Src/communication/yuarel.c ****      instead of inline functions, but I think that this approach will be more
 110:Src/communication/yuarel.c ****      clean in this case. */
 111:Src/communication/yuarel.c **** static inline char *
 112:Src/communication/yuarel.c **** find_fragment(char *str)
 113:Src/communication/yuarel.c **** {
 114:Src/communication/yuarel.c **** 	return find_and_terminate(str, '#');
 115:Src/communication/yuarel.c **** }
 116:Src/communication/yuarel.c **** 
 117:Src/communication/yuarel.c **** static inline char *
 118:Src/communication/yuarel.c **** find_query(char *str)
 119:Src/communication/yuarel.c **** {
 120:Src/communication/yuarel.c **** 	return find_and_terminate(str, '?');
 121:Src/communication/yuarel.c **** }
 122:Src/communication/yuarel.c **** 
 123:Src/communication/yuarel.c **** static inline char *
 124:Src/communication/yuarel.c **** find_path(char *str)
 125:Src/communication/yuarel.c **** {
 126:Src/communication/yuarel.c **** 	return find_and_terminate(str, '/');
 127:Src/communication/yuarel.c **** }
 128:Src/communication/yuarel.c **** 
 129:Src/communication/yuarel.c **** /**
 130:Src/communication/yuarel.c ****  * Parse a URL string to a struct.
 131:Src/communication/yuarel.c ****  *
 132:Src/communication/yuarel.c ****  * url: pointer to the struct where to store the parsed URL parts.
 133:Src/communication/yuarel.c ****  * u:   the string containing the URL to be parsed.
 134:Src/communication/yuarel.c ****  *
 135:Src/communication/yuarel.c ****  * Returns 0 on success, otherwise -1.
 136:Src/communication/yuarel.c ****  */
 137:Src/communication/yuarel.c **** int
 138:Src/communication/yuarel.c **** yuarel_parse(struct yuarel *url, char *u)
 139:Src/communication/yuarel.c **** {
  28              		.loc 1 139 0
  29              		.cfi_startproc
  30              		@ args = 0, pretend = 0, frame = 0
  31              		@ frame_needed = 0, uses_anonymous_args = 0
  32              	.LVL0:
 140:Src/communication/yuarel.c **** 	if (NULL == url || NULL == u) {
ARM GAS  /var/folders/0d/93p3r6493yg7p0rvl_4r983m0000gn/T//cc80w2Xo.s 			page 4


  33              		.loc 1 140 0
  34 0000 0028     		cmp	r0, #0
  35 0002 00F09C80 		beq	.L15
 139:Src/communication/yuarel.c **** 	if (NULL == url || NULL == u) {
  36              		.loc 1 139 0 discriminator 1
  37 0006 38B5     		push	{r3, r4, r5, lr}
  38              	.LCFI0:
  39              		.cfi_def_cfa_offset 16
  40              		.cfi_offset 3, -16
  41              		.cfi_offset 4, -12
  42              		.cfi_offset 5, -8
  43              		.cfi_offset 14, -4
  44 0008 0D46     		mov	r5, r1
  45 000a 0446     		mov	r4, r0
  46              		.loc 1 140 0 discriminator 1
  47 000c 0029     		cmp	r1, #0
  48 000e 00F09980 		beq	.L16
 141:Src/communication/yuarel.c **** 		return -1;
 142:Src/communication/yuarel.c **** 	}
 143:Src/communication/yuarel.c **** 
 144:Src/communication/yuarel.c **** 	memset(url, 0, sizeof (struct yuarel));
  49              		.loc 1 144 0
  50 0012 2022     		movs	r2, #32
  51 0014 0021     		movs	r1, #0
  52              	.LVL1:
  53 0016 FFF7FEFF 		bl	memset
  54              	.LVL2:
  55              	.LBB46:
  56              	.LBB47:
  57              	.LBB48:
  99:Src/communication/yuarel.c **** 	if (NULL == str) {
  58              		.loc 1 99 0
  59 001a 2321     		movs	r1, #35
  60 001c 2846     		mov	r0, r5
  61 001e FFF7FEFF 		bl	strchr
  62              	.LVL3:
 100:Src/communication/yuarel.c **** 		return NULL;
  63              		.loc 1 100 0
  64 0022 0346     		mov	r3, r0
  65 0024 10B1     		cbz	r0, .L3
 104:Src/communication/yuarel.c **** 	return str + 1;
  66              		.loc 1 104 0
  67 0026 0022     		movs	r2, #0
  68 0028 03F8012B 		strb	r2, [r3], #1
  69              	.L3:
  70              	.LVL4:
  71              	.LBE48:
  72              	.LBE47:
  73              	.LBE46:
 145:Src/communication/yuarel.c **** 
 146:Src/communication/yuarel.c **** 	/* (Fragment) */
 147:Src/communication/yuarel.c **** 	url->fragment = find_fragment(u);
  74              		.loc 1 147 0
  75 002c E361     		str	r3, [r4, #28]
  76              	.LVL5:
  77              	.LBB49:
  78              	.LBB50:
ARM GAS  /var/folders/0d/93p3r6493yg7p0rvl_4r983m0000gn/T//cc80w2Xo.s 			page 5


  79              	.LBB51:
  99:Src/communication/yuarel.c **** 	if (NULL == str) {
  80              		.loc 1 99 0
  81 002e 3F21     		movs	r1, #63
  82 0030 2846     		mov	r0, r5
  83 0032 FFF7FEFF 		bl	strchr
  84              	.LVL6:
 100:Src/communication/yuarel.c **** 		return NULL;
  85              		.loc 1 100 0
  86 0036 0346     		mov	r3, r0
  87 0038 10B1     		cbz	r0, .L4
 104:Src/communication/yuarel.c **** 	return str + 1;
  88              		.loc 1 104 0
  89 003a 0022     		movs	r2, #0
  90 003c 03F8012B 		strb	r2, [r3], #1
  91              	.L4:
  92              	.LVL7:
  93              	.LBE51:
  94              	.LBE50:
  95              	.LBE49:
 148:Src/communication/yuarel.c **** 
 149:Src/communication/yuarel.c **** 	/* (Query) */
 150:Src/communication/yuarel.c **** 	url->query = find_query(u);
  96              		.loc 1 150 0
  97 0040 A361     		str	r3, [r4, #24]
  98              	.LVL8:
  99              	.LBB52:
 100              	.LBB53:
  55:Src/communication/yuarel.c **** }
 101              		.loc 1 55 0
 102 0042 2B78     		ldrb	r3, [r5]	@ zero_extendqisi2
 103              	.LVL9:
 104              	.LBE53:
 105              	.LBE52:
 151:Src/communication/yuarel.c **** 
 152:Src/communication/yuarel.c **** 	/* Relative URL? Parse scheme and hostname */
 153:Src/communication/yuarel.c **** 	if (!is_relative(u)) {
 106              		.loc 1 153 0
 107 0044 2F2B     		cmp	r3, #47
 108 0046 0BD1     		bne	.L31
 109              	.LVL10:
 110              	.LBB54:
 111              	.LBB55:
 112              	.LBB56:
  99:Src/communication/yuarel.c **** 	if (NULL == str) {
 113              		.loc 1 99 0
 114 0048 2F21     		movs	r1, #47
 115 004a 2846     		mov	r0, r5
 116 004c FFF7FEFF 		bl	strchr
 117              	.LVL11:
 100:Src/communication/yuarel.c **** 		return NULL;
 118              		.loc 1 100 0
 119 0050 0346     		mov	r3, r0
 120 0052 10B1     		cbz	r0, .L14
 104:Src/communication/yuarel.c **** 	return str + 1;
 121              		.loc 1 104 0
 122 0054 0022     		movs	r2, #0
ARM GAS  /var/folders/0d/93p3r6493yg7p0rvl_4r983m0000gn/T//cc80w2Xo.s 			page 6


 123 0056 03F8012B 		strb	r2, [r3], #1
 124              	.L14:
 125              	.LVL12:
 126              	.LBE56:
 127              	.LBE55:
 128              	.LBE54:
 154:Src/communication/yuarel.c **** 		/* Scheme */
 155:Src/communication/yuarel.c **** 		url->scheme = u;
 156:Src/communication/yuarel.c **** 		u = parse_scheme(u);
 157:Src/communication/yuarel.c **** 		if (u == NULL) {
 158:Src/communication/yuarel.c **** 			return -1;
 159:Src/communication/yuarel.c **** 		}
 160:Src/communication/yuarel.c **** 
 161:Src/communication/yuarel.c **** 		/* Host */
 162:Src/communication/yuarel.c **** 		if ('\0' == *u) {
 163:Src/communication/yuarel.c **** 			return -1;
 164:Src/communication/yuarel.c **** 		}
 165:Src/communication/yuarel.c **** 		url->host = u;
 166:Src/communication/yuarel.c **** 
 167:Src/communication/yuarel.c **** 		/* (Path) */
 168:Src/communication/yuarel.c **** 		url->path = find_path(u);
 169:Src/communication/yuarel.c **** 
 170:Src/communication/yuarel.c **** 		/* (Credentials) */
 171:Src/communication/yuarel.c **** 		u = strchr(url->host, '@');
 172:Src/communication/yuarel.c **** 		if (NULL != u) {
 173:Src/communication/yuarel.c **** 			/* Missing credentials? */
 174:Src/communication/yuarel.c **** 			if (u == url->host) {
 175:Src/communication/yuarel.c **** 				return -1;
 176:Src/communication/yuarel.c **** 			}
 177:Src/communication/yuarel.c **** 
 178:Src/communication/yuarel.c **** 			url->username = url->host;
 179:Src/communication/yuarel.c **** 			url->host = u + 1;
 180:Src/communication/yuarel.c **** 			*u = '\0';
 181:Src/communication/yuarel.c **** 
 182:Src/communication/yuarel.c **** 			u = strchr(url->username, ':');
 183:Src/communication/yuarel.c **** 			if (NULL == u) {
 184:Src/communication/yuarel.c **** 				return -1;
 185:Src/communication/yuarel.c **** 			}
 186:Src/communication/yuarel.c **** 
 187:Src/communication/yuarel.c **** 			url->password = u + 1;
 188:Src/communication/yuarel.c **** 			*u = '\0';
 189:Src/communication/yuarel.c **** 		}
 190:Src/communication/yuarel.c **** 
 191:Src/communication/yuarel.c **** 		/* Missing hostname? */
 192:Src/communication/yuarel.c **** 		if ('\0' == *url->host) {
 193:Src/communication/yuarel.c **** 			return -1;
 194:Src/communication/yuarel.c **** 		}
 195:Src/communication/yuarel.c **** 
 196:Src/communication/yuarel.c **** 		/* (Port) */
 197:Src/communication/yuarel.c **** 		u = strchr(url->host, ':');
 198:Src/communication/yuarel.c **** 		if (NULL != u && (NULL == url->path || u < url->path)) {
 199:Src/communication/yuarel.c **** 			*(u++) = '\0';
 200:Src/communication/yuarel.c **** 			if ('\0' == *u) {
 201:Src/communication/yuarel.c **** 				return -1;
 202:Src/communication/yuarel.c **** 			}
 203:Src/communication/yuarel.c **** 
 204:Src/communication/yuarel.c **** 			if (url->path) {
ARM GAS  /var/folders/0d/93p3r6493yg7p0rvl_4r983m0000gn/T//cc80w2Xo.s 			page 7


 205:Src/communication/yuarel.c **** 				url->port = natoi(u, url->path - u - 1);
 206:Src/communication/yuarel.c **** 			} else {
 207:Src/communication/yuarel.c **** 				url->port = atoi(u);
 208:Src/communication/yuarel.c **** 			}
 209:Src/communication/yuarel.c **** 		}
 210:Src/communication/yuarel.c **** 
 211:Src/communication/yuarel.c **** 		/* Missing hostname? */
 212:Src/communication/yuarel.c **** 		if ('\0' == *url->host) {
 213:Src/communication/yuarel.c **** 			return -1;
 214:Src/communication/yuarel.c **** 		}
 215:Src/communication/yuarel.c **** 	} else {
 216:Src/communication/yuarel.c **** 		/* (Path) */
 217:Src/communication/yuarel.c **** 		url->path = find_path(u);
 129              		.loc 1 217 0
 130 005a 6361     		str	r3, [r4, #20]
 218:Src/communication/yuarel.c **** 	}
 219:Src/communication/yuarel.c **** 
 220:Src/communication/yuarel.c **** 	return 0;
 131              		.loc 1 220 0
 132 005c 0020     		movs	r0, #0
 133              	.LVL13:
 134              	.L1:
 221:Src/communication/yuarel.c **** }
 135              		.loc 1 221 0
 136 005e 38BD     		pop	{r3, r4, r5, pc}
 137              	.LVL14:
 138              	.L31:
 155:Src/communication/yuarel.c **** 		u = parse_scheme(u);
 139              		.loc 1 155 0
 140 0060 2560     		str	r5, [r4]
 141              	.LVL15:
 142              	.LBB57:
 143              	.LBB58:
  71:Src/communication/yuarel.c **** 	if (s == NULL || s == str) {
 144              		.loc 1 71 0
 145 0062 3A21     		movs	r1, #58
 146 0064 2846     		mov	r0, r5
 147 0066 FFF7FEFF 		bl	strchr
 148              	.LVL16:
  72:Src/communication/yuarel.c **** 		return str;
 149              		.loc 1 72 0
 150 006a 68B1     		cbz	r0, .L6
 151 006c 8542     		cmp	r5, r0
 152 006e 0BD0     		beq	.L6
  77:Src/communication/yuarel.c **** 		return NULL;
 153              		.loc 1 77 0
 154 0070 4278     		ldrb	r2, [r0, #1]	@ zero_extendqisi2
 155 0072 2F2A     		cmp	r2, #47
 156 0074 47D1     		bne	.L17
 157 0076 8278     		ldrb	r2, [r0, #2]	@ zero_extendqisi2
 158 0078 002A     		cmp	r2, #0
 159 007a 46D0     		beq	.L18
 160 007c 2F2A     		cmp	r2, #47
 161 007e 46D1     		bne	.L19
  81:Src/communication/yuarel.c **** 
 162              		.loc 1 81 0
 163 0080 0546     		mov	r5, r0
ARM GAS  /var/folders/0d/93p3r6493yg7p0rvl_4r983m0000gn/T//cc80w2Xo.s 			page 8


 164              	.LVL17:
 165 0082 0023     		movs	r3, #0
 166 0084 05F8033B 		strb	r3, [r5], #3
 167              	.L6:
 168              	.LVL18:
 169              	.LBE58:
 170              	.LBE57:
 157:Src/communication/yuarel.c **** 			return -1;
 171              		.loc 1 157 0
 172 0088 002D     		cmp	r5, #0
 173 008a 5ED0     		beq	.L20
 162:Src/communication/yuarel.c **** 			return -1;
 174              		.loc 1 162 0
 175 008c 2B78     		ldrb	r3, [r5]	@ zero_extendqisi2
 176 008e 002B     		cmp	r3, #0
 177 0090 5ED0     		beq	.L21
 165:Src/communication/yuarel.c **** 
 178              		.loc 1 165 0
 179 0092 E560     		str	r5, [r4, #12]
 180              	.LVL19:
 181              	.LBB60:
 182              	.LBB61:
 183              	.LBB62:
  99:Src/communication/yuarel.c **** 	if (NULL == str) {
 184              		.loc 1 99 0
 185 0094 2F21     		movs	r1, #47
 186 0096 2846     		mov	r0, r5
 187 0098 FFF7FEFF 		bl	strchr
 188              	.LVL20:
 100:Src/communication/yuarel.c **** 		return NULL;
 189              		.loc 1 100 0
 190 009c 0346     		mov	r3, r0
 191 009e 10B1     		cbz	r0, .L7
 104:Src/communication/yuarel.c **** 	return str + 1;
 192              		.loc 1 104 0
 193 00a0 0022     		movs	r2, #0
 194 00a2 03F8012B 		strb	r2, [r3], #1
 195              	.L7:
 196              	.LVL21:
 197              	.LBE62:
 198              	.LBE61:
 199              	.LBE60:
 168:Src/communication/yuarel.c **** 
 200              		.loc 1 168 0
 201 00a6 6361     		str	r3, [r4, #20]
 171:Src/communication/yuarel.c **** 		if (NULL != u) {
 202              		.loc 1 171 0
 203 00a8 E568     		ldr	r5, [r4, #12]
 204 00aa 4021     		movs	r1, #64
 205 00ac 2846     		mov	r0, r5
 206 00ae FFF7FEFF 		bl	strchr
 207              	.LVL22:
 172:Src/communication/yuarel.c **** 			/* Missing credentials? */
 208              		.loc 1 172 0
 209 00b2 80B1     		cbz	r0, .L8
 174:Src/communication/yuarel.c **** 				return -1;
 210              		.loc 1 174 0
ARM GAS  /var/folders/0d/93p3r6493yg7p0rvl_4r983m0000gn/T//cc80w2Xo.s 			page 9


 211 00b4 8542     		cmp	r5, r0
 212 00b6 4ED0     		beq	.L22
 178:Src/communication/yuarel.c **** 			url->host = u + 1;
 213              		.loc 1 178 0
 214 00b8 6560     		str	r5, [r4, #4]
 179:Src/communication/yuarel.c **** 			*u = '\0';
 215              		.loc 1 179 0
 216 00ba 421C     		adds	r2, r0, #1
 217 00bc E260     		str	r2, [r4, #12]
 180:Src/communication/yuarel.c **** 
 218              		.loc 1 180 0
 219 00be 0022     		movs	r2, #0
 220 00c0 0270     		strb	r2, [r0]
 182:Src/communication/yuarel.c **** 			if (NULL == u) {
 221              		.loc 1 182 0
 222 00c2 3A21     		movs	r1, #58
 223 00c4 6068     		ldr	r0, [r4, #4]
 224              	.LVL23:
 225 00c6 FFF7FEFF 		bl	strchr
 226              	.LVL24:
 183:Src/communication/yuarel.c **** 				return -1;
 227              		.loc 1 183 0
 228 00ca 0028     		cmp	r0, #0
 229 00cc 46D0     		beq	.L23
 187:Src/communication/yuarel.c **** 			*u = '\0';
 230              		.loc 1 187 0
 231 00ce 421C     		adds	r2, r0, #1
 232 00d0 A260     		str	r2, [r4, #8]
 188:Src/communication/yuarel.c **** 		}
 233              		.loc 1 188 0
 234 00d2 0022     		movs	r2, #0
 235 00d4 0270     		strb	r2, [r0]
 236              	.L8:
 192:Src/communication/yuarel.c **** 			return -1;
 237              		.loc 1 192 0
 238 00d6 E068     		ldr	r0, [r4, #12]
 239              	.LVL25:
 240 00d8 0378     		ldrb	r3, [r0]	@ zero_extendqisi2
 241 00da 002B     		cmp	r3, #0
 242 00dc 41D0     		beq	.L24
 197:Src/communication/yuarel.c **** 		if (NULL != u && (NULL == url->path || u < url->path)) {
 243              		.loc 1 197 0
 244 00de 3A21     		movs	r1, #58
 245 00e0 FFF7FEFF 		bl	strchr
 246              	.LVL26:
 198:Src/communication/yuarel.c **** 			*(u++) = '\0';
 247              		.loc 1 198 0
 248 00e4 0346     		mov	r3, r0
 249 00e6 F0B1     		cbz	r0, .L9
 198:Src/communication/yuarel.c **** 			*(u++) = '\0';
 250              		.loc 1 198 0 is_stmt 0 discriminator 1
 251 00e8 6269     		ldr	r2, [r4, #20]
 252 00ea 0AB1     		cbz	r2, .L10
 198:Src/communication/yuarel.c **** 			*(u++) = '\0';
 253              		.loc 1 198 0 discriminator 2
 254 00ec 8242     		cmp	r2, r0
 255 00ee 1AD9     		bls	.L9
ARM GAS  /var/folders/0d/93p3r6493yg7p0rvl_4r983m0000gn/T//cc80w2Xo.s 			page 10


 256              	.L10:
 199:Src/communication/yuarel.c **** 			if ('\0' == *u) {
 257              		.loc 1 199 0 is_stmt 1
 258 00f0 581C     		adds	r0, r3, #1
 259              	.LVL27:
 260 00f2 0022     		movs	r2, #0
 261 00f4 1A70     		strb	r2, [r3]
 200:Src/communication/yuarel.c **** 				return -1;
 262              		.loc 1 200 0
 263 00f6 5B78     		ldrb	r3, [r3, #1]	@ zero_extendqisi2
 264 00f8 B3B3     		cbz	r3, .L25
 204:Src/communication/yuarel.c **** 				url->port = natoi(u, url->path - u - 1);
 265              		.loc 1 204 0
 266 00fa 6569     		ldr	r5, [r4, #20]
 267 00fc C5B1     		cbz	r5, .L11
 205:Src/communication/yuarel.c **** 			} else {
 268              		.loc 1 205 0
 269 00fe 2D1A     		subs	r5, r5, r0
 270 0100 013D     		subs	r5, r5, #1
 271              	.LVL28:
 272              	.LBB63:
 273              	.LBB64:
  36:Src/communication/yuarel.c **** 	for (i = 0; i < len; i++) {
 274              		.loc 1 36 0
 275 0102 1346     		mov	r3, r2
 276 0104 0CE0     		b	.L12
 277              	.LVL29:
 278              	.L17:
 279              	.LBE64:
 280              	.LBE63:
 281              	.LBB66:
 282              	.LBB59:
  78:Src/communication/yuarel.c **** 	}
 283              		.loc 1 78 0
 284 0106 0025     		movs	r5, #0
 285              	.LVL30:
 286 0108 BEE7     		b	.L6
 287              	.LVL31:
 288              	.L18:
 289 010a 0025     		movs	r5, #0
 290              	.LVL32:
 291 010c BCE7     		b	.L6
 292              	.LVL33:
 293              	.L19:
 294 010e 0025     		movs	r5, #0
 295              	.LVL34:
 296 0110 BAE7     		b	.L6
 297              	.LVL35:
 298              	.L13:
 299              	.LBE59:
 300              	.LBE66:
 301              	.LBB67:
 302              	.LBB65:
  38:Src/communication/yuarel.c **** 		r += str[i] - '0';
 303              		.loc 1 38 0
 304 0112 03EB8303 		add	r3, r3, r3, lsl #2
 305              	.LVL36:
ARM GAS  /var/folders/0d/93p3r6493yg7p0rvl_4r983m0000gn/T//cc80w2Xo.s 			page 11


 306 0116 5900     		lsls	r1, r3, #1
 307              	.LVL37:
  39:Src/communication/yuarel.c **** 	}
 308              		.loc 1 39 0
 309 0118 835C     		ldrb	r3, [r0, r2]	@ zero_extendqisi2
 310 011a 303B     		subs	r3, r3, #48
 311 011c 0B44     		add	r3, r3, r1
 312              	.LVL38:
  37:Src/communication/yuarel.c **** 		r *= 10;
 313              		.loc 1 37 0
 314 011e 0132     		adds	r2, r2, #1
 315              	.LVL39:
 316              	.L12:
 317 0120 9542     		cmp	r5, r2
 318 0122 F6D8     		bhi	.L13
 319              	.LVL40:
 320              	.LBE65:
 321              	.LBE67:
 205:Src/communication/yuarel.c **** 			} else {
 322              		.loc 1 205 0
 323 0124 2361     		str	r3, [r4, #16]
 324              	.LVL41:
 325              	.L9:
 212:Src/communication/yuarel.c **** 			return -1;
 326              		.loc 1 212 0
 327 0126 E368     		ldr	r3, [r4, #12]
 328 0128 1B78     		ldrb	r3, [r3]	@ zero_extendqisi2
 329 012a 2BB1     		cbz	r3, .L32
 220:Src/communication/yuarel.c **** }
 330              		.loc 1 220 0
 331 012c 0020     		movs	r0, #0
 332 012e 96E7     		b	.L1
 333              	.LVL42:
 334              	.L11:
 207:Src/communication/yuarel.c **** 			}
 335              		.loc 1 207 0
 336 0130 FFF7FEFF 		bl	atoi
 337              	.LVL43:
 338 0134 2061     		str	r0, [r4, #16]
 339 0136 F6E7     		b	.L9
 340              	.L32:
 213:Src/communication/yuarel.c **** 		}
 341              		.loc 1 213 0
 342 0138 4FF0FF30 		mov	r0, #-1
 343 013c 8FE7     		b	.L1
 344              	.LVL44:
 345              	.L15:
 346              	.LCFI1:
 347              		.cfi_def_cfa_offset 0
 348              		.cfi_restore 3
 349              		.cfi_restore 4
 350              		.cfi_restore 5
 351              		.cfi_restore 14
 141:Src/communication/yuarel.c **** 	}
 352              		.loc 1 141 0
 353 013e 4FF0FF30 		mov	r0, #-1
 354              	.LVL45:
ARM GAS  /var/folders/0d/93p3r6493yg7p0rvl_4r983m0000gn/T//cc80w2Xo.s 			page 12


 355              		.loc 1 221 0
 356 0142 7047     		bx	lr
 357              	.LVL46:
 358              	.L16:
 359              	.LCFI2:
 360              		.cfi_def_cfa_offset 16
 361              		.cfi_offset 3, -16
 362              		.cfi_offset 4, -12
 363              		.cfi_offset 5, -8
 364              		.cfi_offset 14, -4
 141:Src/communication/yuarel.c **** 	}
 365              		.loc 1 141 0
 366 0144 4FF0FF30 		mov	r0, #-1
 367              	.LVL47:
 368 0148 89E7     		b	.L1
 369              	.LVL48:
 370              	.L20:
 158:Src/communication/yuarel.c **** 		}
 371              		.loc 1 158 0
 372 014a 4FF0FF30 		mov	r0, #-1
 373 014e 86E7     		b	.L1
 374              	.L21:
 163:Src/communication/yuarel.c **** 		}
 375              		.loc 1 163 0
 376 0150 4FF0FF30 		mov	r0, #-1
 377 0154 83E7     		b	.L1
 378              	.LVL49:
 379              	.L22:
 175:Src/communication/yuarel.c **** 			}
 380              		.loc 1 175 0
 381 0156 4FF0FF30 		mov	r0, #-1
 382              	.LVL50:
 383 015a 80E7     		b	.L1
 384              	.LVL51:
 385              	.L23:
 184:Src/communication/yuarel.c **** 			}
 386              		.loc 1 184 0
 387 015c 4FF0FF30 		mov	r0, #-1
 388              	.LVL52:
 389 0160 7DE7     		b	.L1
 390              	.L24:
 193:Src/communication/yuarel.c **** 		}
 391              		.loc 1 193 0
 392 0162 4FF0FF30 		mov	r0, #-1
 393 0166 7AE7     		b	.L1
 394              	.LVL53:
 395              	.L25:
 201:Src/communication/yuarel.c **** 			}
 396              		.loc 1 201 0
 397 0168 4FF0FF30 		mov	r0, #-1
 398              	.LVL54:
 399 016c 77E7     		b	.L1
 400              		.cfi_endproc
 401              	.LFE10:
 403              		.section	.text.yuarel_split_path,"ax",%progbits
 404              		.align	1
 405              		.global	yuarel_split_path
ARM GAS  /var/folders/0d/93p3r6493yg7p0rvl_4r983m0000gn/T//cc80w2Xo.s 			page 13


 406              		.syntax unified
 407              		.thumb
 408              		.thumb_func
 409              		.fpu fpv4-sp-d16
 411              	yuarel_split_path:
 412              	.LFB11:
 222:Src/communication/yuarel.c **** 
 223:Src/communication/yuarel.c **** /**
 224:Src/communication/yuarel.c ****  * Split a path into several strings.
 225:Src/communication/yuarel.c ****  *
 226:Src/communication/yuarel.c ****  * No data is copied, the slashed are used as null terminators and then
 227:Src/communication/yuarel.c ****  * pointers to each path part will be stored in **parts. Double slashes will be
 228:Src/communication/yuarel.c ****  * treated as one.
 229:Src/communication/yuarel.c ****  *
 230:Src/communication/yuarel.c ****  * path: the path to split.
 231:Src/communication/yuarel.c ****  * parts: a pointer to an array of (char *) where to store the result.
 232:Src/communication/yuarel.c ****  * max_parts: max number of parts to parse.
 233:Src/communication/yuarel.c ****  */
 234:Src/communication/yuarel.c **** int
 235:Src/communication/yuarel.c **** yuarel_split_path(char *path, char **parts, int max_parts)
 236:Src/communication/yuarel.c **** {
 413              		.loc 1 236 0
 414              		.cfi_startproc
 415              		@ args = 0, pretend = 0, frame = 0
 416              		@ frame_needed = 0, uses_anonymous_args = 0
 417              	.LVL55:
 418 0000 70B5     		push	{r4, r5, r6, lr}
 419              	.LCFI3:
 420              		.cfi_def_cfa_offset 16
 421              		.cfi_offset 4, -16
 422              		.cfi_offset 5, -12
 423              		.cfi_offset 6, -8
 424              		.cfi_offset 14, -4
 425              	.LVL56:
 237:Src/communication/yuarel.c **** 	int i = 0;
 238:Src/communication/yuarel.c **** 
 239:Src/communication/yuarel.c **** 	if (NULL == path || '\0' == *path) {
 426              		.loc 1 239 0
 427 0002 D8B1     		cbz	r0, .L38
 428 0004 0D46     		mov	r5, r1
 429 0006 1646     		mov	r6, r2
 430 0008 0346     		mov	r3, r0
 431              		.loc 1 239 0 is_stmt 0 discriminator 1
 432 000a 0278     		ldrb	r2, [r0]	@ zero_extendqisi2
 433              	.LVL57:
 434 000c CAB1     		cbz	r2, .L39
 237:Src/communication/yuarel.c **** 	int i = 0;
 435              		.loc 1 237 0 is_stmt 1
 436 000e 0021     		movs	r1, #0
 437              	.LVL58:
 438 0010 02E0     		b	.L35
 439              	.LVL59:
 440              	.L36:
 240:Src/communication/yuarel.c **** 		return -1;
 241:Src/communication/yuarel.c **** 	}
 242:Src/communication/yuarel.c **** 
 243:Src/communication/yuarel.c **** 	do {
ARM GAS  /var/folders/0d/93p3r6493yg7p0rvl_4r983m0000gn/T//cc80w2Xo.s 			page 14


 244:Src/communication/yuarel.c **** 		/* Forward to after slashes */
 245:Src/communication/yuarel.c **** 		while (*path == '/') path++;
 441              		.loc 1 245 0 discriminator 2
 442 0012 0133     		adds	r3, r3, #1
 443              	.LVL60:
 444 0014 00E0     		b	.L35
 445              	.LVL61:
 446              	.L41:
 246:Src/communication/yuarel.c **** 
 247:Src/communication/yuarel.c **** 		if ('\0' == *path) {
 248:Src/communication/yuarel.c **** 			break;
 249:Src/communication/yuarel.c **** 		}
 250:Src/communication/yuarel.c **** 
 251:Src/communication/yuarel.c **** 		parts[i++] = path;
 447              		.loc 1 251 0
 448 0016 2146     		mov	r1, r4
 449              	.LVL62:
 450              	.L35:
 245:Src/communication/yuarel.c **** 
 451              		.loc 1 245 0 discriminator 1
 452 0018 1A78     		ldrb	r2, [r3]	@ zero_extendqisi2
 453 001a 2F2A     		cmp	r2, #47
 454 001c F9D0     		beq	.L36
 247:Src/communication/yuarel.c **** 			break;
 455              		.loc 1 247 0
 456 001e 9AB1     		cbz	r2, .L40
 457              		.loc 1 251 0
 458 0020 4C1C     		adds	r4, r1, #1
 459              	.LVL63:
 460 0022 45F82130 		str	r3, [r5, r1, lsl #2]
 252:Src/communication/yuarel.c **** 
 253:Src/communication/yuarel.c **** 		path = strchr(path, '/');
 461              		.loc 1 253 0
 462 0026 2F21     		movs	r1, #47
 463 0028 1846     		mov	r0, r3
 464 002a FFF7FEFF 		bl	strchr
 465              	.LVL64:
 254:Src/communication/yuarel.c **** 		if (NULL == path) {
 466              		.loc 1 254 0
 467 002e 60B1     		cbz	r0, .L33
 255:Src/communication/yuarel.c **** 			break;
 256:Src/communication/yuarel.c **** 		}
 257:Src/communication/yuarel.c **** 
 258:Src/communication/yuarel.c **** 		*(path++) = '\0';
 468              		.loc 1 258 0
 469 0030 431C     		adds	r3, r0, #1
 470              	.LVL65:
 471 0032 0021     		movs	r1, #0
 472 0034 0170     		strb	r1, [r0]
 259:Src/communication/yuarel.c **** 	} while (i < max_parts);
 473              		.loc 1 259 0
 474 0036 B442     		cmp	r4, r6
 475 0038 EDDB     		blt	.L41
 476 003a 06E0     		b	.L33
 477              	.LVL66:
 478              	.L38:
 240:Src/communication/yuarel.c **** 	}
ARM GAS  /var/folders/0d/93p3r6493yg7p0rvl_4r983m0000gn/T//cc80w2Xo.s 			page 15


 479              		.loc 1 240 0
 480 003c 4FF0FF34 		mov	r4, #-1
 481 0040 03E0     		b	.L33
 482              	.LVL67:
 483              	.L39:
 484 0042 4FF0FF34 		mov	r4, #-1
 485 0046 00E0     		b	.L33
 486              	.LVL68:
 487              	.L40:
 488 0048 0C46     		mov	r4, r1
 489              	.LVL69:
 490              	.L33:
 260:Src/communication/yuarel.c **** 
 261:Src/communication/yuarel.c **** 	return i;
 262:Src/communication/yuarel.c **** }
 491              		.loc 1 262 0
 492 004a 2046     		mov	r0, r4
 493 004c 70BD     		pop	{r4, r5, r6, pc}
 494              		.cfi_endproc
 495              	.LFE11:
 497              		.section	.text.yuarel_parse_query,"ax",%progbits
 498              		.align	1
 499              		.global	yuarel_parse_query
 500              		.syntax unified
 501              		.thumb
 502              		.thumb_func
 503              		.fpu fpv4-sp-d16
 505              	yuarel_parse_query:
 506              	.LFB12:
 263:Src/communication/yuarel.c **** 
 264:Src/communication/yuarel.c **** int
 265:Src/communication/yuarel.c **** yuarel_parse_query(char *query, char delimiter, struct yuarel_param *params, int max_params)
 266:Src/communication/yuarel.c **** {
 507              		.loc 1 266 0
 508              		.cfi_startproc
 509              		@ args = 0, pretend = 0, frame = 0
 510              		@ frame_needed = 0, uses_anonymous_args = 0
 511              	.LVL70:
 512 0000 2DE9F843 		push	{r3, r4, r5, r6, r7, r8, r9, lr}
 513              	.LCFI4:
 514              		.cfi_def_cfa_offset 32
 515              		.cfi_offset 3, -32
 516              		.cfi_offset 4, -28
 517              		.cfi_offset 5, -24
 518              		.cfi_offset 6, -20
 519              		.cfi_offset 7, -16
 520              		.cfi_offset 8, -12
 521              		.cfi_offset 9, -8
 522              		.cfi_offset 14, -4
 523              	.LVL71:
 267:Src/communication/yuarel.c **** 	int i = 0;
 268:Src/communication/yuarel.c **** 
 269:Src/communication/yuarel.c **** 	if (NULL == query || '\0' == *query) {
 524              		.loc 1 269 0
 525 0004 0028     		cmp	r0, #0
 526 0006 43D0     		beq	.L49
 527 0008 8846     		mov	r8, r1
ARM GAS  /var/folders/0d/93p3r6493yg7p0rvl_4r983m0000gn/T//cc80w2Xo.s 			page 16


 528 000a 1646     		mov	r6, r2
 529 000c 1F46     		mov	r7, r3
 530 000e 0446     		mov	r4, r0
 531              		.loc 1 269 0 is_stmt 0 discriminator 1
 532 0010 0378     		ldrb	r3, [r0]	@ zero_extendqisi2
 533              	.LVL72:
 534 0012 002B     		cmp	r3, #0
 535 0014 3FD0     		beq	.L50
 536              	.LVL73:
 270:Src/communication/yuarel.c **** 		return -1;
 271:Src/communication/yuarel.c **** 	}
 272:Src/communication/yuarel.c **** 
 273:Src/communication/yuarel.c **** 	params[i++].key = query;
 537              		.loc 1 273 0 is_stmt 1
 538 0016 3060     		str	r0, [r6]
 539 0018 0125     		movs	r5, #1
 274:Src/communication/yuarel.c **** 	while (i < max_params && NULL != (query = strchr(query, delimiter))) {
 540              		.loc 1 274 0
 541 001a 00E0     		b	.L45
 542              	.LVL74:
 543              	.L46:
 275:Src/communication/yuarel.c **** 		*query = '\0';
 276:Src/communication/yuarel.c **** 		params[i].key = ++query;
 277:Src/communication/yuarel.c **** 		params[i].val = NULL;
 278:Src/communication/yuarel.c **** 
 279:Src/communication/yuarel.c **** 		/* Go back and split previous param */
 280:Src/communication/yuarel.c **** 		if (i > 0) {
 281:Src/communication/yuarel.c **** 			if ((params[i - 1].val = strchr(params[i - 1].key, '=')) != NULL) {
 282:Src/communication/yuarel.c **** 				*(params[i - 1].val)++ = '\0';
 283:Src/communication/yuarel.c **** 			}
 284:Src/communication/yuarel.c **** 		}
 285:Src/communication/yuarel.c **** 		i++;
 544              		.loc 1 285 0
 545 001c 0135     		adds	r5, r5, #1
 546              	.LVL75:
 547              	.L45:
 274:Src/communication/yuarel.c **** 	while (i < max_params && NULL != (query = strchr(query, delimiter))) {
 548              		.loc 1 274 0
 549 001e BD42     		cmp	r5, r7
 550 0020 23DA     		bge	.L47
 274:Src/communication/yuarel.c **** 	while (i < max_params && NULL != (query = strchr(query, delimiter))) {
 551              		.loc 1 274 0 is_stmt 0 discriminator 1
 552 0022 4146     		mov	r1, r8
 553 0024 2046     		mov	r0, r4
 554 0026 FFF7FEFF 		bl	strchr
 555              	.LVL76:
 556 002a 0446     		mov	r4, r0
 557 002c E8B1     		cbz	r0, .L47
 275:Src/communication/yuarel.c **** 		*query = '\0';
 558              		.loc 1 275 0 is_stmt 1
 559 002e 0022     		movs	r2, #0
 560 0030 04F8012B 		strb	r2, [r4], #1
 561              	.LVL77:
 276:Src/communication/yuarel.c **** 		params[i].val = NULL;
 562              		.loc 1 276 0
 563 0034 06EBC503 		add	r3, r6, r5, lsl #3
 564 0038 46F83540 		str	r4, [r6, r5, lsl #3]
ARM GAS  /var/folders/0d/93p3r6493yg7p0rvl_4r983m0000gn/T//cc80w2Xo.s 			page 17


 277:Src/communication/yuarel.c **** 
 565              		.loc 1 277 0
 566 003c 5A60     		str	r2, [r3, #4]
 280:Src/communication/yuarel.c **** 			if ((params[i - 1].val = strchr(params[i - 1].key, '=')) != NULL) {
 567              		.loc 1 280 0
 568 003e 9542     		cmp	r5, r2
 569 0040 ECDD     		ble	.L46
 281:Src/communication/yuarel.c **** 				*(params[i - 1].val)++ = '\0';
 570              		.loc 1 281 0
 571 0042 05F10053 		add	r3, r5, #536870912
 572 0046 013B     		subs	r3, r3, #1
 573 0048 06EBC309 		add	r9, r6, r3, lsl #3
 574 004c 3D21     		movs	r1, #61
 575 004e 56F83300 		ldr	r0, [r6, r3, lsl #3]
 576 0052 FFF7FEFF 		bl	strchr
 577              	.LVL78:
 578 0056 C9F80400 		str	r0, [r9, #4]
 579 005a 0028     		cmp	r0, #0
 580 005c DED0     		beq	.L46
 282:Src/communication/yuarel.c **** 			}
 581              		.loc 1 282 0
 582 005e 431C     		adds	r3, r0, #1
 583 0060 C9F80430 		str	r3, [r9, #4]
 584 0064 0023     		movs	r3, #0
 585 0066 0370     		strb	r3, [r0]
 586 0068 D8E7     		b	.L46
 587              	.L47:
 286:Src/communication/yuarel.c **** 	}
 287:Src/communication/yuarel.c **** 
 288:Src/communication/yuarel.c **** 	/* Go back and split last param */
 289:Src/communication/yuarel.c **** 	if ((params[i - 1].val = strchr(params[i - 1].key, '=')) != NULL) {
 588              		.loc 1 289 0
 589 006a 05F10053 		add	r3, r5, #536870912
 590 006e 013B     		subs	r3, r3, #1
 591 0070 06EBC304 		add	r4, r6, r3, lsl #3
 592              	.LVL79:
 593 0074 3D21     		movs	r1, #61
 594 0076 56F83300 		ldr	r0, [r6, r3, lsl #3]
 595 007a FFF7FEFF 		bl	strchr
 596              	.LVL80:
 597 007e 6060     		str	r0, [r4, #4]
 598 0080 18B1     		cbz	r0, .L43
 290:Src/communication/yuarel.c **** 		*(params[i - 1].val)++ = '\0';
 599              		.loc 1 290 0
 600 0082 431C     		adds	r3, r0, #1
 601 0084 6360     		str	r3, [r4, #4]
 602 0086 0023     		movs	r3, #0
 603 0088 0370     		strb	r3, [r0]
 604              	.LVL81:
 605              	.L43:
 291:Src/communication/yuarel.c **** 	}
 292:Src/communication/yuarel.c **** 
 293:Src/communication/yuarel.c **** 	return i;
 294:Src/communication/yuarel.c **** }
 606              		.loc 1 294 0
 607 008a 2846     		mov	r0, r5
 608 008c BDE8F883 		pop	{r3, r4, r5, r6, r7, r8, r9, pc}
ARM GAS  /var/folders/0d/93p3r6493yg7p0rvl_4r983m0000gn/T//cc80w2Xo.s 			page 18


 609              	.LVL82:
 610              	.L49:
 270:Src/communication/yuarel.c **** 	}
 611              		.loc 1 270 0
 612 0090 4FF0FF35 		mov	r5, #-1
 613 0094 F9E7     		b	.L43
 614              	.LVL83:
 615              	.L50:
 616 0096 4FF0FF35 		mov	r5, #-1
 617 009a F6E7     		b	.L43
 618              		.cfi_endproc
 619              	.LFE12:
 621              		.text
 622              	.Letext0:
 623              		.file 2 "/usr/local/gcc_arm/gcc-arm-none-eabi-7-2017-q4-major/lib/gcc/arm-none-eabi/7.2.1/include/
 624              		.file 3 "/usr/local/gcc_arm/gcc-arm-none-eabi-7-2017-q4-major/arm-none-eabi/include/sys/lock.h"
 625              		.file 4 "/usr/local/gcc_arm/gcc-arm-none-eabi-7-2017-q4-major/arm-none-eabi/include/sys/_types.h"
 626              		.file 5 "/usr/local/gcc_arm/gcc-arm-none-eabi-7-2017-q4-major/arm-none-eabi/include/sys/reent.h"
 627              		.file 6 "/usr/local/gcc_arm/gcc-arm-none-eabi-7-2017-q4-major/arm-none-eabi/include/stdlib.h"
 628              		.file 7 "Inc/communication/yuarel.h"
 629              		.file 8 "/usr/local/gcc_arm/gcc-arm-none-eabi-7-2017-q4-major/arm-none-eabi/include/string.h"
 630              		.file 9 "<built-in>"
ARM GAS  /var/folders/0d/93p3r6493yg7p0rvl_4r983m0000gn/T//cc80w2Xo.s 			page 19

